
Lab13.elf:     file format elf32-littlearm

Sections:
Idx Name          Size      VMA       LMA       File off  Algn
  0 .isr_vector   000001e4  08000000  08000000  00010000  2**0
                  CONTENTS, ALLOC, LOAD, READONLY, DATA
  1 .text         00002efc  080001f0  080001f0  000101f0  2**4
                  CONTENTS, ALLOC, LOAD, READONLY, CODE
  2 .rodata       000000f0  080030ec  080030ec  000130ec  2**2
                  CONTENTS, ALLOC, LOAD, READONLY, DATA
  3 .ARM.extab    00000000  080031dc  080031dc  00020010  2**0
                  CONTENTS
  4 .ARM          00000000  080031dc  080031dc  00020010  2**0
                  CONTENTS
  5 .preinit_array 00000000  080031dc  080031dc  00020010  2**0
                  CONTENTS, ALLOC, LOAD, DATA
  6 .init_array   00000004  080031dc  080031dc  000131dc  2**2
                  CONTENTS, ALLOC, LOAD, DATA
  7 .fini_array   00000004  080031e0  080031e0  000131e0  2**2
                  CONTENTS, ALLOC, LOAD, DATA
  8 .data         00000010  20000000  080031e4  00020000  2**2
                  CONTENTS, ALLOC, LOAD, DATA
  9 .bss          000014c8  20000010  080031f4  00020010  2**2
                  ALLOC
 10 ._user_heap_stack 00000600  200014d8  080031f4  000214d8  2**0
                  ALLOC
 11 .ARM.attributes 00000029  00000000  00000000  00020010  2**0
                  CONTENTS, READONLY
 12 .comment      00000050  00000000  00000000  00020039  2**0
                  CONTENTS, READONLY
 13 .debug_frame  00000094  00000000  00000000  0002008c  2**2
                  CONTENTS, READONLY, DEBUGGING, OCTETS

Disassembly of section .text:

080001f0 <__do_global_dtors_aux>:
 80001f0:	b510      	push	{r4, lr}
 80001f2:	4c05      	ldr	r4, [pc, #20]	; (8000208 <__do_global_dtors_aux+0x18>)
 80001f4:	7823      	ldrb	r3, [r4, #0]
 80001f6:	b933      	cbnz	r3, 8000206 <__do_global_dtors_aux+0x16>
 80001f8:	4b04      	ldr	r3, [pc, #16]	; (800020c <__do_global_dtors_aux+0x1c>)
 80001fa:	b113      	cbz	r3, 8000202 <__do_global_dtors_aux+0x12>
 80001fc:	4804      	ldr	r0, [pc, #16]	; (8000210 <__do_global_dtors_aux+0x20>)
 80001fe:	f3af 8000 	nop.w
 8000202:	2301      	movs	r3, #1
 8000204:	7023      	strb	r3, [r4, #0]
 8000206:	bd10      	pop	{r4, pc}
 8000208:	20000010 	.word	0x20000010
 800020c:	00000000 	.word	0x00000000
 8000210:	080030d4 	.word	0x080030d4

08000214 <frame_dummy>:
 8000214:	b508      	push	{r3, lr}
 8000216:	4b03      	ldr	r3, [pc, #12]	; (8000224 <frame_dummy+0x10>)
 8000218:	b11b      	cbz	r3, 8000222 <frame_dummy+0xe>
 800021a:	4903      	ldr	r1, [pc, #12]	; (8000228 <frame_dummy+0x14>)
 800021c:	4803      	ldr	r0, [pc, #12]	; (800022c <frame_dummy+0x18>)
 800021e:	f3af 8000 	nop.w
 8000222:	bd08      	pop	{r3, pc}
 8000224:	00000000 	.word	0x00000000
 8000228:	20000014 	.word	0x20000014
 800022c:	080030d4 	.word	0x080030d4

08000230 <strlen>:
 8000230:	4603      	mov	r3, r0
 8000232:	f813 2b01 	ldrb.w	r2, [r3], #1
 8000236:	2a00      	cmp	r2, #0
 8000238:	d1fb      	bne.n	8000232 <strlen+0x2>
 800023a:	1a18      	subs	r0, r3, r0
 800023c:	3801      	subs	r0, #1
 800023e:	4770      	bx	lr

08000240 <vApplicationGetIdleTaskMemory>:
 8000240:	4b03      	ldr	r3, [pc, #12]	; (8000250 <vApplicationGetIdleTaskMemory+0x10>)
 8000242:	6003      	str	r3, [r0, #0]
 8000244:	4b03      	ldr	r3, [pc, #12]	; (8000254 <vApplicationGetIdleTaskMemory+0x14>)
 8000246:	600b      	str	r3, [r1, #0]
 8000248:	2380      	movs	r3, #128	; 0x80
 800024a:	6013      	str	r3, [r2, #0]
 800024c:	4770      	bx	lr
 800024e:	bf00      	nop
 8000250:	2000022c 	.word	0x2000022c
 8000254:	2000002c 	.word	0x2000002c

08000258 <PeriodicTask>:
 8000258:	b508      	push	{r3, lr}
 800025a:	4c04      	ldr	r4, [pc, #16]	; (800026c <PeriodicTask+0x14>)
 800025c:	f44f 707a 	mov.w	r0, #1000	; 0x3e8
 8000260:	f001 fb2b 	bl	80018ba <osDelay>
 8000264:	6820      	ldr	r0, [r4, #0]
 8000266:	f001 fba4 	bl	80019b2 <osSemaphoreRelease>
 800026a:	e7f7      	b.n	800025c <PeriodicTask+0x4>
 800026c:	20000290 	.word	0x20000290

08000270 <HandleTask>:
 8000270:	b508      	push	{r3, lr}
 8000272:	4e09      	ldr	r6, [pc, #36]	; (8000298 <HandleTask+0x28>)
 8000274:	4d09      	ldr	r5, [pc, #36]	; (800029c <HandleTask+0x2c>)
 8000276:	4c0a      	ldr	r4, [pc, #40]	; (80002a0 <HandleTask+0x30>)
 8000278:	f04f 31ff 	mov.w	r1, #4294967295
 800027c:	6830      	ldr	r0, [r6, #0]
 800027e:	f001 fb73 	bl	8001968 <osSemaphoreWait>
 8000282:	4628      	mov	r0, r5
 8000284:	f44f 7180 	mov.w	r1, #256	; 0x100
 8000288:	f000 fc81 	bl	8000b8e <HAL_GPIO_TogglePin>
 800028c:	2104      	movs	r1, #4
 800028e:	4620      	mov	r0, r4
 8000290:	f000 fc7d 	bl	8000b8e <HAL_GPIO_TogglePin>
 8000294:	e7f0      	b.n	8000278 <HandleTask+0x8>
 8000296:	bf00      	nop
 8000298:	20000290 	.word	0x20000290
 800029c:	40010800 	.word	0x40010800
 80002a0:	40011400 	.word	0x40011400

080002a4 <FuncProducer>:
 80002a4:	b508      	push	{r3, lr}
 80002a6:	4d0f      	ldr	r5, [pc, #60]	; (80002e4 <FuncProducer+0x40>)
 80002a8:	4c0f      	ldr	r4, [pc, #60]	; (80002e8 <FuncProducer+0x44>)
 80002aa:	f04f 31ff 	mov.w	r1, #4294967295
 80002ae:	6828      	ldr	r0, [r5, #0]
 80002b0:	f001 fb5a 	bl	8001968 <osSemaphoreWait>
 80002b4:	490d      	ldr	r1, [pc, #52]	; (80002ec <FuncProducer+0x48>)
 80002b6:	4620      	mov	r0, r4
 80002b8:	f002 ff04 	bl	80030c4 <strcpy>
 80002bc:	4620      	mov	r0, r4
 80002be:	f7ff ffb7 	bl	8000230 <strlen>
 80002c2:	f04f 33ff 	mov.w	r3, #4294967295
 80002c6:	b282      	uxth	r2, r0
 80002c8:	4621      	mov	r1, r4
 80002ca:	4809      	ldr	r0, [pc, #36]	; (80002f0 <FuncProducer+0x4c>)
 80002cc:	f001 f912 	bl	80014f4 <HAL_UART_Transmit>
 80002d0:	f44f 70fa 	mov.w	r0, #500	; 0x1f4
 80002d4:	f000 fa4e 	bl	8000774 <HAL_Delay>
 80002d8:	4b06      	ldr	r3, [pc, #24]	; (80002f4 <FuncProducer+0x50>)
 80002da:	6818      	ldr	r0, [r3, #0]
 80002dc:	f001 fb69 	bl	80019b2 <osSemaphoreRelease>
 80002e0:	e7e3      	b.n	80002aa <FuncProducer+0x6>
 80002e2:	bf00      	nop
 80002e4:	20000294 	.word	0x20000294
 80002e8:	200002e0 	.word	0x200002e0
 80002ec:	0800317e 	.word	0x0800317e
 80002f0:	2000029c 	.word	0x2000029c
 80002f4:	20000298 	.word	0x20000298

080002f8 <FuncConsumer>:
 80002f8:	b508      	push	{r3, lr}
 80002fa:	4d0f      	ldr	r5, [pc, #60]	; (8000338 <FuncConsumer+0x40>)
 80002fc:	4c0f      	ldr	r4, [pc, #60]	; (800033c <FuncConsumer+0x44>)
 80002fe:	f04f 31ff 	mov.w	r1, #4294967295
 8000302:	6828      	ldr	r0, [r5, #0]
 8000304:	f001 fb30 	bl	8001968 <osSemaphoreWait>
 8000308:	490d      	ldr	r1, [pc, #52]	; (8000340 <FuncConsumer+0x48>)
 800030a:	4620      	mov	r0, r4
 800030c:	f002 feda 	bl	80030c4 <strcpy>
 8000310:	4620      	mov	r0, r4
 8000312:	f7ff ff8d 	bl	8000230 <strlen>
 8000316:	f04f 33ff 	mov.w	r3, #4294967295
 800031a:	b282      	uxth	r2, r0
 800031c:	4621      	mov	r1, r4
 800031e:	4809      	ldr	r0, [pc, #36]	; (8000344 <FuncConsumer+0x4c>)
 8000320:	f001 f8e8 	bl	80014f4 <HAL_UART_Transmit>
 8000324:	f44f 70fa 	mov.w	r0, #500	; 0x1f4
 8000328:	f000 fa24 	bl	8000774 <HAL_Delay>
 800032c:	4b06      	ldr	r3, [pc, #24]	; (8000348 <FuncConsumer+0x50>)
 800032e:	6818      	ldr	r0, [r3, #0]
 8000330:	f001 fb3f 	bl	80019b2 <osSemaphoreRelease>
 8000334:	e7e3      	b.n	80002fe <FuncConsumer+0x6>
 8000336:	bf00      	nop
 8000338:	20000298 	.word	0x20000298
 800033c:	200002e0 	.word	0x200002e0
 8000340:	08003196 	.word	0x08003196
 8000344:	2000029c 	.word	0x2000029c
 8000348:	20000294 	.word	0x20000294

0800034c <SystemClock_Config>:
 800034c:	b510      	push	{r4, lr}
 800034e:	b090      	sub	sp, #64	; 0x40
 8000350:	2214      	movs	r2, #20
 8000352:	2100      	movs	r1, #0
 8000354:	a808      	add	r0, sp, #32
 8000356:	f002 fead 	bl	80030b4 <memset>
 800035a:	2214      	movs	r2, #20
 800035c:	2100      	movs	r1, #0
 800035e:	a801      	add	r0, sp, #4
 8000360:	f002 fea8 	bl	80030b4 <memset>
 8000364:	2402      	movs	r4, #2
 8000366:	f44f 3380 	mov.w	r3, #65536	; 0x10000
 800036a:	2201      	movs	r2, #1
 800036c:	e9cd 430d 	strd	r4, r3, [sp, #52]	; 0x34
 8000370:	e9cd 2306 	strd	r2, r3, [sp, #24]
 8000374:	f44f 13e0 	mov.w	r3, #1835008	; 0x1c0000
 8000378:	a806      	add	r0, sp, #24
 800037a:	920a      	str	r2, [sp, #40]	; 0x28
 800037c:	930f      	str	r3, [sp, #60]	; 0x3c
 800037e:	f000 fc0f 	bl	8000ba0 <HAL_RCC_OscConfig>
 8000382:	b108      	cbz	r0, 8000388 <SystemClock_Config+0x3c>
 8000384:	b672      	cpsid	i
 8000386:	e7fe      	b.n	8000386 <SystemClock_Config+0x3a>
 8000388:	230f      	movs	r3, #15
 800038a:	e9cd 3401 	strd	r3, r4, [sp, #4]
 800038e:	f44f 6380 	mov.w	r3, #1024	; 0x400
 8000392:	9003      	str	r0, [sp, #12]
 8000394:	e9cd 3004 	strd	r3, r0, [sp, #16]
 8000398:	4621      	mov	r1, r4
 800039a:	a801      	add	r0, sp, #4
 800039c:	f000 fdd6 	bl	8000f4c <HAL_RCC_ClockConfig>
 80003a0:	b108      	cbz	r0, 80003a6 <SystemClock_Config+0x5a>
 80003a2:	b672      	cpsid	i
 80003a4:	e7fe      	b.n	80003a4 <SystemClock_Config+0x58>
 80003a6:	b010      	add	sp, #64	; 0x40
 80003a8:	bd10      	pop	{r4, pc}
	...

080003ac <main>:
 80003ac:	b580      	push	{r7, lr}
 80003ae:	b0a4      	sub	sp, #144	; 0x90
 80003b0:	f000 f9bc 	bl	800072c <HAL_Init>
 80003b4:	f7ff ffca 	bl	800034c <SystemClock_Config>
 80003b8:	2210      	movs	r2, #16
 80003ba:	2100      	movs	r1, #0
 80003bc:	a81d      	add	r0, sp, #116	; 0x74
 80003be:	f002 fe79 	bl	80030b4 <memset>
 80003c2:	4b4e      	ldr	r3, [pc, #312]	; (80004fc <main+0x150>)
 80003c4:	f44f 7180 	mov.w	r1, #256	; 0x100
 80003c8:	699a      	ldr	r2, [r3, #24]
 80003ca:	484d      	ldr	r0, [pc, #308]	; (8000500 <main+0x154>)
 80003cc:	f042 0220 	orr.w	r2, r2, #32
 80003d0:	619a      	str	r2, [r3, #24]
 80003d2:	699a      	ldr	r2, [r3, #24]
 80003d4:	2400      	movs	r4, #0
 80003d6:	f002 0220 	and.w	r2, r2, #32
 80003da:	9200      	str	r2, [sp, #0]
 80003dc:	9a00      	ldr	r2, [sp, #0]
 80003de:	699a      	ldr	r2, [r3, #24]
 80003e0:	2502      	movs	r5, #2
 80003e2:	f042 0204 	orr.w	r2, r2, #4
 80003e6:	619a      	str	r2, [r3, #24]
 80003e8:	699b      	ldr	r3, [r3, #24]
 80003ea:	2201      	movs	r2, #1
 80003ec:	f003 0304 	and.w	r3, r3, #4
 80003f0:	9301      	str	r3, [sp, #4]
 80003f2:	9b01      	ldr	r3, [sp, #4]
 80003f4:	f000 fbc6 	bl	8000b84 <HAL_GPIO_WritePin>
 80003f8:	2201      	movs	r2, #1
 80003fa:	2104      	movs	r1, #4
 80003fc:	4841      	ldr	r0, [pc, #260]	; (8000504 <main+0x158>)
 80003fe:	f000 fbc1 	bl	8000b84 <HAL_GPIO_WritePin>
 8000402:	2701      	movs	r7, #1
 8000404:	f44f 7380 	mov.w	r3, #256	; 0x100
 8000408:	2604      	movs	r6, #4
 800040a:	483d      	ldr	r0, [pc, #244]	; (8000500 <main+0x154>)
 800040c:	a91d      	add	r1, sp, #116	; 0x74
 800040e:	e9cd 371d 	strd	r3, r7, [sp, #116]	; 0x74
 8000412:	e9cd 451f 	strd	r4, r5, [sp, #124]	; 0x7c
 8000416:	f000 facd 	bl	80009b4 <HAL_GPIO_Init>
 800041a:	483a      	ldr	r0, [pc, #232]	; (8000504 <main+0x158>)
 800041c:	a91d      	add	r1, sp, #116	; 0x74
 800041e:	e9cd 451f 	strd	r4, r5, [sp, #124]	; 0x7c
 8000422:	e9cd 671d 	strd	r6, r7, [sp, #116]	; 0x74
 8000426:	f000 fac5 	bl	80009b4 <HAL_GPIO_Init>
 800042a:	f44f 33e1 	mov.w	r3, #115200	; 0x1c200
 800042e:	4836      	ldr	r0, [pc, #216]	; (8000508 <main+0x15c>)
 8000430:	4a36      	ldr	r2, [pc, #216]	; (800050c <main+0x160>)
 8000432:	e9c0 4402 	strd	r4, r4, [r0, #8]
 8000436:	e9c0 2300 	strd	r2, r3, [r0]
 800043a:	230c      	movs	r3, #12
 800043c:	6104      	str	r4, [r0, #16]
 800043e:	e9c0 3405 	strd	r3, r4, [r0, #20]
 8000442:	61c4      	str	r4, [r0, #28]
 8000444:	f001 f828 	bl	8001498 <HAL_UART_Init>
 8000448:	4605      	mov	r5, r0
 800044a:	b108      	cbz	r0, 8000450 <main+0xa4>
 800044c:	b672      	cpsid	i
 800044e:	e7fe      	b.n	800044e <main+0xa2>
 8000450:	4639      	mov	r1, r7
 8000452:	e9cd 0002 	strd	r0, r0, [sp, #8]
 8000456:	a802      	add	r0, sp, #8
 8000458:	f001 fa5a 	bl	8001910 <osSemaphoreCreate>
 800045c:	4b2c      	ldr	r3, [pc, #176]	; (8000510 <main+0x164>)
 800045e:	4631      	mov	r1, r6
 8000460:	6018      	str	r0, [r3, #0]
 8000462:	a804      	add	r0, sp, #16
 8000464:	e9cd 5504 	strd	r5, r5, [sp, #16]
 8000468:	f001 fa52 	bl	8001910 <osSemaphoreCreate>
 800046c:	4b29      	ldr	r3, [pc, #164]	; (8000514 <main+0x168>)
 800046e:	4631      	mov	r1, r6
 8000470:	6018      	str	r0, [r3, #0]
 8000472:	a806      	add	r0, sp, #24
 8000474:	e9cd 5506 	strd	r5, r5, [sp, #24]
 8000478:	f001 fa4a 	bl	8001910 <osSemaphoreCreate>
 800047c:	4c26      	ldr	r4, [pc, #152]	; (8000518 <main+0x16c>)
 800047e:	4b27      	ldr	r3, [pc, #156]	; (800051c <main+0x170>)
 8000480:	ae08      	add	r6, sp, #32
 8000482:	6018      	str	r0, [r3, #0]
 8000484:	cc0f      	ldmia	r4!, {r0, r1, r2, r3}
 8000486:	c60f      	stmia	r6!, {r0, r1, r2, r3}
 8000488:	e894 0007 	ldmia.w	r4, {r0, r1, r2}
 800048c:	e886 0007 	stmia.w	r6, {r0, r1, r2}
 8000490:	4629      	mov	r1, r5
 8000492:	a808      	add	r0, sp, #32
 8000494:	f001 f9e9 	bl	800186a <osThreadCreate>
 8000498:	4b21      	ldr	r3, [pc, #132]	; (8000520 <main+0x174>)
 800049a:	f104 070c 	add.w	r7, r4, #12
 800049e:	ae0f      	add	r6, sp, #60	; 0x3c
 80004a0:	6018      	str	r0, [r3, #0]
 80004a2:	cf0f      	ldmia	r7!, {r0, r1, r2, r3}
 80004a4:	c60f      	stmia	r6!, {r0, r1, r2, r3}
 80004a6:	e897 0007 	ldmia.w	r7, {r0, r1, r2}
 80004aa:	e886 0007 	stmia.w	r6, {r0, r1, r2}
 80004ae:	4629      	mov	r1, r5
 80004b0:	a80f      	add	r0, sp, #60	; 0x3c
 80004b2:	f001 f9da 	bl	800186a <osThreadCreate>
 80004b6:	4b1b      	ldr	r3, [pc, #108]	; (8000524 <main+0x178>)
 80004b8:	f104 0728 	add.w	r7, r4, #40	; 0x28
 80004bc:	ae16      	add	r6, sp, #88	; 0x58
 80004be:	6018      	str	r0, [r3, #0]
 80004c0:	cf0f      	ldmia	r7!, {r0, r1, r2, r3}
 80004c2:	c60f      	stmia	r6!, {r0, r1, r2, r3}
 80004c4:	e897 0007 	ldmia.w	r7, {r0, r1, r2}
 80004c8:	e886 0007 	stmia.w	r6, {r0, r1, r2}
 80004cc:	4629      	mov	r1, r5
 80004ce:	a816      	add	r0, sp, #88	; 0x58
 80004d0:	f001 f9cb 	bl	800186a <osThreadCreate>
 80004d4:	4b14      	ldr	r3, [pc, #80]	; (8000528 <main+0x17c>)
 80004d6:	ae1d      	add	r6, sp, #116	; 0x74
 80004d8:	3444      	adds	r4, #68	; 0x44
 80004da:	6018      	str	r0, [r3, #0]
 80004dc:	cc0f      	ldmia	r4!, {r0, r1, r2, r3}
 80004de:	c60f      	stmia	r6!, {r0, r1, r2, r3}
 80004e0:	e894 0007 	ldmia.w	r4, {r0, r1, r2}
 80004e4:	e886 0007 	stmia.w	r6, {r0, r1, r2}
 80004e8:	4629      	mov	r1, r5
 80004ea:	a81d      	add	r0, sp, #116	; 0x74
 80004ec:	f001 f9bd 	bl	800186a <osThreadCreate>
 80004f0:	4b0e      	ldr	r3, [pc, #56]	; (800052c <main+0x180>)
 80004f2:	6018      	str	r0, [r3, #0]
 80004f4:	f001 f9b4 	bl	8001860 <osKernelStart>
 80004f8:	e7fe      	b.n	80004f8 <main+0x14c>
 80004fa:	bf00      	nop
 80004fc:	40021000 	.word	0x40021000
 8000500:	40010800 	.word	0x40010800
 8000504:	40011400 	.word	0x40011400
 8000508:	2000029c 	.word	0x2000029c
 800050c:	40013800 	.word	0x40013800
 8000510:	20000290 	.word	0x20000290
 8000514:	20000294 	.word	0x20000294
 8000518:	080030ec 	.word	0x080030ec
 800051c:	20000298 	.word	0x20000298
 8000520:	20000288 	.word	0x20000288
 8000524:	20000284 	.word	0x20000284
 8000528:	2000028c 	.word	0x2000028c
 800052c:	20000280 	.word	0x20000280

08000530 <HAL_TIM_PeriodElapsedCallback>:
 8000530:	6802      	ldr	r2, [r0, #0]
 8000532:	4b03      	ldr	r3, [pc, #12]	; (8000540 <HAL_TIM_PeriodElapsedCallback+0x10>)
 8000534:	429a      	cmp	r2, r3
 8000536:	d101      	bne.n	800053c <HAL_TIM_PeriodElapsedCallback+0xc>
 8000538:	f000 b90a 	b.w	8000750 <HAL_IncTick>
 800053c:	4770      	bx	lr
 800053e:	bf00      	nop
 8000540:	40000400 	.word	0x40000400

08000544 <HAL_MspInit>:
 8000544:	4b11      	ldr	r3, [pc, #68]	; (800058c <HAL_MspInit+0x48>)
 8000546:	b507      	push	{r0, r1, r2, lr}
 8000548:	699a      	ldr	r2, [r3, #24]
 800054a:	210f      	movs	r1, #15
 800054c:	f042 0201 	orr.w	r2, r2, #1
 8000550:	619a      	str	r2, [r3, #24]
 8000552:	699a      	ldr	r2, [r3, #24]
 8000554:	f06f 0001 	mvn.w	r0, #1
 8000558:	f002 0201 	and.w	r2, r2, #1
 800055c:	9200      	str	r2, [sp, #0]
 800055e:	9a00      	ldr	r2, [sp, #0]
 8000560:	69da      	ldr	r2, [r3, #28]
 8000562:	f042 5280 	orr.w	r2, r2, #268435456	; 0x10000000
 8000566:	61da      	str	r2, [r3, #28]
 8000568:	69db      	ldr	r3, [r3, #28]
 800056a:	2200      	movs	r2, #0
 800056c:	f003 5380 	and.w	r3, r3, #268435456	; 0x10000000
 8000570:	9301      	str	r3, [sp, #4]
 8000572:	9b01      	ldr	r3, [sp, #4]
 8000574:	f000 f922 	bl	80007bc <HAL_NVIC_SetPriority>
 8000578:	4a05      	ldr	r2, [pc, #20]	; (8000590 <HAL_MspInit+0x4c>)
 800057a:	6853      	ldr	r3, [r2, #4]
 800057c:	f023 63e0 	bic.w	r3, r3, #117440512	; 0x7000000
 8000580:	f043 7300 	orr.w	r3, r3, #33554432	; 0x2000000
 8000584:	6053      	str	r3, [r2, #4]
 8000586:	b003      	add	sp, #12
 8000588:	f85d fb04 	ldr.w	pc, [sp], #4
 800058c:	40021000 	.word	0x40021000
 8000590:	40010000 	.word	0x40010000

08000594 <HAL_UART_MspInit>:
 8000594:	b510      	push	{r4, lr}
 8000596:	4604      	mov	r4, r0
 8000598:	b086      	sub	sp, #24
 800059a:	2210      	movs	r2, #16
 800059c:	2100      	movs	r1, #0
 800059e:	a802      	add	r0, sp, #8
 80005a0:	f002 fd88 	bl	80030b4 <memset>
 80005a4:	6822      	ldr	r2, [r4, #0]
 80005a6:	4b1b      	ldr	r3, [pc, #108]	; (8000614 <HAL_UART_MspInit+0x80>)
 80005a8:	429a      	cmp	r2, r3
 80005aa:	d130      	bne.n	800060e <HAL_UART_MspInit+0x7a>
 80005ac:	f503 4358 	add.w	r3, r3, #55296	; 0xd800
 80005b0:	699a      	ldr	r2, [r3, #24]
 80005b2:	4819      	ldr	r0, [pc, #100]	; (8000618 <HAL_UART_MspInit+0x84>)
 80005b4:	f442 4280 	orr.w	r2, r2, #16384	; 0x4000
 80005b8:	619a      	str	r2, [r3, #24]
 80005ba:	699a      	ldr	r2, [r3, #24]
 80005bc:	a902      	add	r1, sp, #8
 80005be:	f402 4280 	and.w	r2, r2, #16384	; 0x4000
 80005c2:	9200      	str	r2, [sp, #0]
 80005c4:	9a00      	ldr	r2, [sp, #0]
 80005c6:	699a      	ldr	r2, [r3, #24]
 80005c8:	2400      	movs	r4, #0
 80005ca:	f042 0204 	orr.w	r2, r2, #4
 80005ce:	619a      	str	r2, [r3, #24]
 80005d0:	699b      	ldr	r3, [r3, #24]
 80005d2:	f44f 7200 	mov.w	r2, #512	; 0x200
 80005d6:	f003 0304 	and.w	r3, r3, #4
 80005da:	9301      	str	r3, [sp, #4]
 80005dc:	9b01      	ldr	r3, [sp, #4]
 80005de:	2302      	movs	r3, #2
 80005e0:	e9cd 2302 	strd	r2, r3, [sp, #8]
 80005e4:	2303      	movs	r3, #3
 80005e6:	9305      	str	r3, [sp, #20]
 80005e8:	f000 f9e4 	bl	80009b4 <HAL_GPIO_Init>
 80005ec:	f44f 6380 	mov.w	r3, #1024	; 0x400
 80005f0:	4809      	ldr	r0, [pc, #36]	; (8000618 <HAL_UART_MspInit+0x84>)
 80005f2:	a902      	add	r1, sp, #8
 80005f4:	e9cd 3402 	strd	r3, r4, [sp, #8]
 80005f8:	9404      	str	r4, [sp, #16]
 80005fa:	f000 f9db 	bl	80009b4 <HAL_GPIO_Init>
 80005fe:	2025      	movs	r0, #37	; 0x25
 8000600:	4622      	mov	r2, r4
 8000602:	2105      	movs	r1, #5
 8000604:	f000 f8da 	bl	80007bc <HAL_NVIC_SetPriority>
 8000608:	2025      	movs	r0, #37	; 0x25
 800060a:	f000 f909 	bl	8000820 <HAL_NVIC_EnableIRQ>
 800060e:	b006      	add	sp, #24
 8000610:	bd10      	pop	{r4, pc}
 8000612:	bf00      	nop
 8000614:	40013800 	.word	0x40013800
 8000618:	40010800 	.word	0x40010800

0800061c <HAL_InitTick>:
 800061c:	4b21      	ldr	r3, [pc, #132]	; (80006a4 <HAL_InitTick+0x88>)
 800061e:	b570      	push	{r4, r5, r6, lr}
 8000620:	69da      	ldr	r2, [r3, #28]
 8000622:	b088      	sub	sp, #32
 8000624:	f042 0202 	orr.w	r2, r2, #2
 8000628:	61da      	str	r2, [r3, #28]
 800062a:	69db      	ldr	r3, [r3, #28]
 800062c:	4605      	mov	r5, r0
 800062e:	f003 0302 	and.w	r3, r3, #2
 8000632:	9302      	str	r3, [sp, #8]
 8000634:	a901      	add	r1, sp, #4
 8000636:	a803      	add	r0, sp, #12
 8000638:	9b02      	ldr	r3, [sp, #8]
 800063a:	f000 fd43 	bl	80010c4 <HAL_RCC_GetClockConfig>
 800063e:	9b06      	ldr	r3, [sp, #24]
 8000640:	bb4b      	cbnz	r3, 8000696 <HAL_InitTick+0x7a>
 8000642:	f000 fd1f 	bl	8001084 <HAL_RCC_GetPCLK1Freq>
 8000646:	4e18      	ldr	r6, [pc, #96]	; (80006a8 <HAL_InitTick+0x8c>)
 8000648:	4b18      	ldr	r3, [pc, #96]	; (80006ac <HAL_InitTick+0x90>)
 800064a:	6033      	str	r3, [r6, #0]
 800064c:	f240 33e7 	movw	r3, #999	; 0x3e7
 8000650:	60f3      	str	r3, [r6, #12]
 8000652:	4b17      	ldr	r3, [pc, #92]	; (80006b0 <HAL_InitTick+0x94>)
 8000654:	fbb0 f3f3 	udiv	r3, r0, r3
 8000658:	3b01      	subs	r3, #1
 800065a:	6073      	str	r3, [r6, #4]
 800065c:	2300      	movs	r3, #0
 800065e:	4630      	mov	r0, r6
 8000660:	6133      	str	r3, [r6, #16]
 8000662:	60b3      	str	r3, [r6, #8]
 8000664:	61b3      	str	r3, [r6, #24]
 8000666:	f000 fe71 	bl	800134c <HAL_TIM_Base_Init>
 800066a:	4604      	mov	r4, r0
 800066c:	b980      	cbnz	r0, 8000690 <HAL_InitTick+0x74>
 800066e:	4630      	mov	r0, r6
 8000670:	f000 fd48 	bl	8001104 <HAL_TIM_Base_Start_IT>
 8000674:	4604      	mov	r4, r0
 8000676:	b958      	cbnz	r0, 8000690 <HAL_InitTick+0x74>
 8000678:	201d      	movs	r0, #29
 800067a:	f000 f8d1 	bl	8000820 <HAL_NVIC_EnableIRQ>
 800067e:	2d0f      	cmp	r5, #15
 8000680:	d80d      	bhi.n	800069e <HAL_InitTick+0x82>
 8000682:	4622      	mov	r2, r4
 8000684:	4629      	mov	r1, r5
 8000686:	201d      	movs	r0, #29
 8000688:	f000 f898 	bl	80007bc <HAL_NVIC_SetPriority>
 800068c:	4b09      	ldr	r3, [pc, #36]	; (80006b4 <HAL_InitTick+0x98>)
 800068e:	601d      	str	r5, [r3, #0]
 8000690:	4620      	mov	r0, r4
 8000692:	b008      	add	sp, #32
 8000694:	bd70      	pop	{r4, r5, r6, pc}
 8000696:	f000 fcf5 	bl	8001084 <HAL_RCC_GetPCLK1Freq>
 800069a:	0040      	lsls	r0, r0, #1
 800069c:	e7d3      	b.n	8000646 <HAL_InitTick+0x2a>
 800069e:	2401      	movs	r4, #1
 80006a0:	e7f6      	b.n	8000690 <HAL_InitTick+0x74>
 80006a2:	bf00      	nop
 80006a4:	40021000 	.word	0x40021000
 80006a8:	20000344 	.word	0x20000344
 80006ac:	40000400 	.word	0x40000400
 80006b0:	000f4240 	.word	0x000f4240
 80006b4:	20000008 	.word	0x20000008

080006b8 <NMI_Handler>:
 80006b8:	e7fe      	b.n	80006b8 <NMI_Handler>

080006ba <HardFault_Handler>:
 80006ba:	e7fe      	b.n	80006ba <HardFault_Handler>

080006bc <MemManage_Handler>:
 80006bc:	e7fe      	b.n	80006bc <MemManage_Handler>

080006be <BusFault_Handler>:
 80006be:	e7fe      	b.n	80006be <BusFault_Handler>

080006c0 <UsageFault_Handler>:
 80006c0:	e7fe      	b.n	80006c0 <UsageFault_Handler>

080006c2 <DebugMon_Handler>:
 80006c2:	4770      	bx	lr

080006c4 <TIM3_IRQHandler>:
 80006c4:	4801      	ldr	r0, [pc, #4]	; (80006cc <TIM3_IRQHandler+0x8>)
 80006c6:	f000 bd53 	b.w	8001170 <HAL_TIM_IRQHandler>
 80006ca:	bf00      	nop
 80006cc:	20000344 	.word	0x20000344

080006d0 <USART1_IRQHandler>:
 80006d0:	4801      	ldr	r0, [pc, #4]	; (80006d8 <USART1_IRQHandler+0x8>)
 80006d2:	f000 bfbd 	b.w	8001650 <HAL_UART_IRQHandler>
 80006d6:	bf00      	nop
 80006d8:	2000029c 	.word	0x2000029c

080006dc <SystemInit>:
 80006dc:	4770      	bx	lr
	...

080006e0 <Reset_Handler>:
 80006e0:	480c      	ldr	r0, [pc, #48]	; (8000714 <LoopFillZerobss+0x12>)
 80006e2:	490d      	ldr	r1, [pc, #52]	; (8000718 <LoopFillZerobss+0x16>)
 80006e4:	4a0d      	ldr	r2, [pc, #52]	; (800071c <LoopFillZerobss+0x1a>)
 80006e6:	2300      	movs	r3, #0
 80006e8:	e002      	b.n	80006f0 <LoopCopyDataInit>

080006ea <CopyDataInit>:
 80006ea:	58d4      	ldr	r4, [r2, r3]
 80006ec:	50c4      	str	r4, [r0, r3]
 80006ee:	3304      	adds	r3, #4

080006f0 <LoopCopyDataInit>:
 80006f0:	18c4      	adds	r4, r0, r3
 80006f2:	428c      	cmp	r4, r1
 80006f4:	d3f9      	bcc.n	80006ea <CopyDataInit>
 80006f6:	4a0a      	ldr	r2, [pc, #40]	; (8000720 <LoopFillZerobss+0x1e>)
 80006f8:	4c0a      	ldr	r4, [pc, #40]	; (8000724 <LoopFillZerobss+0x22>)
 80006fa:	2300      	movs	r3, #0
 80006fc:	e001      	b.n	8000702 <LoopFillZerobss>

080006fe <FillZerobss>:
 80006fe:	6013      	str	r3, [r2, #0]
 8000700:	3204      	adds	r2, #4

08000702 <LoopFillZerobss>:
 8000702:	42a2      	cmp	r2, r4
 8000704:	d3fb      	bcc.n	80006fe <FillZerobss>
 8000706:	f7ff ffe9 	bl	80006dc <SystemInit>
 800070a:	f002 fca1 	bl	8003050 <__libc_init_array>
 800070e:	f7ff fe4d 	bl	80003ac <main>
 8000712:	4770      	bx	lr
 8000714:	20000000 	.word	0x20000000
 8000718:	20000010 	.word	0x20000010
 800071c:	080031e4 	.word	0x080031e4
 8000720:	20000010 	.word	0x20000010
 8000724:	200014d8 	.word	0x200014d8

08000728 <ADC1_2_IRQHandler>:
 8000728:	e7fe      	b.n	8000728 <ADC1_2_IRQHandler>
	...

0800072c <HAL_Init>:
 800072c:	4a07      	ldr	r2, [pc, #28]	; (800074c <HAL_Init+0x20>)
 800072e:	b508      	push	{r3, lr}
 8000730:	6813      	ldr	r3, [r2, #0]
 8000732:	2003      	movs	r0, #3
 8000734:	f043 0310 	orr.w	r3, r3, #16
 8000738:	6013      	str	r3, [r2, #0]
 800073a:	f000 f82d 	bl	8000798 <HAL_NVIC_SetPriorityGrouping>
 800073e:	200f      	movs	r0, #15
 8000740:	f7ff ff6c 	bl	800061c <HAL_InitTick>
 8000744:	f7ff fefe 	bl	8000544 <HAL_MspInit>
 8000748:	2000      	movs	r0, #0
 800074a:	bd08      	pop	{r3, pc}
 800074c:	40022000 	.word	0x40022000

08000750 <HAL_IncTick>:
 8000750:	4a03      	ldr	r2, [pc, #12]	; (8000760 <HAL_IncTick+0x10>)
 8000752:	4b04      	ldr	r3, [pc, #16]	; (8000764 <HAL_IncTick+0x14>)
 8000754:	6811      	ldr	r1, [r2, #0]
 8000756:	781b      	ldrb	r3, [r3, #0]
 8000758:	440b      	add	r3, r1
 800075a:	6013      	str	r3, [r2, #0]
 800075c:	4770      	bx	lr
 800075e:	bf00      	nop
 8000760:	2000038c 	.word	0x2000038c
 8000764:	20000004 	.word	0x20000004

08000768 <HAL_GetTick>:
 8000768:	4b01      	ldr	r3, [pc, #4]	; (8000770 <HAL_GetTick+0x8>)
 800076a:	6818      	ldr	r0, [r3, #0]
 800076c:	4770      	bx	lr
 800076e:	bf00      	nop
 8000770:	2000038c 	.word	0x2000038c

08000774 <HAL_Delay>:
 8000774:	b538      	push	{r3, r4, r5, lr}
 8000776:	4604      	mov	r4, r0
 8000778:	f7ff fff6 	bl	8000768 <HAL_GetTick>
 800077c:	4605      	mov	r5, r0
 800077e:	1c63      	adds	r3, r4, #1
 8000780:	bf1e      	ittt	ne
 8000782:	4b04      	ldrne	r3, [pc, #16]	; (8000794 <HAL_Delay+0x20>)
 8000784:	781b      	ldrbne	r3, [r3, #0]
 8000786:	18e4      	addne	r4, r4, r3
 8000788:	f7ff ffee 	bl	8000768 <HAL_GetTick>
 800078c:	1b43      	subs	r3, r0, r5
 800078e:	42a3      	cmp	r3, r4
 8000790:	d3fa      	bcc.n	8000788 <HAL_Delay+0x14>
 8000792:	bd38      	pop	{r3, r4, r5, pc}
 8000794:	20000004 	.word	0x20000004

08000798 <HAL_NVIC_SetPriorityGrouping>:
 8000798:	4907      	ldr	r1, [pc, #28]	; (80007b8 <HAL_NVIC_SetPriorityGrouping+0x20>)
 800079a:	0203      	lsls	r3, r0, #8
 800079c:	68ca      	ldr	r2, [r1, #12]
 800079e:	f403 63e0 	and.w	r3, r3, #1792	; 0x700
 80007a2:	f422 62e0 	bic.w	r2, r2, #1792	; 0x700
 80007a6:	0412      	lsls	r2, r2, #16
 80007a8:	0c12      	lsrs	r2, r2, #16
 80007aa:	4313      	orrs	r3, r2
 80007ac:	f043 63bf 	orr.w	r3, r3, #100139008	; 0x5f80000
 80007b0:	f443 3300 	orr.w	r3, r3, #131072	; 0x20000
 80007b4:	60cb      	str	r3, [r1, #12]
 80007b6:	4770      	bx	lr
 80007b8:	e000ed00 	.word	0xe000ed00

080007bc <HAL_NVIC_SetPriority>:
 80007bc:	4b16      	ldr	r3, [pc, #88]	; (8000818 <HAL_NVIC_SetPriority+0x5c>)
 80007be:	b530      	push	{r4, r5, lr}
 80007c0:	68dc      	ldr	r4, [r3, #12]
 80007c2:	f3c4 2402 	ubfx	r4, r4, #8, #3
 80007c6:	f1c4 0307 	rsb	r3, r4, #7
 80007ca:	1d25      	adds	r5, r4, #4
 80007cc:	2b04      	cmp	r3, #4
 80007ce:	bf28      	it	cs
 80007d0:	2304      	movcs	r3, #4
 80007d2:	2d06      	cmp	r5, #6
 80007d4:	f04f 35ff 	mov.w	r5, #4294967295
 80007d8:	bf98      	it	ls
 80007da:	2400      	movls	r4, #0
 80007dc:	fa05 f303 	lsl.w	r3, r5, r3
 80007e0:	bf88      	it	hi
 80007e2:	3c03      	subhi	r4, #3
 80007e4:	ea21 0303 	bic.w	r3, r1, r3
 80007e8:	40a3      	lsls	r3, r4
 80007ea:	fa05 f404 	lsl.w	r4, r5, r4
 80007ee:	ea22 0204 	bic.w	r2, r2, r4
 80007f2:	2800      	cmp	r0, #0
 80007f4:	ea43 0302 	orr.w	r3, r3, r2
 80007f8:	bfac      	ite	ge
 80007fa:	f100 4060 	addge.w	r0, r0, #3758096384	; 0xe0000000
 80007fe:	4a07      	ldrlt	r2, [pc, #28]	; (800081c <HAL_NVIC_SetPriority+0x60>)
 8000800:	ea4f 1303 	mov.w	r3, r3, lsl #4
 8000804:	b2db      	uxtb	r3, r3
 8000806:	bfab      	itete	ge
 8000808:	f500 4061 	addge.w	r0, r0, #57600	; 0xe100
 800080c:	f000 000f 	andlt.w	r0, r0, #15
 8000810:	f880 3300 	strbge.w	r3, [r0, #768]	; 0x300
 8000814:	5413      	strblt	r3, [r2, r0]
 8000816:	bd30      	pop	{r4, r5, pc}
 8000818:	e000ed00 	.word	0xe000ed00
 800081c:	e000ed14 	.word	0xe000ed14

08000820 <HAL_NVIC_EnableIRQ>:
 8000820:	2800      	cmp	r0, #0
 8000822:	db08      	blt.n	8000836 <HAL_NVIC_EnableIRQ+0x16>
 8000824:	2301      	movs	r3, #1
 8000826:	0942      	lsrs	r2, r0, #5
 8000828:	f000 001f 	and.w	r0, r0, #31
 800082c:	fa03 f000 	lsl.w	r0, r3, r0
 8000830:	4b01      	ldr	r3, [pc, #4]	; (8000838 <HAL_NVIC_EnableIRQ+0x18>)
 8000832:	f843 0022 	str.w	r0, [r3, r2, lsl #2]
 8000836:	4770      	bx	lr
 8000838:	e000e100 	.word	0xe000e100

0800083c <HAL_DMA_Abort>:
 800083c:	f890 3021 	ldrb.w	r3, [r0, #33]	; 0x21
 8000840:	2b02      	cmp	r3, #2
 8000842:	d006      	beq.n	8000852 <HAL_DMA_Abort+0x16>
 8000844:	2304      	movs	r3, #4
 8000846:	6383      	str	r3, [r0, #56]	; 0x38
 8000848:	2300      	movs	r3, #0
 800084a:	f880 3020 	strb.w	r3, [r0, #32]
 800084e:	2001      	movs	r0, #1
 8000850:	4770      	bx	lr
 8000852:	6803      	ldr	r3, [r0, #0]
 8000854:	681a      	ldr	r2, [r3, #0]
 8000856:	f022 020e 	bic.w	r2, r2, #14
 800085a:	601a      	str	r2, [r3, #0]
 800085c:	681a      	ldr	r2, [r3, #0]
 800085e:	f022 0201 	bic.w	r2, r2, #1
 8000862:	601a      	str	r2, [r3, #0]
 8000864:	2301      	movs	r3, #1
 8000866:	e9d0 210f 	ldrd	r2, r1, [r0, #60]	; 0x3c
 800086a:	408b      	lsls	r3, r1
 800086c:	6053      	str	r3, [r2, #4]
 800086e:	f44f 7380 	mov.w	r3, #256	; 0x100
 8000872:	8403      	strh	r3, [r0, #32]
 8000874:	2000      	movs	r0, #0
 8000876:	4770      	bx	lr

08000878 <HAL_DMA_Abort_IT>:
 8000878:	b508      	push	{r3, lr}
 800087a:	f890 3021 	ldrb.w	r3, [r0, #33]	; 0x21
 800087e:	2b02      	cmp	r3, #2
 8000880:	d003      	beq.n	800088a <HAL_DMA_Abort_IT+0x12>
 8000882:	2304      	movs	r3, #4
 8000884:	6383      	str	r3, [r0, #56]	; 0x38
 8000886:	2001      	movs	r0, #1
 8000888:	bd08      	pop	{r3, pc}
 800088a:	6803      	ldr	r3, [r0, #0]
 800088c:	4943      	ldr	r1, [pc, #268]	; (800099c <HAL_DMA_Abort_IT+0x124>)
 800088e:	681a      	ldr	r2, [r3, #0]
 8000890:	f022 020e 	bic.w	r2, r2, #14
 8000894:	601a      	str	r2, [r3, #0]
 8000896:	681a      	ldr	r2, [r3, #0]
 8000898:	f022 0201 	bic.w	r2, r2, #1
 800089c:	601a      	str	r2, [r3, #0]
 800089e:	4a40      	ldr	r2, [pc, #256]	; (80009a0 <HAL_DMA_Abort_IT+0x128>)
 80008a0:	4293      	cmp	r3, r2
 80008a2:	d941      	bls.n	8000928 <HAL_DMA_Abort_IT+0xb0>
 80008a4:	428b      	cmp	r3, r1
 80008a6:	d038      	beq.n	800091a <HAL_DMA_Abort_IT+0xa2>
 80008a8:	3114      	adds	r1, #20
 80008aa:	428b      	cmp	r3, r1
 80008ac:	d037      	beq.n	800091e <HAL_DMA_Abort_IT+0xa6>
 80008ae:	3114      	adds	r1, #20
 80008b0:	428b      	cmp	r3, r1
 80008b2:	d036      	beq.n	8000922 <HAL_DMA_Abort_IT+0xaa>
 80008b4:	3114      	adds	r1, #20
 80008b6:	428b      	cmp	r3, r1
 80008b8:	d023      	beq.n	8000902 <HAL_DMA_Abort_IT+0x8a>
 80008ba:	3114      	adds	r1, #20
 80008bc:	428b      	cmp	r3, r1
 80008be:	d023      	beq.n	8000908 <HAL_DMA_Abort_IT+0x90>
 80008c0:	3114      	adds	r1, #20
 80008c2:	428b      	cmp	r3, r1
 80008c4:	d023      	beq.n	800090e <HAL_DMA_Abort_IT+0x96>
 80008c6:	4293      	cmp	r3, r2
 80008c8:	d024      	beq.n	8000914 <HAL_DMA_Abort_IT+0x9c>
 80008ca:	f502 7262 	add.w	r2, r2, #904	; 0x388
 80008ce:	4293      	cmp	r3, r2
 80008d0:	d023      	beq.n	800091a <HAL_DMA_Abort_IT+0xa2>
 80008d2:	3214      	adds	r2, #20
 80008d4:	4293      	cmp	r3, r2
 80008d6:	d022      	beq.n	800091e <HAL_DMA_Abort_IT+0xa6>
 80008d8:	3214      	adds	r2, #20
 80008da:	4293      	cmp	r3, r2
 80008dc:	d021      	beq.n	8000922 <HAL_DMA_Abort_IT+0xaa>
 80008de:	3214      	adds	r2, #20
 80008e0:	4293      	cmp	r3, r2
 80008e2:	bf14      	ite	ne
 80008e4:	f44f 3380 	movne.w	r3, #65536	; 0x10000
 80008e8:	f44f 5380 	moveq.w	r3, #4096	; 0x1000
 80008ec:	4a2d      	ldr	r2, [pc, #180]	; (80009a4 <HAL_DMA_Abort_IT+0x12c>)
 80008ee:	6053      	str	r3, [r2, #4]
 80008f0:	f44f 7380 	mov.w	r3, #256	; 0x100
 80008f4:	8403      	strh	r3, [r0, #32]
 80008f6:	6b43      	ldr	r3, [r0, #52]	; 0x34
 80008f8:	2b00      	cmp	r3, #0
 80008fa:	d04d      	beq.n	8000998 <HAL_DMA_Abort_IT+0x120>
 80008fc:	4798      	blx	r3
 80008fe:	2000      	movs	r0, #0
 8000900:	e7c2      	b.n	8000888 <HAL_DMA_Abort_IT+0x10>
 8000902:	f44f 5380 	mov.w	r3, #4096	; 0x1000
 8000906:	e7f1      	b.n	80008ec <HAL_DMA_Abort_IT+0x74>
 8000908:	f44f 3380 	mov.w	r3, #65536	; 0x10000
 800090c:	e7ee      	b.n	80008ec <HAL_DMA_Abort_IT+0x74>
 800090e:	f44f 1380 	mov.w	r3, #1048576	; 0x100000
 8000912:	e7eb      	b.n	80008ec <HAL_DMA_Abort_IT+0x74>
 8000914:	f04f 7380 	mov.w	r3, #16777216	; 0x1000000
 8000918:	e7e8      	b.n	80008ec <HAL_DMA_Abort_IT+0x74>
 800091a:	2301      	movs	r3, #1
 800091c:	e7e6      	b.n	80008ec <HAL_DMA_Abort_IT+0x74>
 800091e:	2310      	movs	r3, #16
 8000920:	e7e4      	b.n	80008ec <HAL_DMA_Abort_IT+0x74>
 8000922:	f44f 7380 	mov.w	r3, #256	; 0x100
 8000926:	e7e1      	b.n	80008ec <HAL_DMA_Abort_IT+0x74>
 8000928:	428b      	cmp	r3, r1
 800092a:	d02e      	beq.n	800098a <HAL_DMA_Abort_IT+0x112>
 800092c:	491e      	ldr	r1, [pc, #120]	; (80009a8 <HAL_DMA_Abort_IT+0x130>)
 800092e:	428b      	cmp	r3, r1
 8000930:	d02d      	beq.n	800098e <HAL_DMA_Abort_IT+0x116>
 8000932:	3114      	adds	r1, #20
 8000934:	428b      	cmp	r3, r1
 8000936:	d02c      	beq.n	8000992 <HAL_DMA_Abort_IT+0x11a>
 8000938:	3114      	adds	r1, #20
 800093a:	428b      	cmp	r3, r1
 800093c:	d019      	beq.n	8000972 <HAL_DMA_Abort_IT+0xfa>
 800093e:	3114      	adds	r1, #20
 8000940:	428b      	cmp	r3, r1
 8000942:	d019      	beq.n	8000978 <HAL_DMA_Abort_IT+0x100>
 8000944:	3114      	adds	r1, #20
 8000946:	428b      	cmp	r3, r1
 8000948:	d019      	beq.n	800097e <HAL_DMA_Abort_IT+0x106>
 800094a:	4293      	cmp	r3, r2
 800094c:	d01a      	beq.n	8000984 <HAL_DMA_Abort_IT+0x10c>
 800094e:	4a17      	ldr	r2, [pc, #92]	; (80009ac <HAL_DMA_Abort_IT+0x134>)
 8000950:	4293      	cmp	r3, r2
 8000952:	d01a      	beq.n	800098a <HAL_DMA_Abort_IT+0x112>
 8000954:	3214      	adds	r2, #20
 8000956:	4293      	cmp	r3, r2
 8000958:	d019      	beq.n	800098e <HAL_DMA_Abort_IT+0x116>
 800095a:	3214      	adds	r2, #20
 800095c:	4293      	cmp	r3, r2
 800095e:	d018      	beq.n	8000992 <HAL_DMA_Abort_IT+0x11a>
 8000960:	3214      	adds	r2, #20
 8000962:	4293      	cmp	r3, r2
 8000964:	bf14      	ite	ne
 8000966:	f44f 3380 	movne.w	r3, #65536	; 0x10000
 800096a:	f44f 5380 	moveq.w	r3, #4096	; 0x1000
 800096e:	4a10      	ldr	r2, [pc, #64]	; (80009b0 <HAL_DMA_Abort_IT+0x138>)
 8000970:	e7bd      	b.n	80008ee <HAL_DMA_Abort_IT+0x76>
 8000972:	f44f 5380 	mov.w	r3, #4096	; 0x1000
 8000976:	e7fa      	b.n	800096e <HAL_DMA_Abort_IT+0xf6>
 8000978:	f44f 3380 	mov.w	r3, #65536	; 0x10000
 800097c:	e7f7      	b.n	800096e <HAL_DMA_Abort_IT+0xf6>
 800097e:	f44f 1380 	mov.w	r3, #1048576	; 0x100000
 8000982:	e7f4      	b.n	800096e <HAL_DMA_Abort_IT+0xf6>
 8000984:	f04f 7380 	mov.w	r3, #16777216	; 0x1000000
 8000988:	e7f1      	b.n	800096e <HAL_DMA_Abort_IT+0xf6>
 800098a:	2301      	movs	r3, #1
 800098c:	e7ef      	b.n	800096e <HAL_DMA_Abort_IT+0xf6>
 800098e:	2310      	movs	r3, #16
 8000990:	e7ed      	b.n	800096e <HAL_DMA_Abort_IT+0xf6>
 8000992:	f44f 7380 	mov.w	r3, #256	; 0x100
 8000996:	e7ea      	b.n	800096e <HAL_DMA_Abort_IT+0xf6>
 8000998:	4618      	mov	r0, r3
 800099a:	e775      	b.n	8000888 <HAL_DMA_Abort_IT+0x10>
 800099c:	40020008 	.word	0x40020008
 80009a0:	40020080 	.word	0x40020080
 80009a4:	40020400 	.word	0x40020400
 80009a8:	4002001c 	.word	0x4002001c
 80009ac:	40020408 	.word	0x40020408
 80009b0:	40020000 	.word	0x40020000

080009b4 <HAL_GPIO_Init>:
 80009b4:	e92d 4ff7 	stmdb	sp!, {r0, r1, r2, r4, r5, r6, r7, r8, r9, sl, fp, lr}
 80009b8:	2200      	movs	r2, #0
 80009ba:	4616      	mov	r6, r2
 80009bc:	4f6a      	ldr	r7, [pc, #424]	; (8000b68 <HAL_GPIO_Init+0x1b4>)
 80009be:	4b6b      	ldr	r3, [pc, #428]	; (8000b6c <HAL_GPIO_Init+0x1b8>)
 80009c0:	f8df c1ac 	ldr.w	ip, [pc, #428]	; 8000b70 <HAL_GPIO_Init+0x1bc>
 80009c4:	f8df e1ac 	ldr.w	lr, [pc, #428]	; 8000b74 <HAL_GPIO_Init+0x1c0>
 80009c8:	680c      	ldr	r4, [r1, #0]
 80009ca:	fa34 f506 	lsrs.w	r5, r4, r6
 80009ce:	d102      	bne.n	80009d6 <HAL_GPIO_Init+0x22>
 80009d0:	b003      	add	sp, #12
 80009d2:	e8bd 8ff0 	ldmia.w	sp!, {r4, r5, r6, r7, r8, r9, sl, fp, pc}
 80009d6:	f04f 0801 	mov.w	r8, #1
 80009da:	fa08 f806 	lsl.w	r8, r8, r6
 80009de:	ea04 0508 	and.w	r5, r4, r8
 80009e2:	ea38 0404 	bics.w	r4, r8, r4
 80009e6:	f040 8081 	bne.w	8000aec <HAL_GPIO_Init+0x138>
 80009ea:	684c      	ldr	r4, [r1, #4]
 80009ec:	2c03      	cmp	r4, #3
 80009ee:	d807      	bhi.n	8000a00 <HAL_GPIO_Init+0x4c>
 80009f0:	3c01      	subs	r4, #1
 80009f2:	2c02      	cmp	r4, #2
 80009f4:	f200 808c 	bhi.w	8000b10 <HAL_GPIO_Init+0x15c>
 80009f8:	e8df f004 	tbb	[pc, r4]
 80009fc:	a29d      	.short	0xa29d
 80009fe:	a8          	.byte	0xa8
 80009ff:	00          	.byte	0x00
 8000a00:	2c12      	cmp	r4, #18
 8000a02:	f000 80a0 	beq.w	8000b46 <HAL_GPIO_Init+0x192>
 8000a06:	d873      	bhi.n	8000af0 <HAL_GPIO_Init+0x13c>
 8000a08:	2c11      	cmp	r4, #17
 8000a0a:	f000 8096 	beq.w	8000b3a <HAL_GPIO_Init+0x186>
 8000a0e:	2dff      	cmp	r5, #255	; 0xff
 8000a10:	bf98      	it	ls
 8000a12:	4682      	movls	sl, r0
 8000a14:	f04f 090f 	mov.w	r9, #15
 8000a18:	bf88      	it	hi
 8000a1a:	f100 0a04 	addhi.w	sl, r0, #4
 8000a1e:	ea4f 0486 	mov.w	r4, r6, lsl #2
 8000a22:	f8da 8000 	ldr.w	r8, [sl]
 8000a26:	bf88      	it	hi
 8000a28:	3c20      	subhi	r4, #32
 8000a2a:	fa09 fb04 	lsl.w	fp, r9, r4
 8000a2e:	ea28 080b 	bic.w	r8, r8, fp
 8000a32:	fa02 f404 	lsl.w	r4, r2, r4
 8000a36:	ea48 0404 	orr.w	r4, r8, r4
 8000a3a:	f8ca 4000 	str.w	r4, [sl]
 8000a3e:	f8d1 a004 	ldr.w	sl, [r1, #4]
 8000a42:	f01a 5f80 	tst.w	sl, #268435456	; 0x10000000
 8000a46:	d051      	beq.n	8000aec <HAL_GPIO_Init+0x138>
 8000a48:	69bc      	ldr	r4, [r7, #24]
 8000a4a:	f026 0803 	bic.w	r8, r6, #3
 8000a4e:	f044 0401 	orr.w	r4, r4, #1
 8000a52:	61bc      	str	r4, [r7, #24]
 8000a54:	69bc      	ldr	r4, [r7, #24]
 8000a56:	f108 4880 	add.w	r8, r8, #1073741824	; 0x40000000
 8000a5a:	f004 0401 	and.w	r4, r4, #1
 8000a5e:	9401      	str	r4, [sp, #4]
 8000a60:	f508 3880 	add.w	r8, r8, #65536	; 0x10000
 8000a64:	f006 0b03 	and.w	fp, r6, #3
 8000a68:	9c01      	ldr	r4, [sp, #4]
 8000a6a:	ea4f 0b8b 	mov.w	fp, fp, lsl #2
 8000a6e:	f8d8 4008 	ldr.w	r4, [r8, #8]
 8000a72:	fa09 f90b 	lsl.w	r9, r9, fp
 8000a76:	ea24 0909 	bic.w	r9, r4, r9
 8000a7a:	4c3f      	ldr	r4, [pc, #252]	; (8000b78 <HAL_GPIO_Init+0x1c4>)
 8000a7c:	42a0      	cmp	r0, r4
 8000a7e:	d069      	beq.n	8000b54 <HAL_GPIO_Init+0x1a0>
 8000a80:	f504 6480 	add.w	r4, r4, #1024	; 0x400
 8000a84:	42a0      	cmp	r0, r4
 8000a86:	d067      	beq.n	8000b58 <HAL_GPIO_Init+0x1a4>
 8000a88:	f504 6480 	add.w	r4, r4, #1024	; 0x400
 8000a8c:	42a0      	cmp	r0, r4
 8000a8e:	d065      	beq.n	8000b5c <HAL_GPIO_Init+0x1a8>
 8000a90:	f504 6480 	add.w	r4, r4, #1024	; 0x400
 8000a94:	42a0      	cmp	r0, r4
 8000a96:	d063      	beq.n	8000b60 <HAL_GPIO_Init+0x1ac>
 8000a98:	f504 6480 	add.w	r4, r4, #1024	; 0x400
 8000a9c:	42a0      	cmp	r0, r4
 8000a9e:	d061      	beq.n	8000b64 <HAL_GPIO_Init+0x1b0>
 8000aa0:	4560      	cmp	r0, ip
 8000aa2:	bf0c      	ite	eq
 8000aa4:	2405      	moveq	r4, #5
 8000aa6:	2406      	movne	r4, #6
 8000aa8:	fa04 f40b 	lsl.w	r4, r4, fp
 8000aac:	ea44 0409 	orr.w	r4, r4, r9
 8000ab0:	f8c8 4008 	str.w	r4, [r8, #8]
 8000ab4:	681c      	ldr	r4, [r3, #0]
 8000ab6:	f41a 3f80 	tst.w	sl, #65536	; 0x10000
 8000aba:	bf14      	ite	ne
 8000abc:	432c      	orrne	r4, r5
 8000abe:	43ac      	biceq	r4, r5
 8000ac0:	601c      	str	r4, [r3, #0]
 8000ac2:	685c      	ldr	r4, [r3, #4]
 8000ac4:	f41a 3f00 	tst.w	sl, #131072	; 0x20000
 8000ac8:	bf14      	ite	ne
 8000aca:	432c      	orrne	r4, r5
 8000acc:	43ac      	biceq	r4, r5
 8000ace:	605c      	str	r4, [r3, #4]
 8000ad0:	689c      	ldr	r4, [r3, #8]
 8000ad2:	f41a 1f80 	tst.w	sl, #1048576	; 0x100000
 8000ad6:	bf14      	ite	ne
 8000ad8:	432c      	orrne	r4, r5
 8000ada:	43ac      	biceq	r4, r5
 8000adc:	609c      	str	r4, [r3, #8]
 8000ade:	68dc      	ldr	r4, [r3, #12]
 8000ae0:	f41a 1f00 	tst.w	sl, #2097152	; 0x200000
 8000ae4:	bf14      	ite	ne
 8000ae6:	432c      	orrne	r4, r5
 8000ae8:	43ac      	biceq	r4, r5
 8000aea:	60dc      	str	r4, [r3, #12]
 8000aec:	3601      	adds	r6, #1
 8000aee:	e76b      	b.n	80009c8 <HAL_GPIO_Init+0x14>
 8000af0:	4574      	cmp	r4, lr
 8000af2:	d00d      	beq.n	8000b10 <HAL_GPIO_Init+0x15c>
 8000af4:	d818      	bhi.n	8000b28 <HAL_GPIO_Init+0x174>
 8000af6:	f8df 9084 	ldr.w	r9, [pc, #132]	; 8000b7c <HAL_GPIO_Init+0x1c8>
 8000afa:	454c      	cmp	r4, r9
 8000afc:	d008      	beq.n	8000b10 <HAL_GPIO_Init+0x15c>
 8000afe:	f509 2970 	add.w	r9, r9, #983040	; 0xf0000
 8000b02:	454c      	cmp	r4, r9
 8000b04:	d004      	beq.n	8000b10 <HAL_GPIO_Init+0x15c>
 8000b06:	f5a9 1980 	sub.w	r9, r9, #1048576	; 0x100000
 8000b0a:	454c      	cmp	r4, r9
 8000b0c:	f47f af7f 	bne.w	8000a0e <HAL_GPIO_Init+0x5a>
 8000b10:	688a      	ldr	r2, [r1, #8]
 8000b12:	b1ea      	cbz	r2, 8000b50 <HAL_GPIO_Init+0x19c>
 8000b14:	2a01      	cmp	r2, #1
 8000b16:	bf08      	it	eq
 8000b18:	f8c0 8010 	streq.w	r8, [r0, #16]
 8000b1c:	f04f 0208 	mov.w	r2, #8
 8000b20:	bf18      	it	ne
 8000b22:	f8c0 8014 	strne.w	r8, [r0, #20]
 8000b26:	e772      	b.n	8000a0e <HAL_GPIO_Init+0x5a>
 8000b28:	f8df 9054 	ldr.w	r9, [pc, #84]	; 8000b80 <HAL_GPIO_Init+0x1cc>
 8000b2c:	454c      	cmp	r4, r9
 8000b2e:	d0ef      	beq.n	8000b10 <HAL_GPIO_Init+0x15c>
 8000b30:	f509 3980 	add.w	r9, r9, #65536	; 0x10000
 8000b34:	e7e9      	b.n	8000b0a <HAL_GPIO_Init+0x156>
 8000b36:	68ca      	ldr	r2, [r1, #12]
 8000b38:	e769      	b.n	8000a0e <HAL_GPIO_Init+0x5a>
 8000b3a:	68ca      	ldr	r2, [r1, #12]
 8000b3c:	3204      	adds	r2, #4
 8000b3e:	e766      	b.n	8000a0e <HAL_GPIO_Init+0x5a>
 8000b40:	68ca      	ldr	r2, [r1, #12]
 8000b42:	3208      	adds	r2, #8
 8000b44:	e763      	b.n	8000a0e <HAL_GPIO_Init+0x5a>
 8000b46:	68ca      	ldr	r2, [r1, #12]
 8000b48:	320c      	adds	r2, #12
 8000b4a:	e760      	b.n	8000a0e <HAL_GPIO_Init+0x5a>
 8000b4c:	2200      	movs	r2, #0
 8000b4e:	e75e      	b.n	8000a0e <HAL_GPIO_Init+0x5a>
 8000b50:	2204      	movs	r2, #4
 8000b52:	e75c      	b.n	8000a0e <HAL_GPIO_Init+0x5a>
 8000b54:	2400      	movs	r4, #0
 8000b56:	e7a7      	b.n	8000aa8 <HAL_GPIO_Init+0xf4>
 8000b58:	2401      	movs	r4, #1
 8000b5a:	e7a5      	b.n	8000aa8 <HAL_GPIO_Init+0xf4>
 8000b5c:	2402      	movs	r4, #2
 8000b5e:	e7a3      	b.n	8000aa8 <HAL_GPIO_Init+0xf4>
 8000b60:	2403      	movs	r4, #3
 8000b62:	e7a1      	b.n	8000aa8 <HAL_GPIO_Init+0xf4>
 8000b64:	2404      	movs	r4, #4
 8000b66:	e79f      	b.n	8000aa8 <HAL_GPIO_Init+0xf4>
 8000b68:	40021000 	.word	0x40021000
 8000b6c:	40010400 	.word	0x40010400
 8000b70:	40011c00 	.word	0x40011c00
 8000b74:	10220000 	.word	0x10220000
 8000b78:	40010800 	.word	0x40010800
 8000b7c:	10120000 	.word	0x10120000
 8000b80:	10310000 	.word	0x10310000

08000b84 <HAL_GPIO_WritePin>:
 8000b84:	b10a      	cbz	r2, 8000b8a <HAL_GPIO_WritePin+0x6>
 8000b86:	6101      	str	r1, [r0, #16]
 8000b88:	4770      	bx	lr
 8000b8a:	0409      	lsls	r1, r1, #16
 8000b8c:	e7fb      	b.n	8000b86 <HAL_GPIO_WritePin+0x2>

08000b8e <HAL_GPIO_TogglePin>:
 8000b8e:	68c3      	ldr	r3, [r0, #12]
 8000b90:	ea01 0203 	and.w	r2, r1, r3
 8000b94:	ea21 0103 	bic.w	r1, r1, r3
 8000b98:	ea41 4102 	orr.w	r1, r1, r2, lsl #16
 8000b9c:	6101      	str	r1, [r0, #16]
 8000b9e:	4770      	bx	lr

08000ba0 <HAL_RCC_OscConfig>:
 8000ba0:	e92d 41f3 	stmdb	sp!, {r0, r1, r4, r5, r6, r7, r8, lr}
 8000ba4:	4605      	mov	r5, r0
 8000ba6:	b338      	cbz	r0, 8000bf8 <HAL_RCC_OscConfig+0x58>
 8000ba8:	6803      	ldr	r3, [r0, #0]
 8000baa:	07db      	lsls	r3, r3, #31
 8000bac:	d410      	bmi.n	8000bd0 <HAL_RCC_OscConfig+0x30>
 8000bae:	682b      	ldr	r3, [r5, #0]
 8000bb0:	079f      	lsls	r7, r3, #30
 8000bb2:	d45e      	bmi.n	8000c72 <HAL_RCC_OscConfig+0xd2>
 8000bb4:	682b      	ldr	r3, [r5, #0]
 8000bb6:	0719      	lsls	r1, r3, #28
 8000bb8:	f100 8095 	bmi.w	8000ce6 <HAL_RCC_OscConfig+0x146>
 8000bbc:	682b      	ldr	r3, [r5, #0]
 8000bbe:	075a      	lsls	r2, r3, #29
 8000bc0:	f100 80c1 	bmi.w	8000d46 <HAL_RCC_OscConfig+0x1a6>
 8000bc4:	69e8      	ldr	r0, [r5, #28]
 8000bc6:	2800      	cmp	r0, #0
 8000bc8:	f040 812c 	bne.w	8000e24 <HAL_RCC_OscConfig+0x284>
 8000bcc:	2000      	movs	r0, #0
 8000bce:	e029      	b.n	8000c24 <HAL_RCC_OscConfig+0x84>
 8000bd0:	4c90      	ldr	r4, [pc, #576]	; (8000e14 <HAL_RCC_OscConfig+0x274>)
 8000bd2:	6863      	ldr	r3, [r4, #4]
 8000bd4:	f003 030c 	and.w	r3, r3, #12
 8000bd8:	2b04      	cmp	r3, #4
 8000bda:	d007      	beq.n	8000bec <HAL_RCC_OscConfig+0x4c>
 8000bdc:	6863      	ldr	r3, [r4, #4]
 8000bde:	f003 030c 	and.w	r3, r3, #12
 8000be2:	2b08      	cmp	r3, #8
 8000be4:	d10a      	bne.n	8000bfc <HAL_RCC_OscConfig+0x5c>
 8000be6:	6863      	ldr	r3, [r4, #4]
 8000be8:	03de      	lsls	r6, r3, #15
 8000bea:	d507      	bpl.n	8000bfc <HAL_RCC_OscConfig+0x5c>
 8000bec:	6823      	ldr	r3, [r4, #0]
 8000bee:	039c      	lsls	r4, r3, #14
 8000bf0:	d5dd      	bpl.n	8000bae <HAL_RCC_OscConfig+0xe>
 8000bf2:	686b      	ldr	r3, [r5, #4]
 8000bf4:	2b00      	cmp	r3, #0
 8000bf6:	d1da      	bne.n	8000bae <HAL_RCC_OscConfig+0xe>
 8000bf8:	2001      	movs	r0, #1
 8000bfa:	e013      	b.n	8000c24 <HAL_RCC_OscConfig+0x84>
 8000bfc:	686b      	ldr	r3, [r5, #4]
 8000bfe:	f5b3 3f80 	cmp.w	r3, #65536	; 0x10000
 8000c02:	d112      	bne.n	8000c2a <HAL_RCC_OscConfig+0x8a>
 8000c04:	6823      	ldr	r3, [r4, #0]
 8000c06:	f443 3380 	orr.w	r3, r3, #65536	; 0x10000
 8000c0a:	6023      	str	r3, [r4, #0]
 8000c0c:	f7ff fdac 	bl	8000768 <HAL_GetTick>
 8000c10:	4606      	mov	r6, r0
 8000c12:	6823      	ldr	r3, [r4, #0]
 8000c14:	0398      	lsls	r0, r3, #14
 8000c16:	d4ca      	bmi.n	8000bae <HAL_RCC_OscConfig+0xe>
 8000c18:	f7ff fda6 	bl	8000768 <HAL_GetTick>
 8000c1c:	1b80      	subs	r0, r0, r6
 8000c1e:	2864      	cmp	r0, #100	; 0x64
 8000c20:	d9f7      	bls.n	8000c12 <HAL_RCC_OscConfig+0x72>
 8000c22:	2003      	movs	r0, #3
 8000c24:	b002      	add	sp, #8
 8000c26:	e8bd 81f0 	ldmia.w	sp!, {r4, r5, r6, r7, r8, pc}
 8000c2a:	b99b      	cbnz	r3, 8000c54 <HAL_RCC_OscConfig+0xb4>
 8000c2c:	6823      	ldr	r3, [r4, #0]
 8000c2e:	f423 3380 	bic.w	r3, r3, #65536	; 0x10000
 8000c32:	6023      	str	r3, [r4, #0]
 8000c34:	6823      	ldr	r3, [r4, #0]
 8000c36:	f423 2380 	bic.w	r3, r3, #262144	; 0x40000
 8000c3a:	6023      	str	r3, [r4, #0]
 8000c3c:	f7ff fd94 	bl	8000768 <HAL_GetTick>
 8000c40:	4606      	mov	r6, r0
 8000c42:	6823      	ldr	r3, [r4, #0]
 8000c44:	0399      	lsls	r1, r3, #14
 8000c46:	d5b2      	bpl.n	8000bae <HAL_RCC_OscConfig+0xe>
 8000c48:	f7ff fd8e 	bl	8000768 <HAL_GetTick>
 8000c4c:	1b80      	subs	r0, r0, r6
 8000c4e:	2864      	cmp	r0, #100	; 0x64
 8000c50:	d9f7      	bls.n	8000c42 <HAL_RCC_OscConfig+0xa2>
 8000c52:	e7e6      	b.n	8000c22 <HAL_RCC_OscConfig+0x82>
 8000c54:	f5b3 2fa0 	cmp.w	r3, #327680	; 0x50000
 8000c58:	6823      	ldr	r3, [r4, #0]
 8000c5a:	d103      	bne.n	8000c64 <HAL_RCC_OscConfig+0xc4>
 8000c5c:	f443 2380 	orr.w	r3, r3, #262144	; 0x40000
 8000c60:	6023      	str	r3, [r4, #0]
 8000c62:	e7cf      	b.n	8000c04 <HAL_RCC_OscConfig+0x64>
 8000c64:	f423 3380 	bic.w	r3, r3, #65536	; 0x10000
 8000c68:	6023      	str	r3, [r4, #0]
 8000c6a:	6823      	ldr	r3, [r4, #0]
 8000c6c:	f423 2380 	bic.w	r3, r3, #262144	; 0x40000
 8000c70:	e7cb      	b.n	8000c0a <HAL_RCC_OscConfig+0x6a>
 8000c72:	4c68      	ldr	r4, [pc, #416]	; (8000e14 <HAL_RCC_OscConfig+0x274>)
 8000c74:	6863      	ldr	r3, [r4, #4]
 8000c76:	f013 0f0c 	tst.w	r3, #12
 8000c7a:	d007      	beq.n	8000c8c <HAL_RCC_OscConfig+0xec>
 8000c7c:	6863      	ldr	r3, [r4, #4]
 8000c7e:	f003 030c 	and.w	r3, r3, #12
 8000c82:	2b08      	cmp	r3, #8
 8000c84:	d110      	bne.n	8000ca8 <HAL_RCC_OscConfig+0x108>
 8000c86:	6863      	ldr	r3, [r4, #4]
 8000c88:	03da      	lsls	r2, r3, #15
 8000c8a:	d40d      	bmi.n	8000ca8 <HAL_RCC_OscConfig+0x108>
 8000c8c:	6823      	ldr	r3, [r4, #0]
 8000c8e:	079b      	lsls	r3, r3, #30
 8000c90:	d502      	bpl.n	8000c98 <HAL_RCC_OscConfig+0xf8>
 8000c92:	692b      	ldr	r3, [r5, #16]
 8000c94:	2b01      	cmp	r3, #1
 8000c96:	d1af      	bne.n	8000bf8 <HAL_RCC_OscConfig+0x58>
 8000c98:	6823      	ldr	r3, [r4, #0]
 8000c9a:	696a      	ldr	r2, [r5, #20]
 8000c9c:	f023 03f8 	bic.w	r3, r3, #248	; 0xf8
 8000ca0:	ea43 03c2 	orr.w	r3, r3, r2, lsl #3
 8000ca4:	6023      	str	r3, [r4, #0]
 8000ca6:	e785      	b.n	8000bb4 <HAL_RCC_OscConfig+0x14>
 8000ca8:	692a      	ldr	r2, [r5, #16]
 8000caa:	4b5b      	ldr	r3, [pc, #364]	; (8000e18 <HAL_RCC_OscConfig+0x278>)
 8000cac:	b16a      	cbz	r2, 8000cca <HAL_RCC_OscConfig+0x12a>
 8000cae:	2201      	movs	r2, #1
 8000cb0:	601a      	str	r2, [r3, #0]
 8000cb2:	f7ff fd59 	bl	8000768 <HAL_GetTick>
 8000cb6:	4606      	mov	r6, r0
 8000cb8:	6823      	ldr	r3, [r4, #0]
 8000cba:	079f      	lsls	r7, r3, #30
 8000cbc:	d4ec      	bmi.n	8000c98 <HAL_RCC_OscConfig+0xf8>
 8000cbe:	f7ff fd53 	bl	8000768 <HAL_GetTick>
 8000cc2:	1b80      	subs	r0, r0, r6
 8000cc4:	2802      	cmp	r0, #2
 8000cc6:	d9f7      	bls.n	8000cb8 <HAL_RCC_OscConfig+0x118>
 8000cc8:	e7ab      	b.n	8000c22 <HAL_RCC_OscConfig+0x82>
 8000cca:	601a      	str	r2, [r3, #0]
 8000ccc:	f7ff fd4c 	bl	8000768 <HAL_GetTick>
 8000cd0:	4606      	mov	r6, r0
 8000cd2:	6823      	ldr	r3, [r4, #0]
 8000cd4:	0798      	lsls	r0, r3, #30
 8000cd6:	f57f af6d 	bpl.w	8000bb4 <HAL_RCC_OscConfig+0x14>
 8000cda:	f7ff fd45 	bl	8000768 <HAL_GetTick>
 8000cde:	1b80      	subs	r0, r0, r6
 8000ce0:	2802      	cmp	r0, #2
 8000ce2:	d9f6      	bls.n	8000cd2 <HAL_RCC_OscConfig+0x132>
 8000ce4:	e79d      	b.n	8000c22 <HAL_RCC_OscConfig+0x82>
 8000ce6:	69aa      	ldr	r2, [r5, #24]
 8000ce8:	4e4a      	ldr	r6, [pc, #296]	; (8000e14 <HAL_RCC_OscConfig+0x274>)
 8000cea:	4b4b      	ldr	r3, [pc, #300]	; (8000e18 <HAL_RCC_OscConfig+0x278>)
 8000cec:	b1e2      	cbz	r2, 8000d28 <HAL_RCC_OscConfig+0x188>
 8000cee:	2201      	movs	r2, #1
 8000cf0:	f8c3 2480 	str.w	r2, [r3, #1152]	; 0x480
 8000cf4:	f7ff fd38 	bl	8000768 <HAL_GetTick>
 8000cf8:	4604      	mov	r4, r0
 8000cfa:	6a73      	ldr	r3, [r6, #36]	; 0x24
 8000cfc:	079b      	lsls	r3, r3, #30
 8000cfe:	d50d      	bpl.n	8000d1c <HAL_RCC_OscConfig+0x17c>
 8000d00:	f44f 52fa 	mov.w	r2, #8000	; 0x1f40
 8000d04:	4b45      	ldr	r3, [pc, #276]	; (8000e1c <HAL_RCC_OscConfig+0x27c>)
 8000d06:	681b      	ldr	r3, [r3, #0]
 8000d08:	fbb3 f3f2 	udiv	r3, r3, r2
 8000d0c:	9301      	str	r3, [sp, #4]
 8000d0e:	bf00      	nop
 8000d10:	9b01      	ldr	r3, [sp, #4]
 8000d12:	1e5a      	subs	r2, r3, #1
 8000d14:	9201      	str	r2, [sp, #4]
 8000d16:	2b00      	cmp	r3, #0
 8000d18:	d1f9      	bne.n	8000d0e <HAL_RCC_OscConfig+0x16e>
 8000d1a:	e74f      	b.n	8000bbc <HAL_RCC_OscConfig+0x1c>
 8000d1c:	f7ff fd24 	bl	8000768 <HAL_GetTick>
 8000d20:	1b00      	subs	r0, r0, r4
 8000d22:	2802      	cmp	r0, #2
 8000d24:	d9e9      	bls.n	8000cfa <HAL_RCC_OscConfig+0x15a>
 8000d26:	e77c      	b.n	8000c22 <HAL_RCC_OscConfig+0x82>
 8000d28:	f8c3 2480 	str.w	r2, [r3, #1152]	; 0x480
 8000d2c:	f7ff fd1c 	bl	8000768 <HAL_GetTick>
 8000d30:	4604      	mov	r4, r0
 8000d32:	6a73      	ldr	r3, [r6, #36]	; 0x24
 8000d34:	079f      	lsls	r7, r3, #30
 8000d36:	f57f af41 	bpl.w	8000bbc <HAL_RCC_OscConfig+0x1c>
 8000d3a:	f7ff fd15 	bl	8000768 <HAL_GetTick>
 8000d3e:	1b00      	subs	r0, r0, r4
 8000d40:	2802      	cmp	r0, #2
 8000d42:	d9f6      	bls.n	8000d32 <HAL_RCC_OscConfig+0x192>
 8000d44:	e76d      	b.n	8000c22 <HAL_RCC_OscConfig+0x82>
 8000d46:	4c33      	ldr	r4, [pc, #204]	; (8000e14 <HAL_RCC_OscConfig+0x274>)
 8000d48:	69e3      	ldr	r3, [r4, #28]
 8000d4a:	00d8      	lsls	r0, r3, #3
 8000d4c:	d424      	bmi.n	8000d98 <HAL_RCC_OscConfig+0x1f8>
 8000d4e:	2701      	movs	r7, #1
 8000d50:	69e3      	ldr	r3, [r4, #28]
 8000d52:	f043 5380 	orr.w	r3, r3, #268435456	; 0x10000000
 8000d56:	61e3      	str	r3, [r4, #28]
 8000d58:	69e3      	ldr	r3, [r4, #28]
 8000d5a:	f003 5380 	and.w	r3, r3, #268435456	; 0x10000000
 8000d5e:	9300      	str	r3, [sp, #0]
 8000d60:	9b00      	ldr	r3, [sp, #0]
 8000d62:	4e2f      	ldr	r6, [pc, #188]	; (8000e20 <HAL_RCC_OscConfig+0x280>)
 8000d64:	6833      	ldr	r3, [r6, #0]
 8000d66:	05d9      	lsls	r1, r3, #23
 8000d68:	d518      	bpl.n	8000d9c <HAL_RCC_OscConfig+0x1fc>
 8000d6a:	68eb      	ldr	r3, [r5, #12]
 8000d6c:	2b01      	cmp	r3, #1
 8000d6e:	d126      	bne.n	8000dbe <HAL_RCC_OscConfig+0x21e>
 8000d70:	6a23      	ldr	r3, [r4, #32]
 8000d72:	f043 0301 	orr.w	r3, r3, #1
 8000d76:	6223      	str	r3, [r4, #32]
 8000d78:	f7ff fcf6 	bl	8000768 <HAL_GetTick>
 8000d7c:	f241 3888 	movw	r8, #5000	; 0x1388
 8000d80:	4606      	mov	r6, r0
 8000d82:	6a23      	ldr	r3, [r4, #32]
 8000d84:	079b      	lsls	r3, r3, #30
 8000d86:	d53f      	bpl.n	8000e08 <HAL_RCC_OscConfig+0x268>
 8000d88:	2f00      	cmp	r7, #0
 8000d8a:	f43f af1b 	beq.w	8000bc4 <HAL_RCC_OscConfig+0x24>
 8000d8e:	69e3      	ldr	r3, [r4, #28]
 8000d90:	f023 5380 	bic.w	r3, r3, #268435456	; 0x10000000
 8000d94:	61e3      	str	r3, [r4, #28]
 8000d96:	e715      	b.n	8000bc4 <HAL_RCC_OscConfig+0x24>
 8000d98:	2700      	movs	r7, #0
 8000d9a:	e7e2      	b.n	8000d62 <HAL_RCC_OscConfig+0x1c2>
 8000d9c:	6833      	ldr	r3, [r6, #0]
 8000d9e:	f443 7380 	orr.w	r3, r3, #256	; 0x100
 8000da2:	6033      	str	r3, [r6, #0]
 8000da4:	f7ff fce0 	bl	8000768 <HAL_GetTick>
 8000da8:	4680      	mov	r8, r0
 8000daa:	6833      	ldr	r3, [r6, #0]
 8000dac:	05da      	lsls	r2, r3, #23
 8000dae:	d4dc      	bmi.n	8000d6a <HAL_RCC_OscConfig+0x1ca>
 8000db0:	f7ff fcda 	bl	8000768 <HAL_GetTick>
 8000db4:	eba0 0008 	sub.w	r0, r0, r8
 8000db8:	2864      	cmp	r0, #100	; 0x64
 8000dba:	d9f6      	bls.n	8000daa <HAL_RCC_OscConfig+0x20a>
 8000dbc:	e731      	b.n	8000c22 <HAL_RCC_OscConfig+0x82>
 8000dbe:	b9ab      	cbnz	r3, 8000dec <HAL_RCC_OscConfig+0x24c>
 8000dc0:	6a23      	ldr	r3, [r4, #32]
 8000dc2:	f241 3888 	movw	r8, #5000	; 0x1388
 8000dc6:	f023 0301 	bic.w	r3, r3, #1
 8000dca:	6223      	str	r3, [r4, #32]
 8000dcc:	6a23      	ldr	r3, [r4, #32]
 8000dce:	f023 0304 	bic.w	r3, r3, #4
 8000dd2:	6223      	str	r3, [r4, #32]
 8000dd4:	f7ff fcc8 	bl	8000768 <HAL_GetTick>
 8000dd8:	4606      	mov	r6, r0
 8000dda:	6a23      	ldr	r3, [r4, #32]
 8000ddc:	0798      	lsls	r0, r3, #30
 8000dde:	d5d3      	bpl.n	8000d88 <HAL_RCC_OscConfig+0x1e8>
 8000de0:	f7ff fcc2 	bl	8000768 <HAL_GetTick>
 8000de4:	1b80      	subs	r0, r0, r6
 8000de6:	4540      	cmp	r0, r8
 8000de8:	d9f7      	bls.n	8000dda <HAL_RCC_OscConfig+0x23a>
 8000dea:	e71a      	b.n	8000c22 <HAL_RCC_OscConfig+0x82>
 8000dec:	2b05      	cmp	r3, #5
 8000dee:	6a23      	ldr	r3, [r4, #32]
 8000df0:	d103      	bne.n	8000dfa <HAL_RCC_OscConfig+0x25a>
 8000df2:	f043 0304 	orr.w	r3, r3, #4
 8000df6:	6223      	str	r3, [r4, #32]
 8000df8:	e7ba      	b.n	8000d70 <HAL_RCC_OscConfig+0x1d0>
 8000dfa:	f023 0301 	bic.w	r3, r3, #1
 8000dfe:	6223      	str	r3, [r4, #32]
 8000e00:	6a23      	ldr	r3, [r4, #32]
 8000e02:	f023 0304 	bic.w	r3, r3, #4
 8000e06:	e7b6      	b.n	8000d76 <HAL_RCC_OscConfig+0x1d6>
 8000e08:	f7ff fcae 	bl	8000768 <HAL_GetTick>
 8000e0c:	1b80      	subs	r0, r0, r6
 8000e0e:	4540      	cmp	r0, r8
 8000e10:	d9b7      	bls.n	8000d82 <HAL_RCC_OscConfig+0x1e2>
 8000e12:	e706      	b.n	8000c22 <HAL_RCC_OscConfig+0x82>
 8000e14:	40021000 	.word	0x40021000
 8000e18:	42420000 	.word	0x42420000
 8000e1c:	20000000 	.word	0x20000000
 8000e20:	40007000 	.word	0x40007000
 8000e24:	4c2a      	ldr	r4, [pc, #168]	; (8000ed0 <HAL_RCC_OscConfig+0x330>)
 8000e26:	6863      	ldr	r3, [r4, #4]
 8000e28:	f003 030c 	and.w	r3, r3, #12
 8000e2c:	2b08      	cmp	r3, #8
 8000e2e:	d03e      	beq.n	8000eae <HAL_RCC_OscConfig+0x30e>
 8000e30:	2200      	movs	r2, #0
 8000e32:	4b28      	ldr	r3, [pc, #160]	; (8000ed4 <HAL_RCC_OscConfig+0x334>)
 8000e34:	2802      	cmp	r0, #2
 8000e36:	661a      	str	r2, [r3, #96]	; 0x60
 8000e38:	d12c      	bne.n	8000e94 <HAL_RCC_OscConfig+0x2f4>
 8000e3a:	f7ff fc95 	bl	8000768 <HAL_GetTick>
 8000e3e:	4606      	mov	r6, r0
 8000e40:	6823      	ldr	r3, [r4, #0]
 8000e42:	0199      	lsls	r1, r3, #6
 8000e44:	d420      	bmi.n	8000e88 <HAL_RCC_OscConfig+0x2e8>
 8000e46:	6a2b      	ldr	r3, [r5, #32]
 8000e48:	f5b3 3f80 	cmp.w	r3, #65536	; 0x10000
 8000e4c:	d105      	bne.n	8000e5a <HAL_RCC_OscConfig+0x2ba>
 8000e4e:	6862      	ldr	r2, [r4, #4]
 8000e50:	68a9      	ldr	r1, [r5, #8]
 8000e52:	f422 3200 	bic.w	r2, r2, #131072	; 0x20000
 8000e56:	430a      	orrs	r2, r1
 8000e58:	6062      	str	r2, [r4, #4]
 8000e5a:	6a69      	ldr	r1, [r5, #36]	; 0x24
 8000e5c:	6862      	ldr	r2, [r4, #4]
 8000e5e:	430b      	orrs	r3, r1
 8000e60:	f422 1274 	bic.w	r2, r2, #3997696	; 0x3d0000
 8000e64:	4313      	orrs	r3, r2
 8000e66:	2201      	movs	r2, #1
 8000e68:	6063      	str	r3, [r4, #4]
 8000e6a:	4b1a      	ldr	r3, [pc, #104]	; (8000ed4 <HAL_RCC_OscConfig+0x334>)
 8000e6c:	661a      	str	r2, [r3, #96]	; 0x60
 8000e6e:	f7ff fc7b 	bl	8000768 <HAL_GetTick>
 8000e72:	4605      	mov	r5, r0
 8000e74:	6823      	ldr	r3, [r4, #0]
 8000e76:	019a      	lsls	r2, r3, #6
 8000e78:	f53f aea8 	bmi.w	8000bcc <HAL_RCC_OscConfig+0x2c>
 8000e7c:	f7ff fc74 	bl	8000768 <HAL_GetTick>
 8000e80:	1b40      	subs	r0, r0, r5
 8000e82:	2802      	cmp	r0, #2
 8000e84:	d9f6      	bls.n	8000e74 <HAL_RCC_OscConfig+0x2d4>
 8000e86:	e6cc      	b.n	8000c22 <HAL_RCC_OscConfig+0x82>
 8000e88:	f7ff fc6e 	bl	8000768 <HAL_GetTick>
 8000e8c:	1b80      	subs	r0, r0, r6
 8000e8e:	2802      	cmp	r0, #2
 8000e90:	d9d6      	bls.n	8000e40 <HAL_RCC_OscConfig+0x2a0>
 8000e92:	e6c6      	b.n	8000c22 <HAL_RCC_OscConfig+0x82>
 8000e94:	f7ff fc68 	bl	8000768 <HAL_GetTick>
 8000e98:	4605      	mov	r5, r0
 8000e9a:	6823      	ldr	r3, [r4, #0]
 8000e9c:	019b      	lsls	r3, r3, #6
 8000e9e:	f57f ae95 	bpl.w	8000bcc <HAL_RCC_OscConfig+0x2c>
 8000ea2:	f7ff fc61 	bl	8000768 <HAL_GetTick>
 8000ea6:	1b40      	subs	r0, r0, r5
 8000ea8:	2802      	cmp	r0, #2
 8000eaa:	d9f6      	bls.n	8000e9a <HAL_RCC_OscConfig+0x2fa>
 8000eac:	e6b9      	b.n	8000c22 <HAL_RCC_OscConfig+0x82>
 8000eae:	2801      	cmp	r0, #1
 8000eb0:	f43f aeb8 	beq.w	8000c24 <HAL_RCC_OscConfig+0x84>
 8000eb4:	6863      	ldr	r3, [r4, #4]
 8000eb6:	6a2a      	ldr	r2, [r5, #32]
 8000eb8:	f403 3180 	and.w	r1, r3, #65536	; 0x10000
 8000ebc:	4291      	cmp	r1, r2
 8000ebe:	f47f ae9b 	bne.w	8000bf8 <HAL_RCC_OscConfig+0x58>
 8000ec2:	6a6a      	ldr	r2, [r5, #36]	; 0x24
 8000ec4:	f403 1370 	and.w	r3, r3, #3932160	; 0x3c0000
 8000ec8:	4293      	cmp	r3, r2
 8000eca:	f43f ae7f 	beq.w	8000bcc <HAL_RCC_OscConfig+0x2c>
 8000ece:	e693      	b.n	8000bf8 <HAL_RCC_OscConfig+0x58>
 8000ed0:	40021000 	.word	0x40021000
 8000ed4:	42420000 	.word	0x42420000

08000ed8 <HAL_RCC_GetSysClockFreq>:
 8000ed8:	b530      	push	{r4, r5, lr}
 8000eda:	4b18      	ldr	r3, [pc, #96]	; (8000f3c <HAL_RCC_GetSysClockFreq+0x64>)
 8000edc:	b087      	sub	sp, #28
 8000ede:	ac02      	add	r4, sp, #8
 8000ee0:	f103 0510 	add.w	r5, r3, #16
 8000ee4:	4622      	mov	r2, r4
 8000ee6:	6818      	ldr	r0, [r3, #0]
 8000ee8:	6859      	ldr	r1, [r3, #4]
 8000eea:	3308      	adds	r3, #8
 8000eec:	c203      	stmia	r2!, {r0, r1}
 8000eee:	42ab      	cmp	r3, r5
 8000ef0:	4614      	mov	r4, r2
 8000ef2:	d1f7      	bne.n	8000ee4 <HAL_RCC_GetSysClockFreq+0xc>
 8000ef4:	f240 2301 	movw	r3, #513	; 0x201
 8000ef8:	4911      	ldr	r1, [pc, #68]	; (8000f40 <HAL_RCC_GetSysClockFreq+0x68>)
 8000efa:	f8ad 3004 	strh.w	r3, [sp, #4]
 8000efe:	684b      	ldr	r3, [r1, #4]
 8000f00:	f003 020c 	and.w	r2, r3, #12
 8000f04:	2a08      	cmp	r2, #8
 8000f06:	d117      	bne.n	8000f38 <HAL_RCC_GetSysClockFreq+0x60>
 8000f08:	f3c3 4283 	ubfx	r2, r3, #18, #4
 8000f0c:	3218      	adds	r2, #24
 8000f0e:	446a      	add	r2, sp
 8000f10:	03db      	lsls	r3, r3, #15
 8000f12:	f812 0c10 	ldrb.w	r0, [r2, #-16]
 8000f16:	d50c      	bpl.n	8000f32 <HAL_RCC_GetSysClockFreq+0x5a>
 8000f18:	684b      	ldr	r3, [r1, #4]
 8000f1a:	4a0a      	ldr	r2, [pc, #40]	; (8000f44 <HAL_RCC_GetSysClockFreq+0x6c>)
 8000f1c:	f3c3 4340 	ubfx	r3, r3, #17, #1
 8000f20:	4350      	muls	r0, r2
 8000f22:	3318      	adds	r3, #24
 8000f24:	446b      	add	r3, sp
 8000f26:	f813 3c14 	ldrb.w	r3, [r3, #-20]
 8000f2a:	fbb0 f0f3 	udiv	r0, r0, r3
 8000f2e:	b007      	add	sp, #28
 8000f30:	bd30      	pop	{r4, r5, pc}
 8000f32:	4b05      	ldr	r3, [pc, #20]	; (8000f48 <HAL_RCC_GetSysClockFreq+0x70>)
 8000f34:	4358      	muls	r0, r3
 8000f36:	e7fa      	b.n	8000f2e <HAL_RCC_GetSysClockFreq+0x56>
 8000f38:	4802      	ldr	r0, [pc, #8]	; (8000f44 <HAL_RCC_GetSysClockFreq+0x6c>)
 8000f3a:	e7f8      	b.n	8000f2e <HAL_RCC_GetSysClockFreq+0x56>
 8000f3c:	080031c6 	.word	0x080031c6
 8000f40:	40021000 	.word	0x40021000
 8000f44:	007a1200 	.word	0x007a1200
 8000f48:	003d0900 	.word	0x003d0900

08000f4c <HAL_RCC_ClockConfig>:
 8000f4c:	e92d 41f0 	stmdb	sp!, {r4, r5, r6, r7, r8, lr}
 8000f50:	460d      	mov	r5, r1
 8000f52:	4604      	mov	r4, r0
 8000f54:	b910      	cbnz	r0, 8000f5c <HAL_RCC_ClockConfig+0x10>
 8000f56:	2001      	movs	r0, #1
 8000f58:	e8bd 81f0 	ldmia.w	sp!, {r4, r5, r6, r7, r8, pc}
 8000f5c:	4a44      	ldr	r2, [pc, #272]	; (8001070 <HAL_RCC_ClockConfig+0x124>)
 8000f5e:	6813      	ldr	r3, [r2, #0]
 8000f60:	f003 0307 	and.w	r3, r3, #7
 8000f64:	428b      	cmp	r3, r1
 8000f66:	d328      	bcc.n	8000fba <HAL_RCC_ClockConfig+0x6e>
 8000f68:	6821      	ldr	r1, [r4, #0]
 8000f6a:	078e      	lsls	r6, r1, #30
 8000f6c:	d430      	bmi.n	8000fd0 <HAL_RCC_ClockConfig+0x84>
 8000f6e:	07ca      	lsls	r2, r1, #31
 8000f70:	d443      	bmi.n	8000ffa <HAL_RCC_ClockConfig+0xae>
 8000f72:	4a3f      	ldr	r2, [pc, #252]	; (8001070 <HAL_RCC_ClockConfig+0x124>)
 8000f74:	6813      	ldr	r3, [r2, #0]
 8000f76:	f003 0307 	and.w	r3, r3, #7
 8000f7a:	42ab      	cmp	r3, r5
 8000f7c:	d865      	bhi.n	800104a <HAL_RCC_ClockConfig+0xfe>
 8000f7e:	6822      	ldr	r2, [r4, #0]
 8000f80:	4d3c      	ldr	r5, [pc, #240]	; (8001074 <HAL_RCC_ClockConfig+0x128>)
 8000f82:	f012 0f04 	tst.w	r2, #4
 8000f86:	d16c      	bne.n	8001062 <HAL_RCC_ClockConfig+0x116>
 8000f88:	0713      	lsls	r3, r2, #28
 8000f8a:	d506      	bpl.n	8000f9a <HAL_RCC_ClockConfig+0x4e>
 8000f8c:	686b      	ldr	r3, [r5, #4]
 8000f8e:	6922      	ldr	r2, [r4, #16]
 8000f90:	f423 5360 	bic.w	r3, r3, #14336	; 0x3800
 8000f94:	ea43 03c2 	orr.w	r3, r3, r2, lsl #3
 8000f98:	606b      	str	r3, [r5, #4]
 8000f9a:	f7ff ff9d 	bl	8000ed8 <HAL_RCC_GetSysClockFreq>
 8000f9e:	686b      	ldr	r3, [r5, #4]
 8000fa0:	4a35      	ldr	r2, [pc, #212]	; (8001078 <HAL_RCC_ClockConfig+0x12c>)
 8000fa2:	f3c3 1303 	ubfx	r3, r3, #4, #4
 8000fa6:	5cd3      	ldrb	r3, [r2, r3]
 8000fa8:	40d8      	lsrs	r0, r3
 8000faa:	4b34      	ldr	r3, [pc, #208]	; (800107c <HAL_RCC_ClockConfig+0x130>)
 8000fac:	6018      	str	r0, [r3, #0]
 8000fae:	4b34      	ldr	r3, [pc, #208]	; (8001080 <HAL_RCC_ClockConfig+0x134>)
 8000fb0:	6818      	ldr	r0, [r3, #0]
 8000fb2:	f7ff fb33 	bl	800061c <HAL_InitTick>
 8000fb6:	2000      	movs	r0, #0
 8000fb8:	e7ce      	b.n	8000f58 <HAL_RCC_ClockConfig+0xc>
 8000fba:	6813      	ldr	r3, [r2, #0]
 8000fbc:	f023 0307 	bic.w	r3, r3, #7
 8000fc0:	430b      	orrs	r3, r1
 8000fc2:	6013      	str	r3, [r2, #0]
 8000fc4:	6813      	ldr	r3, [r2, #0]
 8000fc6:	f003 0307 	and.w	r3, r3, #7
 8000fca:	428b      	cmp	r3, r1
 8000fcc:	d1c3      	bne.n	8000f56 <HAL_RCC_ClockConfig+0xa>
 8000fce:	e7cb      	b.n	8000f68 <HAL_RCC_ClockConfig+0x1c>
 8000fd0:	4b28      	ldr	r3, [pc, #160]	; (8001074 <HAL_RCC_ClockConfig+0x128>)
 8000fd2:	f011 0f04 	tst.w	r1, #4
 8000fd6:	bf1e      	ittt	ne
 8000fd8:	685a      	ldrne	r2, [r3, #4]
 8000fda:	f442 62e0 	orrne.w	r2, r2, #1792	; 0x700
 8000fde:	605a      	strne	r2, [r3, #4]
 8000fe0:	0708      	lsls	r0, r1, #28
 8000fe2:	bf42      	ittt	mi
 8000fe4:	685a      	ldrmi	r2, [r3, #4]
 8000fe6:	f442 5260 	orrmi.w	r2, r2, #14336	; 0x3800
 8000fea:	605a      	strmi	r2, [r3, #4]
 8000fec:	685a      	ldr	r2, [r3, #4]
 8000fee:	68a0      	ldr	r0, [r4, #8]
 8000ff0:	f022 02f0 	bic.w	r2, r2, #240	; 0xf0
 8000ff4:	4302      	orrs	r2, r0
 8000ff6:	605a      	str	r2, [r3, #4]
 8000ff8:	e7b9      	b.n	8000f6e <HAL_RCC_ClockConfig+0x22>
 8000ffa:	6862      	ldr	r2, [r4, #4]
 8000ffc:	4e1d      	ldr	r6, [pc, #116]	; (8001074 <HAL_RCC_ClockConfig+0x128>)
 8000ffe:	2a01      	cmp	r2, #1
 8001000:	6833      	ldr	r3, [r6, #0]
 8001002:	d11a      	bne.n	800103a <HAL_RCC_ClockConfig+0xee>
 8001004:	f413 3f00 	tst.w	r3, #131072	; 0x20000
 8001008:	d0a5      	beq.n	8000f56 <HAL_RCC_ClockConfig+0xa>
 800100a:	6873      	ldr	r3, [r6, #4]
 800100c:	f241 3888 	movw	r8, #5000	; 0x1388
 8001010:	f023 0303 	bic.w	r3, r3, #3
 8001014:	4313      	orrs	r3, r2
 8001016:	6073      	str	r3, [r6, #4]
 8001018:	f7ff fba6 	bl	8000768 <HAL_GetTick>
 800101c:	4607      	mov	r7, r0
 800101e:	6873      	ldr	r3, [r6, #4]
 8001020:	6862      	ldr	r2, [r4, #4]
 8001022:	f003 030c 	and.w	r3, r3, #12
 8001026:	ebb3 0f82 	cmp.w	r3, r2, lsl #2
 800102a:	d0a2      	beq.n	8000f72 <HAL_RCC_ClockConfig+0x26>
 800102c:	f7ff fb9c 	bl	8000768 <HAL_GetTick>
 8001030:	1bc0      	subs	r0, r0, r7
 8001032:	4540      	cmp	r0, r8
 8001034:	d9f3      	bls.n	800101e <HAL_RCC_ClockConfig+0xd2>
 8001036:	2003      	movs	r0, #3
 8001038:	e78e      	b.n	8000f58 <HAL_RCC_ClockConfig+0xc>
 800103a:	2a02      	cmp	r2, #2
 800103c:	d102      	bne.n	8001044 <HAL_RCC_ClockConfig+0xf8>
 800103e:	f013 7f00 	tst.w	r3, #33554432	; 0x2000000
 8001042:	e7e1      	b.n	8001008 <HAL_RCC_ClockConfig+0xbc>
 8001044:	f013 0f02 	tst.w	r3, #2
 8001048:	e7de      	b.n	8001008 <HAL_RCC_ClockConfig+0xbc>
 800104a:	6813      	ldr	r3, [r2, #0]
 800104c:	f023 0307 	bic.w	r3, r3, #7
 8001050:	432b      	orrs	r3, r5
 8001052:	6013      	str	r3, [r2, #0]
 8001054:	6813      	ldr	r3, [r2, #0]
 8001056:	f003 0307 	and.w	r3, r3, #7
 800105a:	42ab      	cmp	r3, r5
 800105c:	f47f af7b 	bne.w	8000f56 <HAL_RCC_ClockConfig+0xa>
 8001060:	e78d      	b.n	8000f7e <HAL_RCC_ClockConfig+0x32>
 8001062:	686b      	ldr	r3, [r5, #4]
 8001064:	68e1      	ldr	r1, [r4, #12]
 8001066:	f423 63e0 	bic.w	r3, r3, #1792	; 0x700
 800106a:	430b      	orrs	r3, r1
 800106c:	606b      	str	r3, [r5, #4]
 800106e:	e78b      	b.n	8000f88 <HAL_RCC_ClockConfig+0x3c>
 8001070:	40022000 	.word	0x40022000
 8001074:	40021000 	.word	0x40021000
 8001078:	080031ae 	.word	0x080031ae
 800107c:	20000000 	.word	0x20000000
 8001080:	20000008 	.word	0x20000008

08001084 <HAL_RCC_GetPCLK1Freq>:
 8001084:	4b04      	ldr	r3, [pc, #16]	; (8001098 <HAL_RCC_GetPCLK1Freq+0x14>)
 8001086:	4a05      	ldr	r2, [pc, #20]	; (800109c <HAL_RCC_GetPCLK1Freq+0x18>)
 8001088:	685b      	ldr	r3, [r3, #4]
 800108a:	f3c3 2302 	ubfx	r3, r3, #8, #3
 800108e:	5cd3      	ldrb	r3, [r2, r3]
 8001090:	4a03      	ldr	r2, [pc, #12]	; (80010a0 <HAL_RCC_GetPCLK1Freq+0x1c>)
 8001092:	6810      	ldr	r0, [r2, #0]
 8001094:	40d8      	lsrs	r0, r3
 8001096:	4770      	bx	lr
 8001098:	40021000 	.word	0x40021000
 800109c:	080031be 	.word	0x080031be
 80010a0:	20000000 	.word	0x20000000

080010a4 <HAL_RCC_GetPCLK2Freq>:
 80010a4:	4b04      	ldr	r3, [pc, #16]	; (80010b8 <HAL_RCC_GetPCLK2Freq+0x14>)
 80010a6:	4a05      	ldr	r2, [pc, #20]	; (80010bc <HAL_RCC_GetPCLK2Freq+0x18>)
 80010a8:	685b      	ldr	r3, [r3, #4]
 80010aa:	f3c3 23c2 	ubfx	r3, r3, #11, #3
 80010ae:	5cd3      	ldrb	r3, [r2, r3]
 80010b0:	4a03      	ldr	r2, [pc, #12]	; (80010c0 <HAL_RCC_GetPCLK2Freq+0x1c>)
 80010b2:	6810      	ldr	r0, [r2, #0]
 80010b4:	40d8      	lsrs	r0, r3
 80010b6:	4770      	bx	lr
 80010b8:	40021000 	.word	0x40021000
 80010bc:	080031be 	.word	0x080031be
 80010c0:	20000000 	.word	0x20000000

080010c4 <HAL_RCC_GetClockConfig>:
 80010c4:	230f      	movs	r3, #15
 80010c6:	6003      	str	r3, [r0, #0]
 80010c8:	4b0b      	ldr	r3, [pc, #44]	; (80010f8 <HAL_RCC_GetClockConfig+0x34>)
 80010ca:	685a      	ldr	r2, [r3, #4]
 80010cc:	f002 0203 	and.w	r2, r2, #3
 80010d0:	6042      	str	r2, [r0, #4]
 80010d2:	685a      	ldr	r2, [r3, #4]
 80010d4:	f002 02f0 	and.w	r2, r2, #240	; 0xf0
 80010d8:	6082      	str	r2, [r0, #8]
 80010da:	685a      	ldr	r2, [r3, #4]
 80010dc:	f402 62e0 	and.w	r2, r2, #1792	; 0x700
 80010e0:	60c2      	str	r2, [r0, #12]
 80010e2:	685b      	ldr	r3, [r3, #4]
 80010e4:	08db      	lsrs	r3, r3, #3
 80010e6:	f403 63e0 	and.w	r3, r3, #1792	; 0x700
 80010ea:	6103      	str	r3, [r0, #16]
 80010ec:	4b03      	ldr	r3, [pc, #12]	; (80010fc <HAL_RCC_GetClockConfig+0x38>)
 80010ee:	681b      	ldr	r3, [r3, #0]
 80010f0:	f003 0307 	and.w	r3, r3, #7
 80010f4:	600b      	str	r3, [r1, #0]
 80010f6:	4770      	bx	lr
 80010f8:	40021000 	.word	0x40021000
 80010fc:	40022000 	.word	0x40022000

08001100 <HAL_TIM_Base_MspInit>:
 8001100:	4770      	bx	lr
	...

08001104 <HAL_TIM_Base_Start_IT>:
 8001104:	f890 303d 	ldrb.w	r3, [r0, #61]	; 0x3d
 8001108:	2b01      	cmp	r3, #1
 800110a:	d128      	bne.n	800115e <HAL_TIM_Base_Start_IT+0x5a>
 800110c:	2302      	movs	r3, #2
 800110e:	f880 303d 	strb.w	r3, [r0, #61]	; 0x3d
 8001112:	6803      	ldr	r3, [r0, #0]
 8001114:	68da      	ldr	r2, [r3, #12]
 8001116:	f042 0201 	orr.w	r2, r2, #1
 800111a:	60da      	str	r2, [r3, #12]
 800111c:	4a11      	ldr	r2, [pc, #68]	; (8001164 <HAL_TIM_Base_Start_IT+0x60>)
 800111e:	4293      	cmp	r3, r2
 8001120:	d012      	beq.n	8001148 <HAL_TIM_Base_Start_IT+0x44>
 8001122:	f502 6200 	add.w	r2, r2, #2048	; 0x800
 8001126:	4293      	cmp	r3, r2
 8001128:	d00e      	beq.n	8001148 <HAL_TIM_Base_Start_IT+0x44>
 800112a:	f1b3 4f80 	cmp.w	r3, #1073741824	; 0x40000000
 800112e:	d00b      	beq.n	8001148 <HAL_TIM_Base_Start_IT+0x44>
 8001130:	f5a2 3298 	sub.w	r2, r2, #77824	; 0x13000
 8001134:	4293      	cmp	r3, r2
 8001136:	d007      	beq.n	8001148 <HAL_TIM_Base_Start_IT+0x44>
 8001138:	f502 6280 	add.w	r2, r2, #1024	; 0x400
 800113c:	4293      	cmp	r3, r2
 800113e:	d003      	beq.n	8001148 <HAL_TIM_Base_Start_IT+0x44>
 8001140:	f502 6280 	add.w	r2, r2, #1024	; 0x400
 8001144:	4293      	cmp	r3, r2
 8001146:	d104      	bne.n	8001152 <HAL_TIM_Base_Start_IT+0x4e>
 8001148:	689a      	ldr	r2, [r3, #8]
 800114a:	f002 0207 	and.w	r2, r2, #7
 800114e:	2a06      	cmp	r2, #6
 8001150:	d003      	beq.n	800115a <HAL_TIM_Base_Start_IT+0x56>
 8001152:	681a      	ldr	r2, [r3, #0]
 8001154:	f042 0201 	orr.w	r2, r2, #1
 8001158:	601a      	str	r2, [r3, #0]
 800115a:	2000      	movs	r0, #0
 800115c:	4770      	bx	lr
 800115e:	2001      	movs	r0, #1
 8001160:	4770      	bx	lr
 8001162:	bf00      	nop
 8001164:	40012c00 	.word	0x40012c00

08001168 <HAL_TIM_OC_DelayElapsedCallback>:
 8001168:	4770      	bx	lr

0800116a <HAL_TIM_IC_CaptureCallback>:
 800116a:	4770      	bx	lr

0800116c <HAL_TIM_PWM_PulseFinishedCallback>:
 800116c:	4770      	bx	lr

0800116e <HAL_TIM_TriggerCallback>:
 800116e:	4770      	bx	lr

08001170 <HAL_TIM_IRQHandler>:
 8001170:	6803      	ldr	r3, [r0, #0]
 8001172:	b510      	push	{r4, lr}
 8001174:	691a      	ldr	r2, [r3, #16]
 8001176:	4604      	mov	r4, r0
 8001178:	0791      	lsls	r1, r2, #30
 800117a:	d50e      	bpl.n	800119a <HAL_TIM_IRQHandler+0x2a>
 800117c:	68da      	ldr	r2, [r3, #12]
 800117e:	0792      	lsls	r2, r2, #30
 8001180:	d50b      	bpl.n	800119a <HAL_TIM_IRQHandler+0x2a>
 8001182:	f06f 0202 	mvn.w	r2, #2
 8001186:	611a      	str	r2, [r3, #16]
 8001188:	2201      	movs	r2, #1
 800118a:	7702      	strb	r2, [r0, #28]
 800118c:	699b      	ldr	r3, [r3, #24]
 800118e:	079b      	lsls	r3, r3, #30
 8001190:	d077      	beq.n	8001282 <HAL_TIM_IRQHandler+0x112>
 8001192:	f7ff ffea 	bl	800116a <HAL_TIM_IC_CaptureCallback>
 8001196:	2300      	movs	r3, #0
 8001198:	7723      	strb	r3, [r4, #28]
 800119a:	6823      	ldr	r3, [r4, #0]
 800119c:	691a      	ldr	r2, [r3, #16]
 800119e:	0750      	lsls	r0, r2, #29
 80011a0:	d510      	bpl.n	80011c4 <HAL_TIM_IRQHandler+0x54>
 80011a2:	68da      	ldr	r2, [r3, #12]
 80011a4:	0751      	lsls	r1, r2, #29
 80011a6:	d50d      	bpl.n	80011c4 <HAL_TIM_IRQHandler+0x54>
 80011a8:	f06f 0204 	mvn.w	r2, #4
 80011ac:	611a      	str	r2, [r3, #16]
 80011ae:	2202      	movs	r2, #2
 80011b0:	7722      	strb	r2, [r4, #28]
 80011b2:	699b      	ldr	r3, [r3, #24]
 80011b4:	4620      	mov	r0, r4
 80011b6:	f413 7f40 	tst.w	r3, #768	; 0x300
 80011ba:	d068      	beq.n	800128e <HAL_TIM_IRQHandler+0x11e>
 80011bc:	f7ff ffd5 	bl	800116a <HAL_TIM_IC_CaptureCallback>
 80011c0:	2300      	movs	r3, #0
 80011c2:	7723      	strb	r3, [r4, #28]
 80011c4:	6823      	ldr	r3, [r4, #0]
 80011c6:	691a      	ldr	r2, [r3, #16]
 80011c8:	0712      	lsls	r2, r2, #28
 80011ca:	d50f      	bpl.n	80011ec <HAL_TIM_IRQHandler+0x7c>
 80011cc:	68da      	ldr	r2, [r3, #12]
 80011ce:	0710      	lsls	r0, r2, #28
 80011d0:	d50c      	bpl.n	80011ec <HAL_TIM_IRQHandler+0x7c>
 80011d2:	f06f 0208 	mvn.w	r2, #8
 80011d6:	611a      	str	r2, [r3, #16]
 80011d8:	2204      	movs	r2, #4
 80011da:	7722      	strb	r2, [r4, #28]
 80011dc:	69db      	ldr	r3, [r3, #28]
 80011de:	4620      	mov	r0, r4
 80011e0:	0799      	lsls	r1, r3, #30
 80011e2:	d05a      	beq.n	800129a <HAL_TIM_IRQHandler+0x12a>
 80011e4:	f7ff ffc1 	bl	800116a <HAL_TIM_IC_CaptureCallback>
 80011e8:	2300      	movs	r3, #0
 80011ea:	7723      	strb	r3, [r4, #28]
 80011ec:	6823      	ldr	r3, [r4, #0]
 80011ee:	691a      	ldr	r2, [r3, #16]
 80011f0:	06d2      	lsls	r2, r2, #27
 80011f2:	d510      	bpl.n	8001216 <HAL_TIM_IRQHandler+0xa6>
 80011f4:	68da      	ldr	r2, [r3, #12]
 80011f6:	06d0      	lsls	r0, r2, #27
 80011f8:	d50d      	bpl.n	8001216 <HAL_TIM_IRQHandler+0xa6>
 80011fa:	f06f 0210 	mvn.w	r2, #16
 80011fe:	611a      	str	r2, [r3, #16]
 8001200:	2208      	movs	r2, #8
 8001202:	7722      	strb	r2, [r4, #28]
 8001204:	69db      	ldr	r3, [r3, #28]
 8001206:	4620      	mov	r0, r4
 8001208:	f413 7f40 	tst.w	r3, #768	; 0x300
 800120c:	d04b      	beq.n	80012a6 <HAL_TIM_IRQHandler+0x136>
 800120e:	f7ff ffac 	bl	800116a <HAL_TIM_IC_CaptureCallback>
 8001212:	2300      	movs	r3, #0
 8001214:	7723      	strb	r3, [r4, #28]
 8001216:	6823      	ldr	r3, [r4, #0]
 8001218:	691a      	ldr	r2, [r3, #16]
 800121a:	07d1      	lsls	r1, r2, #31
 800121c:	d508      	bpl.n	8001230 <HAL_TIM_IRQHandler+0xc0>
 800121e:	68da      	ldr	r2, [r3, #12]
 8001220:	07d2      	lsls	r2, r2, #31
 8001222:	d505      	bpl.n	8001230 <HAL_TIM_IRQHandler+0xc0>
 8001224:	f06f 0201 	mvn.w	r2, #1
 8001228:	4620      	mov	r0, r4
 800122a:	611a      	str	r2, [r3, #16]
 800122c:	f7ff f980 	bl	8000530 <HAL_TIM_PeriodElapsedCallback>
 8001230:	6823      	ldr	r3, [r4, #0]
 8001232:	691a      	ldr	r2, [r3, #16]
 8001234:	0610      	lsls	r0, r2, #24
 8001236:	d508      	bpl.n	800124a <HAL_TIM_IRQHandler+0xda>
 8001238:	68da      	ldr	r2, [r3, #12]
 800123a:	0611      	lsls	r1, r2, #24
 800123c:	d505      	bpl.n	800124a <HAL_TIM_IRQHandler+0xda>
 800123e:	f06f 0280 	mvn.w	r2, #128	; 0x80
 8001242:	4620      	mov	r0, r4
 8001244:	611a      	str	r2, [r3, #16]
 8001246:	f000 f8ae 	bl	80013a6 <HAL_TIMEx_BreakCallback>
 800124a:	6823      	ldr	r3, [r4, #0]
 800124c:	691a      	ldr	r2, [r3, #16]
 800124e:	0652      	lsls	r2, r2, #25
 8001250:	d508      	bpl.n	8001264 <HAL_TIM_IRQHandler+0xf4>
 8001252:	68da      	ldr	r2, [r3, #12]
 8001254:	0650      	lsls	r0, r2, #25
 8001256:	d505      	bpl.n	8001264 <HAL_TIM_IRQHandler+0xf4>
 8001258:	f06f 0240 	mvn.w	r2, #64	; 0x40
 800125c:	4620      	mov	r0, r4
 800125e:	611a      	str	r2, [r3, #16]
 8001260:	f7ff ff85 	bl	800116e <HAL_TIM_TriggerCallback>
 8001264:	6823      	ldr	r3, [r4, #0]
 8001266:	691a      	ldr	r2, [r3, #16]
 8001268:	0691      	lsls	r1, r2, #26
 800126a:	d522      	bpl.n	80012b2 <HAL_TIM_IRQHandler+0x142>
 800126c:	68da      	ldr	r2, [r3, #12]
 800126e:	0692      	lsls	r2, r2, #26
 8001270:	d51f      	bpl.n	80012b2 <HAL_TIM_IRQHandler+0x142>
 8001272:	f06f 0220 	mvn.w	r2, #32
 8001276:	4620      	mov	r0, r4
 8001278:	e8bd 4010 	ldmia.w	sp!, {r4, lr}
 800127c:	611a      	str	r2, [r3, #16]
 800127e:	f000 b891 	b.w	80013a4 <HAL_TIMEx_CommutCallback>
 8001282:	f7ff ff71 	bl	8001168 <HAL_TIM_OC_DelayElapsedCallback>
 8001286:	4620      	mov	r0, r4
 8001288:	f7ff ff70 	bl	800116c <HAL_TIM_PWM_PulseFinishedCallback>
 800128c:	e783      	b.n	8001196 <HAL_TIM_IRQHandler+0x26>
 800128e:	f7ff ff6b 	bl	8001168 <HAL_TIM_OC_DelayElapsedCallback>
 8001292:	4620      	mov	r0, r4
 8001294:	f7ff ff6a 	bl	800116c <HAL_TIM_PWM_PulseFinishedCallback>
 8001298:	e792      	b.n	80011c0 <HAL_TIM_IRQHandler+0x50>
 800129a:	f7ff ff65 	bl	8001168 <HAL_TIM_OC_DelayElapsedCallback>
 800129e:	4620      	mov	r0, r4
 80012a0:	f7ff ff64 	bl	800116c <HAL_TIM_PWM_PulseFinishedCallback>
 80012a4:	e7a0      	b.n	80011e8 <HAL_TIM_IRQHandler+0x78>
 80012a6:	f7ff ff5f 	bl	8001168 <HAL_TIM_OC_DelayElapsedCallback>
 80012aa:	4620      	mov	r0, r4
 80012ac:	f7ff ff5e 	bl	800116c <HAL_TIM_PWM_PulseFinishedCallback>
 80012b0:	e7af      	b.n	8001212 <HAL_TIM_IRQHandler+0xa2>
 80012b2:	bd10      	pop	{r4, pc}

080012b4 <TIM_Base_SetConfig>:
 80012b4:	4a24      	ldr	r2, [pc, #144]	; (8001348 <TIM_Base_SetConfig+0x94>)
 80012b6:	6803      	ldr	r3, [r0, #0]
 80012b8:	4290      	cmp	r0, r2
 80012ba:	d012      	beq.n	80012e2 <TIM_Base_SetConfig+0x2e>
 80012bc:	f502 6200 	add.w	r2, r2, #2048	; 0x800
 80012c0:	4290      	cmp	r0, r2
 80012c2:	d00e      	beq.n	80012e2 <TIM_Base_SetConfig+0x2e>
 80012c4:	f1b0 4f80 	cmp.w	r0, #1073741824	; 0x40000000
 80012c8:	d00b      	beq.n	80012e2 <TIM_Base_SetConfig+0x2e>
 80012ca:	f5a2 3298 	sub.w	r2, r2, #77824	; 0x13000
 80012ce:	4290      	cmp	r0, r2
 80012d0:	d007      	beq.n	80012e2 <TIM_Base_SetConfig+0x2e>
 80012d2:	f502 6280 	add.w	r2, r2, #1024	; 0x400
 80012d6:	4290      	cmp	r0, r2
 80012d8:	d003      	beq.n	80012e2 <TIM_Base_SetConfig+0x2e>
 80012da:	f502 6280 	add.w	r2, r2, #1024	; 0x400
 80012de:	4290      	cmp	r0, r2
 80012e0:	d11d      	bne.n	800131e <TIM_Base_SetConfig+0x6a>
 80012e2:	684a      	ldr	r2, [r1, #4]
 80012e4:	f023 0370 	bic.w	r3, r3, #112	; 0x70
 80012e8:	4313      	orrs	r3, r2
 80012ea:	4a17      	ldr	r2, [pc, #92]	; (8001348 <TIM_Base_SetConfig+0x94>)
 80012ec:	4290      	cmp	r0, r2
 80012ee:	d012      	beq.n	8001316 <TIM_Base_SetConfig+0x62>
 80012f0:	f502 6200 	add.w	r2, r2, #2048	; 0x800
 80012f4:	4290      	cmp	r0, r2
 80012f6:	d00e      	beq.n	8001316 <TIM_Base_SetConfig+0x62>
 80012f8:	f1b0 4f80 	cmp.w	r0, #1073741824	; 0x40000000
 80012fc:	d00b      	beq.n	8001316 <TIM_Base_SetConfig+0x62>
 80012fe:	f5a2 3298 	sub.w	r2, r2, #77824	; 0x13000
 8001302:	4290      	cmp	r0, r2
 8001304:	d007      	beq.n	8001316 <TIM_Base_SetConfig+0x62>
 8001306:	f502 6280 	add.w	r2, r2, #1024	; 0x400
 800130a:	4290      	cmp	r0, r2
 800130c:	d003      	beq.n	8001316 <TIM_Base_SetConfig+0x62>
 800130e:	f502 6280 	add.w	r2, r2, #1024	; 0x400
 8001312:	4290      	cmp	r0, r2
 8001314:	d103      	bne.n	800131e <TIM_Base_SetConfig+0x6a>
 8001316:	68ca      	ldr	r2, [r1, #12]
 8001318:	f423 7340 	bic.w	r3, r3, #768	; 0x300
 800131c:	4313      	orrs	r3, r2
 800131e:	694a      	ldr	r2, [r1, #20]
 8001320:	f023 0380 	bic.w	r3, r3, #128	; 0x80
 8001324:	4313      	orrs	r3, r2
 8001326:	6003      	str	r3, [r0, #0]
 8001328:	688b      	ldr	r3, [r1, #8]
 800132a:	62c3      	str	r3, [r0, #44]	; 0x2c
 800132c:	680b      	ldr	r3, [r1, #0]
 800132e:	6283      	str	r3, [r0, #40]	; 0x28
 8001330:	4b05      	ldr	r3, [pc, #20]	; (8001348 <TIM_Base_SetConfig+0x94>)
 8001332:	4298      	cmp	r0, r3
 8001334:	d003      	beq.n	800133e <TIM_Base_SetConfig+0x8a>
 8001336:	f503 6300 	add.w	r3, r3, #2048	; 0x800
 800133a:	4298      	cmp	r0, r3
 800133c:	d101      	bne.n	8001342 <TIM_Base_SetConfig+0x8e>
 800133e:	690b      	ldr	r3, [r1, #16]
 8001340:	6303      	str	r3, [r0, #48]	; 0x30
 8001342:	2301      	movs	r3, #1
 8001344:	6143      	str	r3, [r0, #20]
 8001346:	4770      	bx	lr
 8001348:	40012c00 	.word	0x40012c00

0800134c <HAL_TIM_Base_Init>:
 800134c:	b510      	push	{r4, lr}
 800134e:	4604      	mov	r4, r0
 8001350:	b330      	cbz	r0, 80013a0 <HAL_TIM_Base_Init+0x54>
 8001352:	f890 303d 	ldrb.w	r3, [r0, #61]	; 0x3d
 8001356:	f003 02ff 	and.w	r2, r3, #255	; 0xff
 800135a:	b91b      	cbnz	r3, 8001364 <HAL_TIM_Base_Init+0x18>
 800135c:	f880 203c 	strb.w	r2, [r0, #60]	; 0x3c
 8001360:	f7ff fece 	bl	8001100 <HAL_TIM_Base_MspInit>
 8001364:	2302      	movs	r3, #2
 8001366:	6820      	ldr	r0, [r4, #0]
 8001368:	f884 303d 	strb.w	r3, [r4, #61]	; 0x3d
 800136c:	1d21      	adds	r1, r4, #4
 800136e:	f7ff ffa1 	bl	80012b4 <TIM_Base_SetConfig>
 8001372:	2301      	movs	r3, #1
 8001374:	2000      	movs	r0, #0
 8001376:	f884 3046 	strb.w	r3, [r4, #70]	; 0x46
 800137a:	f884 303e 	strb.w	r3, [r4, #62]	; 0x3e
 800137e:	f884 303f 	strb.w	r3, [r4, #63]	; 0x3f
 8001382:	f884 3040 	strb.w	r3, [r4, #64]	; 0x40
 8001386:	f884 3041 	strb.w	r3, [r4, #65]	; 0x41
 800138a:	f884 3042 	strb.w	r3, [r4, #66]	; 0x42
 800138e:	f884 3043 	strb.w	r3, [r4, #67]	; 0x43
 8001392:	f884 3044 	strb.w	r3, [r4, #68]	; 0x44
 8001396:	f884 3045 	strb.w	r3, [r4, #69]	; 0x45
 800139a:	f884 303d 	strb.w	r3, [r4, #61]	; 0x3d
 800139e:	bd10      	pop	{r4, pc}
 80013a0:	2001      	movs	r0, #1
 80013a2:	e7fc      	b.n	800139e <HAL_TIM_Base_Init+0x52>

080013a4 <HAL_TIMEx_CommutCallback>:
 80013a4:	4770      	bx	lr

080013a6 <HAL_TIMEx_BreakCallback>:
 80013a6:	4770      	bx	lr

080013a8 <UART_EndRxTransfer>:
 80013a8:	6803      	ldr	r3, [r0, #0]
 80013aa:	68da      	ldr	r2, [r3, #12]
 80013ac:	f422 7290 	bic.w	r2, r2, #288	; 0x120
 80013b0:	60da      	str	r2, [r3, #12]
 80013b2:	695a      	ldr	r2, [r3, #20]
 80013b4:	f022 0201 	bic.w	r2, r2, #1
 80013b8:	615a      	str	r2, [r3, #20]
 80013ba:	6b02      	ldr	r2, [r0, #48]	; 0x30
 80013bc:	2a01      	cmp	r2, #1
 80013be:	bf02      	ittt	eq
 80013c0:	68da      	ldreq	r2, [r3, #12]
 80013c2:	f022 0210 	biceq.w	r2, r2, #16
 80013c6:	60da      	streq	r2, [r3, #12]
 80013c8:	2320      	movs	r3, #32
 80013ca:	f880 303e 	strb.w	r3, [r0, #62]	; 0x3e
 80013ce:	2300      	movs	r3, #0
 80013d0:	6303      	str	r3, [r0, #48]	; 0x30
 80013d2:	4770      	bx	lr

080013d4 <UART_SetConfig>:
 80013d4:	b510      	push	{r4, lr}
 80013d6:	4604      	mov	r4, r0
 80013d8:	6803      	ldr	r3, [r0, #0]
 80013da:	68c1      	ldr	r1, [r0, #12]
 80013dc:	691a      	ldr	r2, [r3, #16]
 80013de:	f422 5240 	bic.w	r2, r2, #12288	; 0x3000
 80013e2:	430a      	orrs	r2, r1
 80013e4:	611a      	str	r2, [r3, #16]
 80013e6:	6882      	ldr	r2, [r0, #8]
 80013e8:	6900      	ldr	r0, [r0, #16]
 80013ea:	68d9      	ldr	r1, [r3, #12]
 80013ec:	4302      	orrs	r2, r0
 80013ee:	6960      	ldr	r0, [r4, #20]
 80013f0:	f421 51b0 	bic.w	r1, r1, #5632	; 0x1600
 80013f4:	f021 010c 	bic.w	r1, r1, #12
 80013f8:	4302      	orrs	r2, r0
 80013fa:	430a      	orrs	r2, r1
 80013fc:	60da      	str	r2, [r3, #12]
 80013fe:	695a      	ldr	r2, [r3, #20]
 8001400:	69a1      	ldr	r1, [r4, #24]
 8001402:	f422 7240 	bic.w	r2, r2, #768	; 0x300
 8001406:	430a      	orrs	r2, r1
 8001408:	615a      	str	r2, [r3, #20]
 800140a:	4a0e      	ldr	r2, [pc, #56]	; (8001444 <UART_SetConfig+0x70>)
 800140c:	4293      	cmp	r3, r2
 800140e:	d115      	bne.n	800143c <UART_SetConfig+0x68>
 8001410:	f7ff fe48 	bl	80010a4 <HAL_RCC_GetPCLK2Freq>
 8001414:	2319      	movs	r3, #25
 8001416:	4343      	muls	r3, r0
 8001418:	6862      	ldr	r2, [r4, #4]
 800141a:	6820      	ldr	r0, [r4, #0]
 800141c:	0092      	lsls	r2, r2, #2
 800141e:	fbb3 f3f2 	udiv	r3, r3, r2
 8001422:	2264      	movs	r2, #100	; 0x64
 8001424:	fbb3 f1f2 	udiv	r1, r3, r2
 8001428:	fb02 3311 	mls	r3, r2, r1, r3
 800142c:	011b      	lsls	r3, r3, #4
 800142e:	3332      	adds	r3, #50	; 0x32
 8001430:	fbb3 f3f2 	udiv	r3, r3, r2
 8001434:	eb03 1301 	add.w	r3, r3, r1, lsl #4
 8001438:	6083      	str	r3, [r0, #8]
 800143a:	bd10      	pop	{r4, pc}
 800143c:	f7ff fe22 	bl	8001084 <HAL_RCC_GetPCLK1Freq>
 8001440:	e7e8      	b.n	8001414 <UART_SetConfig+0x40>
 8001442:	bf00      	nop
 8001444:	40013800 	.word	0x40013800

08001448 <UART_WaitOnFlagUntilTimeout.constprop.0>:
 8001448:	b5f8      	push	{r3, r4, r5, r6, r7, lr}
 800144a:	4604      	mov	r4, r0
 800144c:	460e      	mov	r6, r1
 800144e:	4617      	mov	r7, r2
 8001450:	461d      	mov	r5, r3
 8001452:	6822      	ldr	r2, [r4, #0]
 8001454:	6813      	ldr	r3, [r2, #0]
 8001456:	ea36 0303 	bics.w	r3, r6, r3
 800145a:	d101      	bne.n	8001460 <UART_WaitOnFlagUntilTimeout.constprop.0+0x18>
 800145c:	2000      	movs	r0, #0
 800145e:	e014      	b.n	800148a <UART_WaitOnFlagUntilTimeout.constprop.0+0x42>
 8001460:	1c6b      	adds	r3, r5, #1
 8001462:	d0f7      	beq.n	8001454 <UART_WaitOnFlagUntilTimeout.constprop.0+0xc>
 8001464:	b995      	cbnz	r5, 800148c <UART_WaitOnFlagUntilTimeout.constprop.0+0x44>
 8001466:	6823      	ldr	r3, [r4, #0]
 8001468:	2003      	movs	r0, #3
 800146a:	68da      	ldr	r2, [r3, #12]
 800146c:	f422 72d0 	bic.w	r2, r2, #416	; 0x1a0
 8001470:	60da      	str	r2, [r3, #12]
 8001472:	695a      	ldr	r2, [r3, #20]
 8001474:	f022 0201 	bic.w	r2, r2, #1
 8001478:	615a      	str	r2, [r3, #20]
 800147a:	2320      	movs	r3, #32
 800147c:	f884 303d 	strb.w	r3, [r4, #61]	; 0x3d
 8001480:	f884 303e 	strb.w	r3, [r4, #62]	; 0x3e
 8001484:	2300      	movs	r3, #0
 8001486:	f884 303c 	strb.w	r3, [r4, #60]	; 0x3c
 800148a:	bdf8      	pop	{r3, r4, r5, r6, r7, pc}
 800148c:	f7ff f96c 	bl	8000768 <HAL_GetTick>
 8001490:	1bc0      	subs	r0, r0, r7
 8001492:	4285      	cmp	r5, r0
 8001494:	d2dd      	bcs.n	8001452 <UART_WaitOnFlagUntilTimeout.constprop.0+0xa>
 8001496:	e7e6      	b.n	8001466 <UART_WaitOnFlagUntilTimeout.constprop.0+0x1e>

08001498 <HAL_UART_Init>:
 8001498:	b510      	push	{r4, lr}
 800149a:	4604      	mov	r4, r0
 800149c:	b340      	cbz	r0, 80014f0 <HAL_UART_Init+0x58>
 800149e:	f890 303d 	ldrb.w	r3, [r0, #61]	; 0x3d
 80014a2:	f003 02ff 	and.w	r2, r3, #255	; 0xff
 80014a6:	b91b      	cbnz	r3, 80014b0 <HAL_UART_Init+0x18>
 80014a8:	f880 203c 	strb.w	r2, [r0, #60]	; 0x3c
 80014ac:	f7ff f872 	bl	8000594 <HAL_UART_MspInit>
 80014b0:	2324      	movs	r3, #36	; 0x24
 80014b2:	6822      	ldr	r2, [r4, #0]
 80014b4:	f884 303d 	strb.w	r3, [r4, #61]	; 0x3d
 80014b8:	68d3      	ldr	r3, [r2, #12]
 80014ba:	4620      	mov	r0, r4
 80014bc:	f423 5300 	bic.w	r3, r3, #8192	; 0x2000
 80014c0:	60d3      	str	r3, [r2, #12]
 80014c2:	f7ff ff87 	bl	80013d4 <UART_SetConfig>
 80014c6:	6823      	ldr	r3, [r4, #0]
 80014c8:	2000      	movs	r0, #0
 80014ca:	691a      	ldr	r2, [r3, #16]
 80014cc:	f422 4290 	bic.w	r2, r2, #18432	; 0x4800
 80014d0:	611a      	str	r2, [r3, #16]
 80014d2:	695a      	ldr	r2, [r3, #20]
 80014d4:	f022 022a 	bic.w	r2, r2, #42	; 0x2a
 80014d8:	615a      	str	r2, [r3, #20]
 80014da:	68da      	ldr	r2, [r3, #12]
 80014dc:	f442 5200 	orr.w	r2, r2, #8192	; 0x2000
 80014e0:	60da      	str	r2, [r3, #12]
 80014e2:	2320      	movs	r3, #32
 80014e4:	6420      	str	r0, [r4, #64]	; 0x40
 80014e6:	f884 303d 	strb.w	r3, [r4, #61]	; 0x3d
 80014ea:	f884 303e 	strb.w	r3, [r4, #62]	; 0x3e
 80014ee:	bd10      	pop	{r4, pc}
 80014f0:	2001      	movs	r0, #1
 80014f2:	e7fc      	b.n	80014ee <HAL_UART_Init+0x56>

080014f4 <HAL_UART_Transmit>:
 80014f4:	e92d 43f8 	stmdb	sp!, {r3, r4, r5, r6, r7, r8, r9, lr}
 80014f8:	4699      	mov	r9, r3
 80014fa:	f890 303d 	ldrb.w	r3, [r0, #61]	; 0x3d
 80014fe:	4604      	mov	r4, r0
 8001500:	2b20      	cmp	r3, #32
 8001502:	460e      	mov	r6, r1
 8001504:	4617      	mov	r7, r2
 8001506:	d148      	bne.n	800159a <HAL_UART_Transmit+0xa6>
 8001508:	2900      	cmp	r1, #0
 800150a:	d044      	beq.n	8001596 <HAL_UART_Transmit+0xa2>
 800150c:	2a00      	cmp	r2, #0
 800150e:	d042      	beq.n	8001596 <HAL_UART_Transmit+0xa2>
 8001510:	f890 303c 	ldrb.w	r3, [r0, #60]	; 0x3c
 8001514:	2b01      	cmp	r3, #1
 8001516:	d040      	beq.n	800159a <HAL_UART_Transmit+0xa6>
 8001518:	2301      	movs	r3, #1
 800151a:	2500      	movs	r5, #0
 800151c:	f880 303c 	strb.w	r3, [r0, #60]	; 0x3c
 8001520:	2321      	movs	r3, #33	; 0x21
 8001522:	6405      	str	r5, [r0, #64]	; 0x40
 8001524:	f880 303d 	strb.w	r3, [r0, #61]	; 0x3d
 8001528:	f7ff f91e 	bl	8000768 <HAL_GetTick>
 800152c:	68a3      	ldr	r3, [r4, #8]
 800152e:	4680      	mov	r8, r0
 8001530:	f5b3 5f80 	cmp.w	r3, #4096	; 0x1000
 8001534:	84a7      	strh	r7, [r4, #36]	; 0x24
 8001536:	84e7      	strh	r7, [r4, #38]	; 0x26
 8001538:	d103      	bne.n	8001542 <HAL_UART_Transmit+0x4e>
 800153a:	6923      	ldr	r3, [r4, #16]
 800153c:	b90b      	cbnz	r3, 8001542 <HAL_UART_Transmit+0x4e>
 800153e:	4635      	mov	r5, r6
 8001540:	461e      	mov	r6, r3
 8001542:	2300      	movs	r3, #0
 8001544:	f884 303c 	strb.w	r3, [r4, #60]	; 0x3c
 8001548:	8ce3      	ldrh	r3, [r4, #38]	; 0x26
 800154a:	b29b      	uxth	r3, r3
 800154c:	b953      	cbnz	r3, 8001564 <HAL_UART_Transmit+0x70>
 800154e:	464b      	mov	r3, r9
 8001550:	4642      	mov	r2, r8
 8001552:	2140      	movs	r1, #64	; 0x40
 8001554:	4620      	mov	r0, r4
 8001556:	f7ff ff77 	bl	8001448 <UART_WaitOnFlagUntilTimeout.constprop.0>
 800155a:	b950      	cbnz	r0, 8001572 <HAL_UART_Transmit+0x7e>
 800155c:	2320      	movs	r3, #32
 800155e:	f884 303d 	strb.w	r3, [r4, #61]	; 0x3d
 8001562:	e007      	b.n	8001574 <HAL_UART_Transmit+0x80>
 8001564:	464b      	mov	r3, r9
 8001566:	4642      	mov	r2, r8
 8001568:	2180      	movs	r1, #128	; 0x80
 800156a:	4620      	mov	r0, r4
 800156c:	f7ff ff6c 	bl	8001448 <UART_WaitOnFlagUntilTimeout.constprop.0>
 8001570:	b110      	cbz	r0, 8001578 <HAL_UART_Transmit+0x84>
 8001572:	2003      	movs	r0, #3
 8001574:	e8bd 83f8 	ldmia.w	sp!, {r3, r4, r5, r6, r7, r8, r9, pc}
 8001578:	6822      	ldr	r2, [r4, #0]
 800157a:	b94e      	cbnz	r6, 8001590 <HAL_UART_Transmit+0x9c>
 800157c:	f835 3b02 	ldrh.w	r3, [r5], #2
 8001580:	f3c3 0308 	ubfx	r3, r3, #0, #9
 8001584:	6053      	str	r3, [r2, #4]
 8001586:	8ce1      	ldrh	r1, [r4, #38]	; 0x26
 8001588:	3901      	subs	r1, #1
 800158a:	b289      	uxth	r1, r1
 800158c:	84e1      	strh	r1, [r4, #38]	; 0x26
 800158e:	e7db      	b.n	8001548 <HAL_UART_Transmit+0x54>
 8001590:	f816 3b01 	ldrb.w	r3, [r6], #1
 8001594:	e7f6      	b.n	8001584 <HAL_UART_Transmit+0x90>
 8001596:	2001      	movs	r0, #1
 8001598:	e7ec      	b.n	8001574 <HAL_UART_Transmit+0x80>
 800159a:	2002      	movs	r0, #2
 800159c:	e7ea      	b.n	8001574 <HAL_UART_Transmit+0x80>

0800159e <HAL_UART_TxCpltCallback>:
 800159e:	4770      	bx	lr

080015a0 <HAL_UART_RxCpltCallback>:
 80015a0:	4770      	bx	lr

080015a2 <HAL_UART_ErrorCallback>:
 80015a2:	4770      	bx	lr

080015a4 <UART_DMAAbortOnError>:
 80015a4:	b508      	push	{r3, lr}
 80015a6:	2300      	movs	r3, #0
 80015a8:	6a40      	ldr	r0, [r0, #36]	; 0x24
 80015aa:	85c3      	strh	r3, [r0, #46]	; 0x2e
 80015ac:	84c3      	strh	r3, [r0, #38]	; 0x26
 80015ae:	f7ff fff8 	bl	80015a2 <HAL_UART_ErrorCallback>
 80015b2:	bd08      	pop	{r3, pc}

080015b4 <HAL_UARTEx_RxEventCallback>:
 80015b4:	4770      	bx	lr

080015b6 <UART_Receive_IT.part.0.isra.0>:
 80015b6:	b507      	push	{r0, r1, r2, lr}
 80015b8:	6881      	ldr	r1, [r0, #8]
 80015ba:	6a83      	ldr	r3, [r0, #40]	; 0x28
 80015bc:	f5b1 5f80 	cmp.w	r1, #4096	; 0x1000
 80015c0:	6802      	ldr	r2, [r0, #0]
 80015c2:	d134      	bne.n	800162e <UART_Receive_IT.part.0.isra.0+0x78>
 80015c4:	6901      	ldr	r1, [r0, #16]
 80015c6:	2900      	cmp	r1, #0
 80015c8:	d134      	bne.n	8001634 <UART_Receive_IT.part.0.isra.0+0x7e>
 80015ca:	6852      	ldr	r2, [r2, #4]
 80015cc:	f3c2 0208 	ubfx	r2, r2, #0, #9
 80015d0:	f823 2b02 	strh.w	r2, [r3], #2
 80015d4:	8dc2      	ldrh	r2, [r0, #46]	; 0x2e
 80015d6:	6283      	str	r3, [r0, #40]	; 0x28
 80015d8:	3a01      	subs	r2, #1
 80015da:	b292      	uxth	r2, r2
 80015dc:	85c2      	strh	r2, [r0, #46]	; 0x2e
 80015de:	bb1a      	cbnz	r2, 8001628 <UART_Receive_IT.part.0.isra.0+0x72>
 80015e0:	6803      	ldr	r3, [r0, #0]
 80015e2:	68d9      	ldr	r1, [r3, #12]
 80015e4:	f021 0120 	bic.w	r1, r1, #32
 80015e8:	60d9      	str	r1, [r3, #12]
 80015ea:	68d9      	ldr	r1, [r3, #12]
 80015ec:	f421 7180 	bic.w	r1, r1, #256	; 0x100
 80015f0:	60d9      	str	r1, [r3, #12]
 80015f2:	6959      	ldr	r1, [r3, #20]
 80015f4:	f021 0101 	bic.w	r1, r1, #1
 80015f8:	6159      	str	r1, [r3, #20]
 80015fa:	2120      	movs	r1, #32
 80015fc:	f880 103e 	strb.w	r1, [r0, #62]	; 0x3e
 8001600:	6b01      	ldr	r1, [r0, #48]	; 0x30
 8001602:	2901      	cmp	r1, #1
 8001604:	d120      	bne.n	8001648 <UART_Receive_IT.part.0.isra.0+0x92>
 8001606:	6302      	str	r2, [r0, #48]	; 0x30
 8001608:	68d9      	ldr	r1, [r3, #12]
 800160a:	f021 0110 	bic.w	r1, r1, #16
 800160e:	60d9      	str	r1, [r3, #12]
 8001610:	6819      	ldr	r1, [r3, #0]
 8001612:	06c9      	lsls	r1, r1, #27
 8001614:	d505      	bpl.n	8001622 <UART_Receive_IT.part.0.isra.0+0x6c>
 8001616:	9201      	str	r2, [sp, #4]
 8001618:	681a      	ldr	r2, [r3, #0]
 800161a:	9201      	str	r2, [sp, #4]
 800161c:	685b      	ldr	r3, [r3, #4]
 800161e:	9301      	str	r3, [sp, #4]
 8001620:	9b01      	ldr	r3, [sp, #4]
 8001622:	8d81      	ldrh	r1, [r0, #44]	; 0x2c
 8001624:	f7ff ffc6 	bl	80015b4 <HAL_UARTEx_RxEventCallback>
 8001628:	b003      	add	sp, #12
 800162a:	f85d fb04 	ldr.w	pc, [sp], #4
 800162e:	b939      	cbnz	r1, 8001640 <UART_Receive_IT.part.0.isra.0+0x8a>
 8001630:	6901      	ldr	r1, [r0, #16]
 8001632:	b929      	cbnz	r1, 8001640 <UART_Receive_IT.part.0.isra.0+0x8a>
 8001634:	6852      	ldr	r2, [r2, #4]
 8001636:	b2d2      	uxtb	r2, r2
 8001638:	701a      	strb	r2, [r3, #0]
 800163a:	6a83      	ldr	r3, [r0, #40]	; 0x28
 800163c:	3301      	adds	r3, #1
 800163e:	e7c9      	b.n	80015d4 <UART_Receive_IT.part.0.isra.0+0x1e>
 8001640:	6852      	ldr	r2, [r2, #4]
 8001642:	f002 027f 	and.w	r2, r2, #127	; 0x7f
 8001646:	e7f7      	b.n	8001638 <UART_Receive_IT.part.0.isra.0+0x82>
 8001648:	f7ff ffaa 	bl	80015a0 <HAL_UART_RxCpltCallback>
 800164c:	e7ec      	b.n	8001628 <UART_Receive_IT.part.0.isra.0+0x72>
	...

08001650 <HAL_UART_IRQHandler>:
 8001650:	6803      	ldr	r3, [r0, #0]
 8001652:	b537      	push	{r0, r1, r2, r4, r5, lr}
 8001654:	681a      	ldr	r2, [r3, #0]
 8001656:	4604      	mov	r4, r0
 8001658:	f012 0f0f 	tst.w	r2, #15
 800165c:	68d9      	ldr	r1, [r3, #12]
 800165e:	695d      	ldr	r5, [r3, #20]
 8001660:	d10c      	bne.n	800167c <HAL_UART_IRQHandler+0x2c>
 8001662:	0695      	lsls	r5, r2, #26
 8001664:	d567      	bpl.n	8001736 <HAL_UART_IRQHandler+0xe6>
 8001666:	068d      	lsls	r5, r1, #26
 8001668:	d565      	bpl.n	8001736 <HAL_UART_IRQHandler+0xe6>
 800166a:	f890 303e 	ldrb.w	r3, [r0, #62]	; 0x3e
 800166e:	2b22      	cmp	r3, #34	; 0x22
 8001670:	d15b      	bne.n	800172a <HAL_UART_IRQHandler+0xda>
 8001672:	b003      	add	sp, #12
 8001674:	e8bd 4030 	ldmia.w	sp!, {r4, r5, lr}
 8001678:	f7ff bf9d 	b.w	80015b6 <UART_Receive_IT.part.0.isra.0>
 800167c:	f005 0001 	and.w	r0, r5, #1
 8001680:	f401 7590 	and.w	r5, r1, #288	; 0x120
 8001684:	4305      	orrs	r5, r0
 8001686:	d056      	beq.n	8001736 <HAL_UART_IRQHandler+0xe6>
 8001688:	07d5      	lsls	r5, r2, #31
 800168a:	d505      	bpl.n	8001698 <HAL_UART_IRQHandler+0x48>
 800168c:	05cb      	lsls	r3, r1, #23
 800168e:	bf42      	ittt	mi
 8001690:	6c23      	ldrmi	r3, [r4, #64]	; 0x40
 8001692:	f043 0301 	orrmi.w	r3, r3, #1
 8001696:	6423      	strmi	r3, [r4, #64]	; 0x40
 8001698:	0755      	lsls	r5, r2, #29
 800169a:	d504      	bpl.n	80016a6 <HAL_UART_IRQHandler+0x56>
 800169c:	b118      	cbz	r0, 80016a6 <HAL_UART_IRQHandler+0x56>
 800169e:	6c23      	ldr	r3, [r4, #64]	; 0x40
 80016a0:	f043 0302 	orr.w	r3, r3, #2
 80016a4:	6423      	str	r3, [r4, #64]	; 0x40
 80016a6:	0793      	lsls	r3, r2, #30
 80016a8:	d504      	bpl.n	80016b4 <HAL_UART_IRQHandler+0x64>
 80016aa:	b118      	cbz	r0, 80016b4 <HAL_UART_IRQHandler+0x64>
 80016ac:	6c23      	ldr	r3, [r4, #64]	; 0x40
 80016ae:	f043 0304 	orr.w	r3, r3, #4
 80016b2:	6423      	str	r3, [r4, #64]	; 0x40
 80016b4:	0715      	lsls	r5, r2, #28
 80016b6:	d507      	bpl.n	80016c8 <HAL_UART_IRQHandler+0x78>
 80016b8:	f001 0320 	and.w	r3, r1, #32
 80016bc:	4303      	orrs	r3, r0
 80016be:	bf1e      	ittt	ne
 80016c0:	6c23      	ldrne	r3, [r4, #64]	; 0x40
 80016c2:	f043 0308 	orrne.w	r3, r3, #8
 80016c6:	6423      	strne	r3, [r4, #64]	; 0x40
 80016c8:	6c23      	ldr	r3, [r4, #64]	; 0x40
 80016ca:	b373      	cbz	r3, 800172a <HAL_UART_IRQHandler+0xda>
 80016cc:	0692      	lsls	r2, r2, #26
 80016ce:	d508      	bpl.n	80016e2 <HAL_UART_IRQHandler+0x92>
 80016d0:	068b      	lsls	r3, r1, #26
 80016d2:	d506      	bpl.n	80016e2 <HAL_UART_IRQHandler+0x92>
 80016d4:	f894 303e 	ldrb.w	r3, [r4, #62]	; 0x3e
 80016d8:	2b22      	cmp	r3, #34	; 0x22
 80016da:	d102      	bne.n	80016e2 <HAL_UART_IRQHandler+0x92>
 80016dc:	4620      	mov	r0, r4
 80016de:	f7ff ff6a 	bl	80015b6 <UART_Receive_IT.part.0.isra.0>
 80016e2:	6823      	ldr	r3, [r4, #0]
 80016e4:	4620      	mov	r0, r4
 80016e6:	695b      	ldr	r3, [r3, #20]
 80016e8:	6c25      	ldr	r5, [r4, #64]	; 0x40
 80016ea:	f003 0340 	and.w	r3, r3, #64	; 0x40
 80016ee:	f005 0508 	and.w	r5, r5, #8
 80016f2:	431d      	orrs	r5, r3
 80016f4:	d01b      	beq.n	800172e <HAL_UART_IRQHandler+0xde>
 80016f6:	f7ff fe57 	bl	80013a8 <UART_EndRxTransfer>
 80016fa:	6823      	ldr	r3, [r4, #0]
 80016fc:	695a      	ldr	r2, [r3, #20]
 80016fe:	0655      	lsls	r5, r2, #25
 8001700:	d510      	bpl.n	8001724 <HAL_UART_IRQHandler+0xd4>
 8001702:	695a      	ldr	r2, [r3, #20]
 8001704:	6ba0      	ldr	r0, [r4, #56]	; 0x38
 8001706:	f022 0240 	bic.w	r2, r2, #64	; 0x40
 800170a:	615a      	str	r2, [r3, #20]
 800170c:	b150      	cbz	r0, 8001724 <HAL_UART_IRQHandler+0xd4>
 800170e:	4b53      	ldr	r3, [pc, #332]	; (800185c <HAL_UART_IRQHandler+0x20c>)
 8001710:	6343      	str	r3, [r0, #52]	; 0x34
 8001712:	f7ff f8b1 	bl	8000878 <HAL_DMA_Abort_IT>
 8001716:	b140      	cbz	r0, 800172a <HAL_UART_IRQHandler+0xda>
 8001718:	6ba0      	ldr	r0, [r4, #56]	; 0x38
 800171a:	6b43      	ldr	r3, [r0, #52]	; 0x34
 800171c:	b003      	add	sp, #12
 800171e:	e8bd 4030 	ldmia.w	sp!, {r4, r5, lr}
 8001722:	4718      	bx	r3
 8001724:	4620      	mov	r0, r4
 8001726:	f7ff ff3c 	bl	80015a2 <HAL_UART_ErrorCallback>
 800172a:	b003      	add	sp, #12
 800172c:	bd30      	pop	{r4, r5, pc}
 800172e:	f7ff ff38 	bl	80015a2 <HAL_UART_ErrorCallback>
 8001732:	6425      	str	r5, [r4, #64]	; 0x40
 8001734:	e7f9      	b.n	800172a <HAL_UART_IRQHandler+0xda>
 8001736:	6b20      	ldr	r0, [r4, #48]	; 0x30
 8001738:	2801      	cmp	r0, #1
 800173a:	d155      	bne.n	80017e8 <HAL_UART_IRQHandler+0x198>
 800173c:	06d0      	lsls	r0, r2, #27
 800173e:	d553      	bpl.n	80017e8 <HAL_UART_IRQHandler+0x198>
 8001740:	06cd      	lsls	r5, r1, #27
 8001742:	d551      	bpl.n	80017e8 <HAL_UART_IRQHandler+0x198>
 8001744:	2100      	movs	r1, #0
 8001746:	9101      	str	r1, [sp, #4]
 8001748:	681a      	ldr	r2, [r3, #0]
 800174a:	9201      	str	r2, [sp, #4]
 800174c:	685a      	ldr	r2, [r3, #4]
 800174e:	9201      	str	r2, [sp, #4]
 8001750:	9a01      	ldr	r2, [sp, #4]
 8001752:	695a      	ldr	r2, [r3, #20]
 8001754:	f012 0240 	ands.w	r2, r2, #64	; 0x40
 8001758:	d02a      	beq.n	80017b0 <HAL_UART_IRQHandler+0x160>
 800175a:	6ba0      	ldr	r0, [r4, #56]	; 0x38
 800175c:	6802      	ldr	r2, [r0, #0]
 800175e:	6852      	ldr	r2, [r2, #4]
 8001760:	b292      	uxth	r2, r2
 8001762:	2a00      	cmp	r2, #0
 8001764:	d0e1      	beq.n	800172a <HAL_UART_IRQHandler+0xda>
 8001766:	8da5      	ldrh	r5, [r4, #44]	; 0x2c
 8001768:	4295      	cmp	r5, r2
 800176a:	d9de      	bls.n	800172a <HAL_UART_IRQHandler+0xda>
 800176c:	85e2      	strh	r2, [r4, #46]	; 0x2e
 800176e:	6982      	ldr	r2, [r0, #24]
 8001770:	2a20      	cmp	r2, #32
 8001772:	d015      	beq.n	80017a0 <HAL_UART_IRQHandler+0x150>
 8001774:	68da      	ldr	r2, [r3, #12]
 8001776:	f422 7280 	bic.w	r2, r2, #256	; 0x100
 800177a:	60da      	str	r2, [r3, #12]
 800177c:	695a      	ldr	r2, [r3, #20]
 800177e:	f022 0201 	bic.w	r2, r2, #1
 8001782:	615a      	str	r2, [r3, #20]
 8001784:	695a      	ldr	r2, [r3, #20]
 8001786:	f022 0240 	bic.w	r2, r2, #64	; 0x40
 800178a:	615a      	str	r2, [r3, #20]
 800178c:	2220      	movs	r2, #32
 800178e:	f884 203e 	strb.w	r2, [r4, #62]	; 0x3e
 8001792:	6321      	str	r1, [r4, #48]	; 0x30
 8001794:	68da      	ldr	r2, [r3, #12]
 8001796:	f022 0210 	bic.w	r2, r2, #16
 800179a:	60da      	str	r2, [r3, #12]
 800179c:	f7ff f84e 	bl	800083c <HAL_DMA_Abort>
 80017a0:	8de3      	ldrh	r3, [r4, #46]	; 0x2e
 80017a2:	8da1      	ldrh	r1, [r4, #44]	; 0x2c
 80017a4:	1ac9      	subs	r1, r1, r3
 80017a6:	b289      	uxth	r1, r1
 80017a8:	4620      	mov	r0, r4
 80017aa:	f7ff ff03 	bl	80015b4 <HAL_UARTEx_RxEventCallback>
 80017ae:	e7bc      	b.n	800172a <HAL_UART_IRQHandler+0xda>
 80017b0:	8de1      	ldrh	r1, [r4, #46]	; 0x2e
 80017b2:	b288      	uxth	r0, r1
 80017b4:	8de1      	ldrh	r1, [r4, #46]	; 0x2e
 80017b6:	b289      	uxth	r1, r1
 80017b8:	2900      	cmp	r1, #0
 80017ba:	d0b6      	beq.n	800172a <HAL_UART_IRQHandler+0xda>
 80017bc:	8da1      	ldrh	r1, [r4, #44]	; 0x2c
 80017be:	1a09      	subs	r1, r1, r0
 80017c0:	b289      	uxth	r1, r1
 80017c2:	2900      	cmp	r1, #0
 80017c4:	d0b1      	beq.n	800172a <HAL_UART_IRQHandler+0xda>
 80017c6:	68d8      	ldr	r0, [r3, #12]
 80017c8:	f420 7090 	bic.w	r0, r0, #288	; 0x120
 80017cc:	60d8      	str	r0, [r3, #12]
 80017ce:	6958      	ldr	r0, [r3, #20]
 80017d0:	f020 0001 	bic.w	r0, r0, #1
 80017d4:	6158      	str	r0, [r3, #20]
 80017d6:	2020      	movs	r0, #32
 80017d8:	f884 003e 	strb.w	r0, [r4, #62]	; 0x3e
 80017dc:	6322      	str	r2, [r4, #48]	; 0x30
 80017de:	68da      	ldr	r2, [r3, #12]
 80017e0:	f022 0210 	bic.w	r2, r2, #16
 80017e4:	60da      	str	r2, [r3, #12]
 80017e6:	e7df      	b.n	80017a8 <HAL_UART_IRQHandler+0x158>
 80017e8:	0610      	lsls	r0, r2, #24
 80017ea:	d526      	bpl.n	800183a <HAL_UART_IRQHandler+0x1ea>
 80017ec:	060d      	lsls	r5, r1, #24
 80017ee:	d524      	bpl.n	800183a <HAL_UART_IRQHandler+0x1ea>
 80017f0:	f894 203d 	ldrb.w	r2, [r4, #61]	; 0x3d
 80017f4:	2a21      	cmp	r2, #33	; 0x21
 80017f6:	d198      	bne.n	800172a <HAL_UART_IRQHandler+0xda>
 80017f8:	68a1      	ldr	r1, [r4, #8]
 80017fa:	6a22      	ldr	r2, [r4, #32]
 80017fc:	f5b1 5f80 	cmp.w	r1, #4096	; 0x1000
 8001800:	d116      	bne.n	8001830 <HAL_UART_IRQHandler+0x1e0>
 8001802:	6921      	ldr	r1, [r4, #16]
 8001804:	b9a1      	cbnz	r1, 8001830 <HAL_UART_IRQHandler+0x1e0>
 8001806:	f832 1b02 	ldrh.w	r1, [r2], #2
 800180a:	f3c1 0108 	ubfx	r1, r1, #0, #9
 800180e:	6059      	str	r1, [r3, #4]
 8001810:	6222      	str	r2, [r4, #32]
 8001812:	8ce2      	ldrh	r2, [r4, #38]	; 0x26
 8001814:	3a01      	subs	r2, #1
 8001816:	b292      	uxth	r2, r2
 8001818:	84e2      	strh	r2, [r4, #38]	; 0x26
 800181a:	2a00      	cmp	r2, #0
 800181c:	d185      	bne.n	800172a <HAL_UART_IRQHandler+0xda>
 800181e:	68da      	ldr	r2, [r3, #12]
 8001820:	f022 0280 	bic.w	r2, r2, #128	; 0x80
 8001824:	60da      	str	r2, [r3, #12]
 8001826:	68da      	ldr	r2, [r3, #12]
 8001828:	f042 0240 	orr.w	r2, r2, #64	; 0x40
 800182c:	60da      	str	r2, [r3, #12]
 800182e:	e77c      	b.n	800172a <HAL_UART_IRQHandler+0xda>
 8001830:	1c51      	adds	r1, r2, #1
 8001832:	6221      	str	r1, [r4, #32]
 8001834:	7812      	ldrb	r2, [r2, #0]
 8001836:	605a      	str	r2, [r3, #4]
 8001838:	e7eb      	b.n	8001812 <HAL_UART_IRQHandler+0x1c2>
 800183a:	0650      	lsls	r0, r2, #25
 800183c:	f57f af75 	bpl.w	800172a <HAL_UART_IRQHandler+0xda>
 8001840:	064a      	lsls	r2, r1, #25
 8001842:	f57f af72 	bpl.w	800172a <HAL_UART_IRQHandler+0xda>
 8001846:	68da      	ldr	r2, [r3, #12]
 8001848:	4620      	mov	r0, r4
 800184a:	f022 0240 	bic.w	r2, r2, #64	; 0x40
 800184e:	60da      	str	r2, [r3, #12]
 8001850:	2320      	movs	r3, #32
 8001852:	f884 303d 	strb.w	r3, [r4, #61]	; 0x3d
 8001856:	f7ff fea2 	bl	800159e <HAL_UART_TxCpltCallback>
 800185a:	e766      	b.n	800172a <HAL_UART_IRQHandler+0xda>
 800185c:	080015a5 	.word	0x080015a5

08001860 <osKernelStart>:
 8001860:	b508      	push	{r3, lr}
 8001862:	f000 fe41 	bl	80024e8 <vTaskStartScheduler>
 8001866:	2000      	movs	r0, #0
 8001868:	bd08      	pop	{r3, pc}

0800186a <osThreadCreate>:
 800186a:	b570      	push	{r4, r5, r6, lr}
 800186c:	4605      	mov	r5, r0
 800186e:	6946      	ldr	r6, [r0, #20]
 8001870:	460b      	mov	r3, r1
 8001872:	e9d0 1000 	ldrd	r1, r0, [r0]
 8001876:	692a      	ldr	r2, [r5, #16]
 8001878:	f9b5 4008 	ldrsh.w	r4, [r5, #8]
 800187c:	b086      	sub	sp, #24
 800187e:	b176      	cbz	r6, 800189e <osThreadCreate+0x34>
 8001880:	69ad      	ldr	r5, [r5, #24]
 8001882:	b165      	cbz	r5, 800189e <osThreadCreate+0x34>
 8001884:	2c84      	cmp	r4, #132	; 0x84
 8001886:	bf0c      	ite	eq
 8001888:	2400      	moveq	r4, #0
 800188a:	3403      	addne	r4, #3
 800188c:	e9cd 6501 	strd	r6, r5, [sp, #4]
 8001890:	9400      	str	r4, [sp, #0]
 8001892:	f000 fdc4 	bl	800241e <xTaskCreateStatic>
 8001896:	9005      	str	r0, [sp, #20]
 8001898:	9805      	ldr	r0, [sp, #20]
 800189a:	b006      	add	sp, #24
 800189c:	bd70      	pop	{r4, r5, r6, pc}
 800189e:	2c84      	cmp	r4, #132	; 0x84
 80018a0:	bf0c      	ite	eq
 80018a2:	2400      	moveq	r4, #0
 80018a4:	3403      	addne	r4, #3
 80018a6:	ad05      	add	r5, sp, #20
 80018a8:	e9cd 4500 	strd	r4, r5, [sp]
 80018ac:	b292      	uxth	r2, r2
 80018ae:	f000 fded 	bl	800248c <xTaskCreate>
 80018b2:	2801      	cmp	r0, #1
 80018b4:	d0f0      	beq.n	8001898 <osThreadCreate+0x2e>
 80018b6:	2000      	movs	r0, #0
 80018b8:	e7ef      	b.n	800189a <osThreadCreate+0x30>

080018ba <osDelay>:
 80018ba:	b508      	push	{r3, lr}
 80018bc:	2801      	cmp	r0, #1
 80018be:	bf38      	it	cc
 80018c0:	2001      	movcc	r0, #1
 80018c2:	f000 ff59 	bl	8002778 <vTaskDelay>
 80018c6:	2000      	movs	r0, #0
 80018c8:	bd08      	pop	{r3, pc}

080018ca <osMutexRelease>:
 80018ca:	b513      	push	{r0, r1, r4, lr}
 80018cc:	2400      	movs	r4, #0
 80018ce:	9401      	str	r4, [sp, #4]
 80018d0:	f3ef 8305 	mrs	r3, IPSR
 80018d4:	b1a3      	cbz	r3, 8001900 <osMutexRelease+0x36>
 80018d6:	a901      	add	r1, sp, #4
 80018d8:	f000 fad9 	bl	8001e8e <xQueueGiveFromISR>
 80018dc:	2801      	cmp	r0, #1
 80018de:	d115      	bne.n	800190c <osMutexRelease+0x42>
 80018e0:	9b01      	ldr	r3, [sp, #4]
 80018e2:	b913      	cbnz	r3, 80018ea <osMutexRelease+0x20>
 80018e4:	2000      	movs	r0, #0
 80018e6:	b002      	add	sp, #8
 80018e8:	bd10      	pop	{r4, pc}
 80018ea:	f04f 23e0 	mov.w	r3, #3758153728	; 0xe000e000
 80018ee:	f04f 5280 	mov.w	r2, #268435456	; 0x10000000
 80018f2:	f8c3 2d04 	str.w	r2, [r3, #3332]	; 0xd04
 80018f6:	f3bf 8f4f 	dsb	sy
 80018fa:	f3bf 8f6f 	isb	sy
 80018fe:	e7f1      	b.n	80018e4 <osMutexRelease+0x1a>
 8001900:	461a      	mov	r2, r3
 8001902:	4619      	mov	r1, r3
 8001904:	f000 fa10 	bl	8001d28 <xQueueGenericSend>
 8001908:	2801      	cmp	r0, #1
 800190a:	d0eb      	beq.n	80018e4 <osMutexRelease+0x1a>
 800190c:	20ff      	movs	r0, #255	; 0xff
 800190e:	e7ea      	b.n	80018e6 <osMutexRelease+0x1c>

08001910 <osSemaphoreCreate>:
 8001910:	4603      	mov	r3, r0
 8001912:	b537      	push	{r0, r1, r2, r4, r5, lr}
 8001914:	685d      	ldr	r5, [r3, #4]
 8001916:	4608      	mov	r0, r1
 8001918:	b195      	cbz	r5, 8001940 <osSemaphoreCreate+0x30>
 800191a:	2901      	cmp	r1, #1
 800191c:	d10a      	bne.n	8001934 <osSemaphoreCreate+0x24>
 800191e:	2303      	movs	r3, #3
 8001920:	2200      	movs	r2, #0
 8001922:	9300      	str	r3, [sp, #0]
 8001924:	4611      	mov	r1, r2
 8001926:	462b      	mov	r3, r5
 8001928:	f000 f951 	bl	8001bce <xQueueGenericCreateStatic>
 800192c:	4604      	mov	r4, r0
 800192e:	4620      	mov	r0, r4
 8001930:	b003      	add	sp, #12
 8001932:	bd30      	pop	{r4, r5, pc}
 8001934:	462a      	mov	r2, r5
 8001936:	b003      	add	sp, #12
 8001938:	e8bd 4030 	ldmia.w	sp!, {r4, r5, lr}
 800193c:	f000 b9b4 	b.w	8001ca8 <xQueueCreateCountingSemaphoreStatic>
 8001940:	2901      	cmp	r1, #1
 8001942:	d10c      	bne.n	800195e <osSemaphoreCreate+0x4e>
 8001944:	2203      	movs	r2, #3
 8001946:	4629      	mov	r1, r5
 8001948:	f000 f98a 	bl	8001c60 <xQueueGenericCreate>
 800194c:	4604      	mov	r4, r0
 800194e:	2800      	cmp	r0, #0
 8001950:	d0ed      	beq.n	800192e <osSemaphoreCreate+0x1e>
 8001952:	462b      	mov	r3, r5
 8001954:	462a      	mov	r2, r5
 8001956:	4629      	mov	r1, r5
 8001958:	f000 f9e6 	bl	8001d28 <xQueueGenericSend>
 800195c:	e7e7      	b.n	800192e <osSemaphoreCreate+0x1e>
 800195e:	b003      	add	sp, #12
 8001960:	e8bd 4030 	ldmia.w	sp!, {r4, r5, lr}
 8001964:	f000 b9c2 	b.w	8001cec <xQueueCreateCountingSemaphore>

08001968 <osSemaphoreWait>:
 8001968:	b513      	push	{r0, r1, r4, lr}
 800196a:	2400      	movs	r4, #0
 800196c:	9401      	str	r4, [sp, #4]
 800196e:	b1f0      	cbz	r0, 80019ae <osSemaphoreWait+0x46>
 8001970:	f3ef 8305 	mrs	r3, IPSR
 8001974:	b1ab      	cbz	r3, 80019a2 <osSemaphoreWait+0x3a>
 8001976:	4621      	mov	r1, r4
 8001978:	aa01      	add	r2, sp, #4
 800197a:	f000 fb9f 	bl	80020bc <xQueueReceiveFromISR>
 800197e:	2801      	cmp	r0, #1
 8001980:	d113      	bne.n	80019aa <osSemaphoreWait+0x42>
 8001982:	9b01      	ldr	r3, [sp, #4]
 8001984:	b913      	cbnz	r3, 800198c <osSemaphoreWait+0x24>
 8001986:	2000      	movs	r0, #0
 8001988:	b002      	add	sp, #8
 800198a:	bd10      	pop	{r4, pc}
 800198c:	f04f 23e0 	mov.w	r3, #3758153728	; 0xe000e000
 8001990:	f04f 5280 	mov.w	r2, #268435456	; 0x10000000
 8001994:	f8c3 2d04 	str.w	r2, [r3, #3332]	; 0xd04
 8001998:	f3bf 8f4f 	dsb	sy
 800199c:	f3bf 8f6f 	isb	sy
 80019a0:	e7f1      	b.n	8001986 <osSemaphoreWait+0x1e>
 80019a2:	f000 fac8 	bl	8001f36 <xQueueSemaphoreTake>
 80019a6:	2801      	cmp	r0, #1
 80019a8:	d0ed      	beq.n	8001986 <osSemaphoreWait+0x1e>
 80019aa:	20ff      	movs	r0, #255	; 0xff
 80019ac:	e7ec      	b.n	8001988 <osSemaphoreWait+0x20>
 80019ae:	2080      	movs	r0, #128	; 0x80
 80019b0:	e7ea      	b.n	8001988 <osSemaphoreWait+0x20>

080019b2 <osSemaphoreRelease>:
 80019b2:	f7ff bf8a 	b.w	80018ca <osMutexRelease>

080019b6 <vListInitialise>:
 80019b6:	f04f 32ff 	mov.w	r2, #4294967295
 80019ba:	f100 0308 	add.w	r3, r0, #8
 80019be:	e9c0 2302 	strd	r2, r3, [r0, #8]
 80019c2:	6043      	str	r3, [r0, #4]
 80019c4:	6103      	str	r3, [r0, #16]
 80019c6:	2300      	movs	r3, #0
 80019c8:	6003      	str	r3, [r0, #0]
 80019ca:	4770      	bx	lr

080019cc <vListInitialiseItem>:
 80019cc:	2300      	movs	r3, #0
 80019ce:	6103      	str	r3, [r0, #16]
 80019d0:	4770      	bx	lr

080019d2 <vListInsertEnd>:
 80019d2:	6843      	ldr	r3, [r0, #4]
 80019d4:	689a      	ldr	r2, [r3, #8]
 80019d6:	604b      	str	r3, [r1, #4]
 80019d8:	608a      	str	r2, [r1, #8]
 80019da:	689a      	ldr	r2, [r3, #8]
 80019dc:	6051      	str	r1, [r2, #4]
 80019de:	6099      	str	r1, [r3, #8]
 80019e0:	6803      	ldr	r3, [r0, #0]
 80019e2:	6108      	str	r0, [r1, #16]
 80019e4:	3301      	adds	r3, #1
 80019e6:	6003      	str	r3, [r0, #0]
 80019e8:	4770      	bx	lr

080019ea <vListInsert>:
 80019ea:	b530      	push	{r4, r5, lr}
 80019ec:	680c      	ldr	r4, [r1, #0]
 80019ee:	1c63      	adds	r3, r4, #1
 80019f0:	d10a      	bne.n	8001a08 <vListInsert+0x1e>
 80019f2:	6903      	ldr	r3, [r0, #16]
 80019f4:	685a      	ldr	r2, [r3, #4]
 80019f6:	604a      	str	r2, [r1, #4]
 80019f8:	6091      	str	r1, [r2, #8]
 80019fa:	608b      	str	r3, [r1, #8]
 80019fc:	6059      	str	r1, [r3, #4]
 80019fe:	6803      	ldr	r3, [r0, #0]
 8001a00:	6108      	str	r0, [r1, #16]
 8001a02:	3301      	adds	r3, #1
 8001a04:	6003      	str	r3, [r0, #0]
 8001a06:	bd30      	pop	{r4, r5, pc}
 8001a08:	f100 0208 	add.w	r2, r0, #8
 8001a0c:	4613      	mov	r3, r2
 8001a0e:	6852      	ldr	r2, [r2, #4]
 8001a10:	6815      	ldr	r5, [r2, #0]
 8001a12:	42a5      	cmp	r5, r4
 8001a14:	d9fa      	bls.n	8001a0c <vListInsert+0x22>
 8001a16:	e7ed      	b.n	80019f4 <vListInsert+0xa>

08001a18 <uxListRemove>:
 8001a18:	6903      	ldr	r3, [r0, #16]
 8001a1a:	e9d0 1201 	ldrd	r1, r2, [r0, #4]
 8001a1e:	608a      	str	r2, [r1, #8]
 8001a20:	6051      	str	r1, [r2, #4]
 8001a22:	6859      	ldr	r1, [r3, #4]
 8001a24:	4281      	cmp	r1, r0
 8001a26:	bf08      	it	eq
 8001a28:	605a      	streq	r2, [r3, #4]
 8001a2a:	2200      	movs	r2, #0
 8001a2c:	6102      	str	r2, [r0, #16]
 8001a2e:	681a      	ldr	r2, [r3, #0]
 8001a30:	3a01      	subs	r2, #1
 8001a32:	601a      	str	r2, [r3, #0]
 8001a34:	6818      	ldr	r0, [r3, #0]
 8001a36:	4770      	bx	lr

08001a38 <prvIsQueueEmpty>:
 8001a38:	b510      	push	{r4, lr}
 8001a3a:	4604      	mov	r4, r0
 8001a3c:	f001 f912 	bl	8002c64 <vPortEnterCritical>
 8001a40:	6ba4      	ldr	r4, [r4, #56]	; 0x38
 8001a42:	f001 f92f 	bl	8002ca4 <vPortExitCritical>
 8001a46:	fab4 f084 	clz	r0, r4
 8001a4a:	0940      	lsrs	r0, r0, #5
 8001a4c:	bd10      	pop	{r4, pc}

08001a4e <prvCopyDataToQueue>:
 8001a4e:	b5f8      	push	{r3, r4, r5, r6, r7, lr}
 8001a50:	4615      	mov	r5, r2
 8001a52:	6c02      	ldr	r2, [r0, #64]	; 0x40
 8001a54:	4604      	mov	r4, r0
 8001a56:	6b86      	ldr	r6, [r0, #56]	; 0x38
 8001a58:	b952      	cbnz	r2, 8001a70 <prvCopyDataToQueue+0x22>
 8001a5a:	6807      	ldr	r7, [r0, #0]
 8001a5c:	bb47      	cbnz	r7, 8001ab0 <prvCopyDataToQueue+0x62>
 8001a5e:	6840      	ldr	r0, [r0, #4]
 8001a60:	f000 fff4 	bl	8002a4c <xTaskPriorityDisinherit>
 8001a64:	4605      	mov	r5, r0
 8001a66:	6067      	str	r7, [r4, #4]
 8001a68:	3601      	adds	r6, #1
 8001a6a:	4628      	mov	r0, r5
 8001a6c:	63a6      	str	r6, [r4, #56]	; 0x38
 8001a6e:	bdf8      	pop	{r3, r4, r5, r6, r7, pc}
 8001a70:	b965      	cbnz	r5, 8001a8c <prvCopyDataToQueue+0x3e>
 8001a72:	6880      	ldr	r0, [r0, #8]
 8001a74:	f001 fb10 	bl	8003098 <memcpy>
 8001a78:	68a3      	ldr	r3, [r4, #8]
 8001a7a:	6c22      	ldr	r2, [r4, #64]	; 0x40
 8001a7c:	4413      	add	r3, r2
 8001a7e:	6862      	ldr	r2, [r4, #4]
 8001a80:	60a3      	str	r3, [r4, #8]
 8001a82:	4293      	cmp	r3, r2
 8001a84:	d3f0      	bcc.n	8001a68 <prvCopyDataToQueue+0x1a>
 8001a86:	6823      	ldr	r3, [r4, #0]
 8001a88:	60a3      	str	r3, [r4, #8]
 8001a8a:	e7ed      	b.n	8001a68 <prvCopyDataToQueue+0x1a>
 8001a8c:	68c0      	ldr	r0, [r0, #12]
 8001a8e:	f001 fb03 	bl	8003098 <memcpy>
 8001a92:	6c22      	ldr	r2, [r4, #64]	; 0x40
 8001a94:	68e3      	ldr	r3, [r4, #12]
 8001a96:	4251      	negs	r1, r2
 8001a98:	1a9b      	subs	r3, r3, r2
 8001a9a:	6822      	ldr	r2, [r4, #0]
 8001a9c:	60e3      	str	r3, [r4, #12]
 8001a9e:	4293      	cmp	r3, r2
 8001aa0:	bf3e      	ittt	cc
 8001aa2:	6863      	ldrcc	r3, [r4, #4]
 8001aa4:	185b      	addcc	r3, r3, r1
 8001aa6:	60e3      	strcc	r3, [r4, #12]
 8001aa8:	2d02      	cmp	r5, #2
 8001aaa:	d101      	bne.n	8001ab0 <prvCopyDataToQueue+0x62>
 8001aac:	b116      	cbz	r6, 8001ab4 <prvCopyDataToQueue+0x66>
 8001aae:	3e01      	subs	r6, #1
 8001ab0:	2500      	movs	r5, #0
 8001ab2:	e7d9      	b.n	8001a68 <prvCopyDataToQueue+0x1a>
 8001ab4:	4635      	mov	r5, r6
 8001ab6:	e7d7      	b.n	8001a68 <prvCopyDataToQueue+0x1a>

08001ab8 <prvCopyDataFromQueue>:
 8001ab8:	4603      	mov	r3, r0
 8001aba:	6c1a      	ldr	r2, [r3, #64]	; 0x40
 8001abc:	4608      	mov	r0, r1
 8001abe:	b410      	push	{r4}
 8001ac0:	b162      	cbz	r2, 8001adc <prvCopyDataFromQueue+0x24>
 8001ac2:	68dc      	ldr	r4, [r3, #12]
 8001ac4:	6859      	ldr	r1, [r3, #4]
 8001ac6:	4414      	add	r4, r2
 8001ac8:	428c      	cmp	r4, r1
 8001aca:	bf28      	it	cs
 8001acc:	6819      	ldrcs	r1, [r3, #0]
 8001ace:	60dc      	str	r4, [r3, #12]
 8001ad0:	bf28      	it	cs
 8001ad2:	60d9      	strcs	r1, [r3, #12]
 8001ad4:	68d9      	ldr	r1, [r3, #12]
 8001ad6:	bc10      	pop	{r4}
 8001ad8:	f001 bade 	b.w	8003098 <memcpy>
 8001adc:	bc10      	pop	{r4}
 8001ade:	4770      	bx	lr

08001ae0 <prvUnlockQueue>:
 8001ae0:	b570      	push	{r4, r5, r6, lr}
 8001ae2:	4604      	mov	r4, r0
 8001ae4:	f001 f8be 	bl	8002c64 <vPortEnterCritical>
 8001ae8:	f894 5045 	ldrb.w	r5, [r4, #69]	; 0x45
 8001aec:	f104 0624 	add.w	r6, r4, #36	; 0x24
 8001af0:	b26d      	sxtb	r5, r5
 8001af2:	2d00      	cmp	r5, #0
 8001af4:	dc14      	bgt.n	8001b20 <prvUnlockQueue+0x40>
 8001af6:	23ff      	movs	r3, #255	; 0xff
 8001af8:	f884 3045 	strb.w	r3, [r4, #69]	; 0x45
 8001afc:	f001 f8d2 	bl	8002ca4 <vPortExitCritical>
 8001b00:	f001 f8b0 	bl	8002c64 <vPortEnterCritical>
 8001b04:	f894 5044 	ldrb.w	r5, [r4, #68]	; 0x44
 8001b08:	f104 0610 	add.w	r6, r4, #16
 8001b0c:	b26d      	sxtb	r5, r5
 8001b0e:	2d00      	cmp	r5, #0
 8001b10:	dc12      	bgt.n	8001b38 <prvUnlockQueue+0x58>
 8001b12:	23ff      	movs	r3, #255	; 0xff
 8001b14:	f884 3044 	strb.w	r3, [r4, #68]	; 0x44
 8001b18:	e8bd 4070 	ldmia.w	sp!, {r4, r5, r6, lr}
 8001b1c:	f001 b8c2 	b.w	8002ca4 <vPortExitCritical>
 8001b20:	6a63      	ldr	r3, [r4, #36]	; 0x24
 8001b22:	2b00      	cmp	r3, #0
 8001b24:	d0e7      	beq.n	8001af6 <prvUnlockQueue+0x16>
 8001b26:	4630      	mov	r0, r6
 8001b28:	f000 fe9e 	bl	8002868 <xTaskRemoveFromEventList>
 8001b2c:	b108      	cbz	r0, 8001b32 <prvUnlockQueue+0x52>
 8001b2e:	f000 ff25 	bl	800297c <vTaskMissedYield>
 8001b32:	3d01      	subs	r5, #1
 8001b34:	b26d      	sxtb	r5, r5
 8001b36:	e7dc      	b.n	8001af2 <prvUnlockQueue+0x12>
 8001b38:	6923      	ldr	r3, [r4, #16]
 8001b3a:	2b00      	cmp	r3, #0
 8001b3c:	d0e9      	beq.n	8001b12 <prvUnlockQueue+0x32>
 8001b3e:	4630      	mov	r0, r6
 8001b40:	f000 fe92 	bl	8002868 <xTaskRemoveFromEventList>
 8001b44:	b108      	cbz	r0, 8001b4a <prvUnlockQueue+0x6a>
 8001b46:	f000 ff19 	bl	800297c <vTaskMissedYield>
 8001b4a:	3d01      	subs	r5, #1
 8001b4c:	b26d      	sxtb	r5, r5
 8001b4e:	e7de      	b.n	8001b0e <prvUnlockQueue+0x2e>

08001b50 <xQueueGenericReset>:
 8001b50:	b538      	push	{r3, r4, r5, lr}
 8001b52:	460d      	mov	r5, r1
 8001b54:	4604      	mov	r4, r0
 8001b56:	b940      	cbnz	r0, 8001b6a <xQueueGenericReset+0x1a>
 8001b58:	f04f 0350 	mov.w	r3, #80	; 0x50
 8001b5c:	f383 8811 	msr	BASEPRI, r3
 8001b60:	f3bf 8f6f 	isb	sy
 8001b64:	f3bf 8f4f 	dsb	sy
 8001b68:	e7fe      	b.n	8001b68 <xQueueGenericReset+0x18>
 8001b6a:	f001 f87b 	bl	8002c64 <vPortEnterCritical>
 8001b6e:	e9d4 310f 	ldrd	r3, r1, [r4, #60]	; 0x3c
 8001b72:	434b      	muls	r3, r1
 8001b74:	6822      	ldr	r2, [r4, #0]
 8001b76:	18d0      	adds	r0, r2, r3
 8001b78:	1a5b      	subs	r3, r3, r1
 8001b7a:	4413      	add	r3, r2
 8001b7c:	6060      	str	r0, [r4, #4]
 8001b7e:	60e3      	str	r3, [r4, #12]
 8001b80:	2000      	movs	r0, #0
 8001b82:	23ff      	movs	r3, #255	; 0xff
 8001b84:	63a0      	str	r0, [r4, #56]	; 0x38
 8001b86:	60a2      	str	r2, [r4, #8]
 8001b88:	f884 3044 	strb.w	r3, [r4, #68]	; 0x44
 8001b8c:	f884 3045 	strb.w	r3, [r4, #69]	; 0x45
 8001b90:	b9a5      	cbnz	r5, 8001bbc <xQueueGenericReset+0x6c>
 8001b92:	6923      	ldr	r3, [r4, #16]
 8001b94:	b173      	cbz	r3, 8001bb4 <xQueueGenericReset+0x64>
 8001b96:	f104 0010 	add.w	r0, r4, #16
 8001b9a:	f000 fe65 	bl	8002868 <xTaskRemoveFromEventList>
 8001b9e:	b148      	cbz	r0, 8001bb4 <xQueueGenericReset+0x64>
 8001ba0:	f04f 23e0 	mov.w	r3, #3758153728	; 0xe000e000
 8001ba4:	f04f 5280 	mov.w	r2, #268435456	; 0x10000000
 8001ba8:	f8c3 2d04 	str.w	r2, [r3, #3332]	; 0xd04
 8001bac:	f3bf 8f4f 	dsb	sy
 8001bb0:	f3bf 8f6f 	isb	sy
 8001bb4:	f001 f876 	bl	8002ca4 <vPortExitCritical>
 8001bb8:	2001      	movs	r0, #1
 8001bba:	bd38      	pop	{r3, r4, r5, pc}
 8001bbc:	f104 0010 	add.w	r0, r4, #16
 8001bc0:	f7ff fef9 	bl	80019b6 <vListInitialise>
 8001bc4:	f104 0024 	add.w	r0, r4, #36	; 0x24
 8001bc8:	f7ff fef5 	bl	80019b6 <vListInitialise>
 8001bcc:	e7f2      	b.n	8001bb4 <xQueueGenericReset+0x64>

08001bce <xQueueGenericCreateStatic>:
 8001bce:	b537      	push	{r0, r1, r2, r4, r5, lr}
 8001bd0:	460d      	mov	r5, r1
 8001bd2:	461c      	mov	r4, r3
 8001bd4:	b940      	cbnz	r0, 8001be8 <xQueueGenericCreateStatic+0x1a>
 8001bd6:	f04f 0350 	mov.w	r3, #80	; 0x50
 8001bda:	f383 8811 	msr	BASEPRI, r3
 8001bde:	f3bf 8f6f 	isb	sy
 8001be2:	f3bf 8f4f 	dsb	sy
 8001be6:	e7fe      	b.n	8001be6 <xQueueGenericCreateStatic+0x18>
 8001be8:	b943      	cbnz	r3, 8001bfc <xQueueGenericCreateStatic+0x2e>
 8001bea:	f04f 0350 	mov.w	r3, #80	; 0x50
 8001bee:	f383 8811 	msr	BASEPRI, r3
 8001bf2:	f3bf 8f6f 	isb	sy
 8001bf6:	f3bf 8f4f 	dsb	sy
 8001bfa:	e7fe      	b.n	8001bfa <xQueueGenericCreateStatic+0x2c>
 8001bfc:	b14a      	cbz	r2, 8001c12 <xQueueGenericCreateStatic+0x44>
 8001bfe:	b991      	cbnz	r1, 8001c26 <xQueueGenericCreateStatic+0x58>
 8001c00:	f04f 0350 	mov.w	r3, #80	; 0x50
 8001c04:	f383 8811 	msr	BASEPRI, r3
 8001c08:	f3bf 8f6f 	isb	sy
 8001c0c:	f3bf 8f4f 	dsb	sy
 8001c10:	e7fe      	b.n	8001c10 <xQueueGenericCreateStatic+0x42>
 8001c12:	b141      	cbz	r1, 8001c26 <xQueueGenericCreateStatic+0x58>
 8001c14:	f04f 0350 	mov.w	r3, #80	; 0x50
 8001c18:	f383 8811 	msr	BASEPRI, r3
 8001c1c:	f3bf 8f6f 	isb	sy
 8001c20:	f3bf 8f4f 	dsb	sy
 8001c24:	e7fe      	b.n	8001c24 <xQueueGenericCreateStatic+0x56>
 8001c26:	2348      	movs	r3, #72	; 0x48
 8001c28:	9301      	str	r3, [sp, #4]
 8001c2a:	9b01      	ldr	r3, [sp, #4]
 8001c2c:	2b48      	cmp	r3, #72	; 0x48
 8001c2e:	d008      	beq.n	8001c42 <xQueueGenericCreateStatic+0x74>
 8001c30:	f04f 0350 	mov.w	r3, #80	; 0x50
 8001c34:	f383 8811 	msr	BASEPRI, r3
 8001c38:	f3bf 8f6f 	isb	sy
 8001c3c:	f3bf 8f4f 	dsb	sy
 8001c40:	e7fe      	b.n	8001c40 <xQueueGenericCreateStatic+0x72>
 8001c42:	2101      	movs	r1, #1
 8001c44:	2d00      	cmp	r5, #0
 8001c46:	bf08      	it	eq
 8001c48:	4622      	moveq	r2, r4
 8001c4a:	e9c4 050f 	strd	r0, r5, [r4, #60]	; 0x3c
 8001c4e:	f884 1046 	strb.w	r1, [r4, #70]	; 0x46
 8001c52:	4620      	mov	r0, r4
 8001c54:	6022      	str	r2, [r4, #0]
 8001c56:	f7ff ff7b 	bl	8001b50 <xQueueGenericReset>
 8001c5a:	4620      	mov	r0, r4
 8001c5c:	b003      	add	sp, #12
 8001c5e:	bd30      	pop	{r4, r5, pc}

08001c60 <xQueueGenericCreate>:
 8001c60:	b570      	push	{r4, r5, r6, lr}
 8001c62:	460d      	mov	r5, r1
 8001c64:	4606      	mov	r6, r0
 8001c66:	b940      	cbnz	r0, 8001c7a <xQueueGenericCreate+0x1a>
 8001c68:	f04f 0350 	mov.w	r3, #80	; 0x50
 8001c6c:	f383 8811 	msr	BASEPRI, r3
 8001c70:	f3bf 8f6f 	isb	sy
 8001c74:	f3bf 8f4f 	dsb	sy
 8001c78:	e7fe      	b.n	8001c78 <xQueueGenericCreate+0x18>
 8001c7a:	4348      	muls	r0, r1
 8001c7c:	3048      	adds	r0, #72	; 0x48
 8001c7e:	f001 f91f 	bl	8002ec0 <pvPortMalloc>
 8001c82:	4604      	mov	r4, r0
 8001c84:	b160      	cbz	r0, 8001ca0 <xQueueGenericCreate+0x40>
 8001c86:	2300      	movs	r3, #0
 8001c88:	f880 3046 	strb.w	r3, [r0, #70]	; 0x46
 8001c8c:	b155      	cbz	r5, 8001ca4 <xQueueGenericCreate+0x44>
 8001c8e:	f100 0348 	add.w	r3, r0, #72	; 0x48
 8001c92:	2101      	movs	r1, #1
 8001c94:	4620      	mov	r0, r4
 8001c96:	e9c4 650f 	strd	r6, r5, [r4, #60]	; 0x3c
 8001c9a:	6023      	str	r3, [r4, #0]
 8001c9c:	f7ff ff58 	bl	8001b50 <xQueueGenericReset>
 8001ca0:	4620      	mov	r0, r4
 8001ca2:	bd70      	pop	{r4, r5, r6, pc}
 8001ca4:	4603      	mov	r3, r0
 8001ca6:	e7f4      	b.n	8001c92 <xQueueGenericCreate+0x32>

08001ca8 <xQueueCreateCountingSemaphoreStatic>:
 8001ca8:	b513      	push	{r0, r1, r4, lr}
 8001caa:	4613      	mov	r3, r2
 8001cac:	460c      	mov	r4, r1
 8001cae:	b940      	cbnz	r0, 8001cc2 <xQueueCreateCountingSemaphoreStatic+0x1a>
 8001cb0:	f04f 0350 	mov.w	r3, #80	; 0x50
 8001cb4:	f383 8811 	msr	BASEPRI, r3
 8001cb8:	f3bf 8f6f 	isb	sy
 8001cbc:	f3bf 8f4f 	dsb	sy
 8001cc0:	e7fe      	b.n	8001cc0 <xQueueCreateCountingSemaphoreStatic+0x18>
 8001cc2:	4288      	cmp	r0, r1
 8001cc4:	d208      	bcs.n	8001cd8 <xQueueCreateCountingSemaphoreStatic+0x30>
 8001cc6:	f04f 0350 	mov.w	r3, #80	; 0x50
 8001cca:	f383 8811 	msr	BASEPRI, r3
 8001cce:	f3bf 8f6f 	isb	sy
 8001cd2:	f3bf 8f4f 	dsb	sy
 8001cd6:	e7fe      	b.n	8001cd6 <xQueueCreateCountingSemaphoreStatic+0x2e>
 8001cd8:	2202      	movs	r2, #2
 8001cda:	9200      	str	r2, [sp, #0]
 8001cdc:	2200      	movs	r2, #0
 8001cde:	4611      	mov	r1, r2
 8001ce0:	f7ff ff75 	bl	8001bce <xQueueGenericCreateStatic>
 8001ce4:	b100      	cbz	r0, 8001ce8 <xQueueCreateCountingSemaphoreStatic+0x40>
 8001ce6:	6384      	str	r4, [r0, #56]	; 0x38
 8001ce8:	b002      	add	sp, #8
 8001cea:	bd10      	pop	{r4, pc}

08001cec <xQueueCreateCountingSemaphore>:
 8001cec:	b510      	push	{r4, lr}
 8001cee:	460c      	mov	r4, r1
 8001cf0:	b940      	cbnz	r0, 8001d04 <xQueueCreateCountingSemaphore+0x18>
 8001cf2:	f04f 0350 	mov.w	r3, #80	; 0x50
 8001cf6:	f383 8811 	msr	BASEPRI, r3
 8001cfa:	f3bf 8f6f 	isb	sy
 8001cfe:	f3bf 8f4f 	dsb	sy
 8001d02:	e7fe      	b.n	8001d02 <xQueueCreateCountingSemaphore+0x16>
 8001d04:	4288      	cmp	r0, r1
 8001d06:	d208      	bcs.n	8001d1a <xQueueCreateCountingSemaphore+0x2e>
 8001d08:	f04f 0350 	mov.w	r3, #80	; 0x50
 8001d0c:	f383 8811 	msr	BASEPRI, r3
 8001d10:	f3bf 8f6f 	isb	sy
 8001d14:	f3bf 8f4f 	dsb	sy
 8001d18:	e7fe      	b.n	8001d18 <xQueueCreateCountingSemaphore+0x2c>
 8001d1a:	2202      	movs	r2, #2
 8001d1c:	2100      	movs	r1, #0
 8001d1e:	f7ff ff9f 	bl	8001c60 <xQueueGenericCreate>
 8001d22:	b100      	cbz	r0, 8001d26 <xQueueCreateCountingSemaphore+0x3a>
 8001d24:	6384      	str	r4, [r0, #56]	; 0x38
 8001d26:	bd10      	pop	{r4, pc}

08001d28 <xQueueGenericSend>:
 8001d28:	e92d 43f0 	stmdb	sp!, {r4, r5, r6, r7, r8, r9, lr}
 8001d2c:	b085      	sub	sp, #20
 8001d2e:	4688      	mov	r8, r1
 8001d30:	461f      	mov	r7, r3
 8001d32:	4604      	mov	r4, r0
 8001d34:	9201      	str	r2, [sp, #4]
 8001d36:	b940      	cbnz	r0, 8001d4a <xQueueGenericSend+0x22>
 8001d38:	f04f 0350 	mov.w	r3, #80	; 0x50
 8001d3c:	f383 8811 	msr	BASEPRI, r3
 8001d40:	f3bf 8f6f 	isb	sy
 8001d44:	f3bf 8f4f 	dsb	sy
 8001d48:	e7fe      	b.n	8001d48 <xQueueGenericSend+0x20>
 8001d4a:	b951      	cbnz	r1, 8001d62 <xQueueGenericSend+0x3a>
 8001d4c:	6c03      	ldr	r3, [r0, #64]	; 0x40
 8001d4e:	b143      	cbz	r3, 8001d62 <xQueueGenericSend+0x3a>
 8001d50:	f04f 0350 	mov.w	r3, #80	; 0x50
 8001d54:	f383 8811 	msr	BASEPRI, r3
 8001d58:	f3bf 8f6f 	isb	sy
 8001d5c:	f3bf 8f4f 	dsb	sy
 8001d60:	e7fe      	b.n	8001d60 <xQueueGenericSend+0x38>
 8001d62:	2f02      	cmp	r7, #2
 8001d64:	d10b      	bne.n	8001d7e <xQueueGenericSend+0x56>
 8001d66:	6be3      	ldr	r3, [r4, #60]	; 0x3c
 8001d68:	2b01      	cmp	r3, #1
 8001d6a:	d008      	beq.n	8001d7e <xQueueGenericSend+0x56>
 8001d6c:	f04f 0350 	mov.w	r3, #80	; 0x50
 8001d70:	f383 8811 	msr	BASEPRI, r3
 8001d74:	f3bf 8f6f 	isb	sy
 8001d78:	f3bf 8f4f 	dsb	sy
 8001d7c:	e7fe      	b.n	8001d7c <xQueueGenericSend+0x54>
 8001d7e:	f000 fe03 	bl	8002988 <xTaskGetSchedulerState>
 8001d82:	4606      	mov	r6, r0
 8001d84:	b950      	cbnz	r0, 8001d9c <xQueueGenericSend+0x74>
 8001d86:	9b01      	ldr	r3, [sp, #4]
 8001d88:	b14b      	cbz	r3, 8001d9e <xQueueGenericSend+0x76>
 8001d8a:	f04f 0350 	mov.w	r3, #80	; 0x50
 8001d8e:	f383 8811 	msr	BASEPRI, r3
 8001d92:	f3bf 8f6f 	isb	sy
 8001d96:	f3bf 8f4f 	dsb	sy
 8001d9a:	e7fe      	b.n	8001d9a <xQueueGenericSend+0x72>
 8001d9c:	2600      	movs	r6, #0
 8001d9e:	f04f 0900 	mov.w	r9, #0
 8001da2:	e037      	b.n	8001e14 <xQueueGenericSend+0xec>
 8001da4:	9d01      	ldr	r5, [sp, #4]
 8001da6:	b91d      	cbnz	r5, 8001db0 <xQueueGenericSend+0x88>
 8001da8:	f000 ff7c 	bl	8002ca4 <vPortExitCritical>
 8001dac:	2000      	movs	r0, #0
 8001dae:	e052      	b.n	8001e56 <xQueueGenericSend+0x12e>
 8001db0:	b916      	cbnz	r6, 8001db8 <xQueueGenericSend+0x90>
 8001db2:	a802      	add	r0, sp, #8
 8001db4:	f000 fd9a 	bl	80028ec <vTaskInternalSetTimeOutState>
 8001db8:	f000 ff74 	bl	8002ca4 <vPortExitCritical>
 8001dbc:	f000 fbcc 	bl	8002558 <vTaskSuspendAll>
 8001dc0:	f000 ff50 	bl	8002c64 <vPortEnterCritical>
 8001dc4:	f894 3044 	ldrb.w	r3, [r4, #68]	; 0x44
 8001dc8:	2bff      	cmp	r3, #255	; 0xff
 8001dca:	bf08      	it	eq
 8001dcc:	f884 9044 	strbeq.w	r9, [r4, #68]	; 0x44
 8001dd0:	f894 3045 	ldrb.w	r3, [r4, #69]	; 0x45
 8001dd4:	2bff      	cmp	r3, #255	; 0xff
 8001dd6:	bf08      	it	eq
 8001dd8:	f884 9045 	strbeq.w	r9, [r4, #69]	; 0x45
 8001ddc:	f000 ff62 	bl	8002ca4 <vPortExitCritical>
 8001de0:	a901      	add	r1, sp, #4
 8001de2:	a802      	add	r0, sp, #8
 8001de4:	f000 fd8e 	bl	8002904 <xTaskCheckForTimeOut>
 8001de8:	2800      	cmp	r0, #0
 8001dea:	d14a      	bne.n	8001e82 <xQueueGenericSend+0x15a>
 8001dec:	f000 ff3a 	bl	8002c64 <vPortEnterCritical>
 8001df0:	6ba2      	ldr	r2, [r4, #56]	; 0x38
 8001df2:	6be3      	ldr	r3, [r4, #60]	; 0x3c
 8001df4:	429a      	cmp	r2, r3
 8001df6:	d131      	bne.n	8001e5c <xQueueGenericSend+0x134>
 8001df8:	f000 ff54 	bl	8002ca4 <vPortExitCritical>
 8001dfc:	9901      	ldr	r1, [sp, #4]
 8001dfe:	f104 0010 	add.w	r0, r4, #16
 8001e02:	f000 fd17 	bl	8002834 <vTaskPlaceOnEventList>
 8001e06:	4620      	mov	r0, r4
 8001e08:	f7ff fe6a 	bl	8001ae0 <prvUnlockQueue>
 8001e0c:	f000 fc3e 	bl	800268c <xTaskResumeAll>
 8001e10:	b360      	cbz	r0, 8001e6c <xQueueGenericSend+0x144>
 8001e12:	2601      	movs	r6, #1
 8001e14:	f000 ff26 	bl	8002c64 <vPortEnterCritical>
 8001e18:	6ba2      	ldr	r2, [r4, #56]	; 0x38
 8001e1a:	6be3      	ldr	r3, [r4, #60]	; 0x3c
 8001e1c:	429a      	cmp	r2, r3
 8001e1e:	d301      	bcc.n	8001e24 <xQueueGenericSend+0xfc>
 8001e20:	2f02      	cmp	r7, #2
 8001e22:	d1bf      	bne.n	8001da4 <xQueueGenericSend+0x7c>
 8001e24:	463a      	mov	r2, r7
 8001e26:	4641      	mov	r1, r8
 8001e28:	4620      	mov	r0, r4
 8001e2a:	f7ff fe10 	bl	8001a4e <prvCopyDataToQueue>
 8001e2e:	6a63      	ldr	r3, [r4, #36]	; 0x24
 8001e30:	b11b      	cbz	r3, 8001e3a <xQueueGenericSend+0x112>
 8001e32:	f104 0024 	add.w	r0, r4, #36	; 0x24
 8001e36:	f000 fd17 	bl	8002868 <xTaskRemoveFromEventList>
 8001e3a:	b148      	cbz	r0, 8001e50 <xQueueGenericSend+0x128>
 8001e3c:	f04f 23e0 	mov.w	r3, #3758153728	; 0xe000e000
 8001e40:	f04f 5280 	mov.w	r2, #268435456	; 0x10000000
 8001e44:	f8c3 2d04 	str.w	r2, [r3, #3332]	; 0xd04
 8001e48:	f3bf 8f4f 	dsb	sy
 8001e4c:	f3bf 8f6f 	isb	sy
 8001e50:	f000 ff28 	bl	8002ca4 <vPortExitCritical>
 8001e54:	2001      	movs	r0, #1
 8001e56:	b005      	add	sp, #20
 8001e58:	e8bd 83f0 	ldmia.w	sp!, {r4, r5, r6, r7, r8, r9, pc}
 8001e5c:	f000 ff22 	bl	8002ca4 <vPortExitCritical>
 8001e60:	4620      	mov	r0, r4
 8001e62:	f7ff fe3d 	bl	8001ae0 <prvUnlockQueue>
 8001e66:	f000 fc11 	bl	800268c <xTaskResumeAll>
 8001e6a:	e7d2      	b.n	8001e12 <xQueueGenericSend+0xea>
 8001e6c:	f04f 23e0 	mov.w	r3, #3758153728	; 0xe000e000
 8001e70:	f04f 5280 	mov.w	r2, #268435456	; 0x10000000
 8001e74:	f8c3 2d04 	str.w	r2, [r3, #3332]	; 0xd04
 8001e78:	f3bf 8f4f 	dsb	sy
 8001e7c:	f3bf 8f6f 	isb	sy
 8001e80:	e7c7      	b.n	8001e12 <xQueueGenericSend+0xea>
 8001e82:	4620      	mov	r0, r4
 8001e84:	f7ff fe2c 	bl	8001ae0 <prvUnlockQueue>
 8001e88:	f000 fc00 	bl	800268c <xTaskResumeAll>
 8001e8c:	e78e      	b.n	8001dac <xQueueGenericSend+0x84>

08001e8e <xQueueGiveFromISR>:
 8001e8e:	b570      	push	{r4, r5, r6, lr}
 8001e90:	460d      	mov	r5, r1
 8001e92:	4604      	mov	r4, r0
 8001e94:	b940      	cbnz	r0, 8001ea8 <xQueueGiveFromISR+0x1a>
 8001e96:	f04f 0350 	mov.w	r3, #80	; 0x50
 8001e9a:	f383 8811 	msr	BASEPRI, r3
 8001e9e:	f3bf 8f6f 	isb	sy
 8001ea2:	f3bf 8f4f 	dsb	sy
 8001ea6:	e7fe      	b.n	8001ea6 <xQueueGiveFromISR+0x18>
 8001ea8:	6c03      	ldr	r3, [r0, #64]	; 0x40
 8001eaa:	b143      	cbz	r3, 8001ebe <xQueueGiveFromISR+0x30>
 8001eac:	f04f 0350 	mov.w	r3, #80	; 0x50
 8001eb0:	f383 8811 	msr	BASEPRI, r3
 8001eb4:	f3bf 8f6f 	isb	sy
 8001eb8:	f3bf 8f4f 	dsb	sy
 8001ebc:	e7fe      	b.n	8001ebc <xQueueGiveFromISR+0x2e>
 8001ebe:	6803      	ldr	r3, [r0, #0]
 8001ec0:	b953      	cbnz	r3, 8001ed8 <xQueueGiveFromISR+0x4a>
 8001ec2:	6843      	ldr	r3, [r0, #4]
 8001ec4:	b143      	cbz	r3, 8001ed8 <xQueueGiveFromISR+0x4a>
 8001ec6:	f04f 0350 	mov.w	r3, #80	; 0x50
 8001eca:	f383 8811 	msr	BASEPRI, r3
 8001ece:	f3bf 8f6f 	isb	sy
 8001ed2:	f3bf 8f4f 	dsb	sy
 8001ed6:	e7fe      	b.n	8001ed6 <xQueueGiveFromISR+0x48>
 8001ed8:	f000 ffa0 	bl	8002e1c <vPortValidateInterruptPriority>
 8001edc:	f3ef 8611 	mrs	r6, BASEPRI
 8001ee0:	f04f 0350 	mov.w	r3, #80	; 0x50
 8001ee4:	f383 8811 	msr	BASEPRI, r3
 8001ee8:	f3bf 8f6f 	isb	sy
 8001eec:	f3bf 8f4f 	dsb	sy
 8001ef0:	6ba2      	ldr	r2, [r4, #56]	; 0x38
 8001ef2:	6be3      	ldr	r3, [r4, #60]	; 0x3c
 8001ef4:	4293      	cmp	r3, r2
 8001ef6:	d91c      	bls.n	8001f32 <xQueueGiveFromISR+0xa4>
 8001ef8:	f894 1045 	ldrb.w	r1, [r4, #69]	; 0x45
 8001efc:	3201      	adds	r2, #1
 8001efe:	29ff      	cmp	r1, #255	; 0xff
 8001f00:	b24b      	sxtb	r3, r1
 8001f02:	63a2      	str	r2, [r4, #56]	; 0x38
 8001f04:	d110      	bne.n	8001f28 <xQueueGiveFromISR+0x9a>
 8001f06:	6a63      	ldr	r3, [r4, #36]	; 0x24
 8001f08:	b90b      	cbnz	r3, 8001f0e <xQueueGiveFromISR+0x80>
 8001f0a:	2001      	movs	r0, #1
 8001f0c:	e009      	b.n	8001f22 <xQueueGiveFromISR+0x94>
 8001f0e:	f104 0024 	add.w	r0, r4, #36	; 0x24
 8001f12:	f000 fca9 	bl	8002868 <xTaskRemoveFromEventList>
 8001f16:	2800      	cmp	r0, #0
 8001f18:	d0f7      	beq.n	8001f0a <xQueueGiveFromISR+0x7c>
 8001f1a:	2d00      	cmp	r5, #0
 8001f1c:	d0f5      	beq.n	8001f0a <xQueueGiveFromISR+0x7c>
 8001f1e:	2001      	movs	r0, #1
 8001f20:	6028      	str	r0, [r5, #0]
 8001f22:	f386 8811 	msr	BASEPRI, r6
 8001f26:	bd70      	pop	{r4, r5, r6, pc}
 8001f28:	3301      	adds	r3, #1
 8001f2a:	b25b      	sxtb	r3, r3
 8001f2c:	f884 3045 	strb.w	r3, [r4, #69]	; 0x45
 8001f30:	e7eb      	b.n	8001f0a <xQueueGiveFromISR+0x7c>
 8001f32:	2000      	movs	r0, #0
 8001f34:	e7f5      	b.n	8001f22 <xQueueGiveFromISR+0x94>

08001f36 <xQueueSemaphoreTake>:
 8001f36:	b5f0      	push	{r4, r5, r6, r7, lr}
 8001f38:	b085      	sub	sp, #20
 8001f3a:	4604      	mov	r4, r0
 8001f3c:	9101      	str	r1, [sp, #4]
 8001f3e:	b940      	cbnz	r0, 8001f52 <xQueueSemaphoreTake+0x1c>
 8001f40:	f04f 0350 	mov.w	r3, #80	; 0x50
 8001f44:	f383 8811 	msr	BASEPRI, r3
 8001f48:	f3bf 8f6f 	isb	sy
 8001f4c:	f3bf 8f4f 	dsb	sy
 8001f50:	e7fe      	b.n	8001f50 <xQueueSemaphoreTake+0x1a>
 8001f52:	6c05      	ldr	r5, [r0, #64]	; 0x40
 8001f54:	b145      	cbz	r5, 8001f68 <xQueueSemaphoreTake+0x32>
 8001f56:	f04f 0350 	mov.w	r3, #80	; 0x50
 8001f5a:	f383 8811 	msr	BASEPRI, r3
 8001f5e:	f3bf 8f6f 	isb	sy
 8001f62:	f3bf 8f4f 	dsb	sy
 8001f66:	e7fe      	b.n	8001f66 <xQueueSemaphoreTake+0x30>
 8001f68:	f000 fd0e 	bl	8002988 <xTaskGetSchedulerState>
 8001f6c:	4606      	mov	r6, r0
 8001f6e:	b950      	cbnz	r0, 8001f86 <xQueueSemaphoreTake+0x50>
 8001f70:	9b01      	ldr	r3, [sp, #4]
 8001f72:	b15b      	cbz	r3, 8001f8c <xQueueSemaphoreTake+0x56>
 8001f74:	f04f 0350 	mov.w	r3, #80	; 0x50
 8001f78:	f383 8811 	msr	BASEPRI, r3
 8001f7c:	f3bf 8f6f 	isb	sy
 8001f80:	f3bf 8f4f 	dsb	sy
 8001f84:	e7fe      	b.n	8001f84 <xQueueSemaphoreTake+0x4e>
 8001f86:	462e      	mov	r6, r5
 8001f88:	2700      	movs	r7, #0
 8001f8a:	e053      	b.n	8002034 <xQueueSemaphoreTake+0xfe>
 8001f8c:	4605      	mov	r5, r0
 8001f8e:	e7fb      	b.n	8001f88 <xQueueSemaphoreTake+0x52>
 8001f90:	9b01      	ldr	r3, [sp, #4]
 8001f92:	b963      	cbnz	r3, 8001fae <xQueueSemaphoreTake+0x78>
 8001f94:	b145      	cbz	r5, 8001fa8 <xQueueSemaphoreTake+0x72>
 8001f96:	f04f 0350 	mov.w	r3, #80	; 0x50
 8001f9a:	f383 8811 	msr	BASEPRI, r3
 8001f9e:	f3bf 8f6f 	isb	sy
 8001fa2:	f3bf 8f4f 	dsb	sy
 8001fa6:	e7fe      	b.n	8001fa6 <xQueueSemaphoreTake+0x70>
 8001fa8:	f000 fe7c 	bl	8002ca4 <vPortExitCritical>
 8001fac:	e062      	b.n	8002074 <xQueueSemaphoreTake+0x13e>
 8001fae:	b916      	cbnz	r6, 8001fb6 <xQueueSemaphoreTake+0x80>
 8001fb0:	a802      	add	r0, sp, #8
 8001fb2:	f000 fc9b 	bl	80028ec <vTaskInternalSetTimeOutState>
 8001fb6:	f000 fe75 	bl	8002ca4 <vPortExitCritical>
 8001fba:	f000 facd 	bl	8002558 <vTaskSuspendAll>
 8001fbe:	f000 fe51 	bl	8002c64 <vPortEnterCritical>
 8001fc2:	f894 3044 	ldrb.w	r3, [r4, #68]	; 0x44
 8001fc6:	2bff      	cmp	r3, #255	; 0xff
 8001fc8:	bf08      	it	eq
 8001fca:	f884 7044 	strbeq.w	r7, [r4, #68]	; 0x44
 8001fce:	f894 3045 	ldrb.w	r3, [r4, #69]	; 0x45
 8001fd2:	2bff      	cmp	r3, #255	; 0xff
 8001fd4:	bf08      	it	eq
 8001fd6:	f884 7045 	strbeq.w	r7, [r4, #69]	; 0x45
 8001fda:	f000 fe63 	bl	8002ca4 <vPortExitCritical>
 8001fde:	a901      	add	r1, sp, #4
 8001fe0:	a802      	add	r0, sp, #8
 8001fe2:	f000 fc8f 	bl	8002904 <xTaskCheckForTimeOut>
 8001fe6:	2800      	cmp	r0, #0
 8001fe8:	d14d      	bne.n	8002086 <xQueueSemaphoreTake+0x150>
 8001fea:	4620      	mov	r0, r4
 8001fec:	f7ff fd24 	bl	8001a38 <prvIsQueueEmpty>
 8001ff0:	2800      	cmp	r0, #0
 8001ff2:	d042      	beq.n	800207a <xQueueSemaphoreTake+0x144>
 8001ff4:	6823      	ldr	r3, [r4, #0]
 8001ff6:	b93b      	cbnz	r3, 8002008 <xQueueSemaphoreTake+0xd2>
 8001ff8:	f000 fe34 	bl	8002c64 <vPortEnterCritical>
 8001ffc:	6860      	ldr	r0, [r4, #4]
 8001ffe:	f000 fcd3 	bl	80029a8 <xTaskPriorityInherit>
 8002002:	4605      	mov	r5, r0
 8002004:	f000 fe4e 	bl	8002ca4 <vPortExitCritical>
 8002008:	9901      	ldr	r1, [sp, #4]
 800200a:	f104 0024 	add.w	r0, r4, #36	; 0x24
 800200e:	f000 fc11 	bl	8002834 <vTaskPlaceOnEventList>
 8002012:	4620      	mov	r0, r4
 8002014:	f7ff fd64 	bl	8001ae0 <prvUnlockQueue>
 8002018:	f000 fb38 	bl	800268c <xTaskResumeAll>
 800201c:	b948      	cbnz	r0, 8002032 <xQueueSemaphoreTake+0xfc>
 800201e:	f04f 23e0 	mov.w	r3, #3758153728	; 0xe000e000
 8002022:	f04f 5280 	mov.w	r2, #268435456	; 0x10000000
 8002026:	f8c3 2d04 	str.w	r2, [r3, #3332]	; 0xd04
 800202a:	f3bf 8f4f 	dsb	sy
 800202e:	f3bf 8f6f 	isb	sy
 8002032:	2601      	movs	r6, #1
 8002034:	f000 fe16 	bl	8002c64 <vPortEnterCritical>
 8002038:	6ba3      	ldr	r3, [r4, #56]	; 0x38
 800203a:	2b00      	cmp	r3, #0
 800203c:	d0a8      	beq.n	8001f90 <xQueueSemaphoreTake+0x5a>
 800203e:	3b01      	subs	r3, #1
 8002040:	63a3      	str	r3, [r4, #56]	; 0x38
 8002042:	6823      	ldr	r3, [r4, #0]
 8002044:	b913      	cbnz	r3, 800204c <xQueueSemaphoreTake+0x116>
 8002046:	f000 fda9 	bl	8002b9c <pvTaskIncrementMutexHeldCount>
 800204a:	6060      	str	r0, [r4, #4]
 800204c:	6923      	ldr	r3, [r4, #16]
 800204e:	b173      	cbz	r3, 800206e <xQueueSemaphoreTake+0x138>
 8002050:	f104 0010 	add.w	r0, r4, #16
 8002054:	f000 fc08 	bl	8002868 <xTaskRemoveFromEventList>
 8002058:	b148      	cbz	r0, 800206e <xQueueSemaphoreTake+0x138>
 800205a:	f04f 23e0 	mov.w	r3, #3758153728	; 0xe000e000
 800205e:	f04f 5280 	mov.w	r2, #268435456	; 0x10000000
 8002062:	f8c3 2d04 	str.w	r2, [r3, #3332]	; 0xd04
 8002066:	f3bf 8f4f 	dsb	sy
 800206a:	f3bf 8f6f 	isb	sy
 800206e:	f000 fe19 	bl	8002ca4 <vPortExitCritical>
 8002072:	2501      	movs	r5, #1
 8002074:	4628      	mov	r0, r5
 8002076:	b005      	add	sp, #20
 8002078:	bdf0      	pop	{r4, r5, r6, r7, pc}
 800207a:	4620      	mov	r0, r4
 800207c:	f7ff fd30 	bl	8001ae0 <prvUnlockQueue>
 8002080:	f000 fb04 	bl	800268c <xTaskResumeAll>
 8002084:	e7d5      	b.n	8002032 <xQueueSemaphoreTake+0xfc>
 8002086:	4620      	mov	r0, r4
 8002088:	f7ff fd2a 	bl	8001ae0 <prvUnlockQueue>
 800208c:	f000 fafe 	bl	800268c <xTaskResumeAll>
 8002090:	4620      	mov	r0, r4
 8002092:	f7ff fcd1 	bl	8001a38 <prvIsQueueEmpty>
 8002096:	2800      	cmp	r0, #0
 8002098:	d0cb      	beq.n	8002032 <xQueueSemaphoreTake+0xfc>
 800209a:	2d00      	cmp	r5, #0
 800209c:	d0ea      	beq.n	8002074 <xQueueSemaphoreTake+0x13e>
 800209e:	f000 fde1 	bl	8002c64 <vPortEnterCritical>
 80020a2:	6a61      	ldr	r1, [r4, #36]	; 0x24
 80020a4:	b119      	cbz	r1, 80020ae <xQueueSemaphoreTake+0x178>
 80020a6:	6b23      	ldr	r3, [r4, #48]	; 0x30
 80020a8:	6819      	ldr	r1, [r3, #0]
 80020aa:	f1c1 0107 	rsb	r1, r1, #7
 80020ae:	6860      	ldr	r0, [r4, #4]
 80020b0:	f000 fd1c 	bl	8002aec <vTaskPriorityDisinheritAfterTimeout>
 80020b4:	2500      	movs	r5, #0
 80020b6:	f000 fdf5 	bl	8002ca4 <vPortExitCritical>
 80020ba:	e7db      	b.n	8002074 <xQueueSemaphoreTake+0x13e>

080020bc <xQueueReceiveFromISR>:
 80020bc:	e92d 43f8 	stmdb	sp!, {r3, r4, r5, r6, r7, r8, r9, lr}
 80020c0:	4689      	mov	r9, r1
 80020c2:	4690      	mov	r8, r2
 80020c4:	4605      	mov	r5, r0
 80020c6:	b940      	cbnz	r0, 80020da <xQueueReceiveFromISR+0x1e>
 80020c8:	f04f 0350 	mov.w	r3, #80	; 0x50
 80020cc:	f383 8811 	msr	BASEPRI, r3
 80020d0:	f3bf 8f6f 	isb	sy
 80020d4:	f3bf 8f4f 	dsb	sy
 80020d8:	e7fe      	b.n	80020d8 <xQueueReceiveFromISR+0x1c>
 80020da:	b951      	cbnz	r1, 80020f2 <xQueueReceiveFromISR+0x36>
 80020dc:	6c03      	ldr	r3, [r0, #64]	; 0x40
 80020de:	b143      	cbz	r3, 80020f2 <xQueueReceiveFromISR+0x36>
 80020e0:	f04f 0350 	mov.w	r3, #80	; 0x50
 80020e4:	f383 8811 	msr	BASEPRI, r3
 80020e8:	f3bf 8f6f 	isb	sy
 80020ec:	f3bf 8f4f 	dsb	sy
 80020f0:	e7fe      	b.n	80020f0 <xQueueReceiveFromISR+0x34>
 80020f2:	f000 fe93 	bl	8002e1c <vPortValidateInterruptPriority>
 80020f6:	f3ef 8711 	mrs	r7, BASEPRI
 80020fa:	f04f 0350 	mov.w	r3, #80	; 0x50
 80020fe:	f383 8811 	msr	BASEPRI, r3
 8002102:	f3bf 8f6f 	isb	sy
 8002106:	f3bf 8f4f 	dsb	sy
 800210a:	6bac      	ldr	r4, [r5, #56]	; 0x38
 800210c:	b31c      	cbz	r4, 8002156 <xQueueReceiveFromISR+0x9a>
 800210e:	f895 6044 	ldrb.w	r6, [r5, #68]	; 0x44
 8002112:	4649      	mov	r1, r9
 8002114:	4628      	mov	r0, r5
 8002116:	b276      	sxtb	r6, r6
 8002118:	f7ff fcce 	bl	8001ab8 <prvCopyDataFromQueue>
 800211c:	3c01      	subs	r4, #1
 800211e:	1c73      	adds	r3, r6, #1
 8002120:	63ac      	str	r4, [r5, #56]	; 0x38
 8002122:	d113      	bne.n	800214c <xQueueReceiveFromISR+0x90>
 8002124:	692b      	ldr	r3, [r5, #16]
 8002126:	b90b      	cbnz	r3, 800212c <xQueueReceiveFromISR+0x70>
 8002128:	2001      	movs	r0, #1
 800212a:	e00b      	b.n	8002144 <xQueueReceiveFromISR+0x88>
 800212c:	f105 0010 	add.w	r0, r5, #16
 8002130:	f000 fb9a 	bl	8002868 <xTaskRemoveFromEventList>
 8002134:	2800      	cmp	r0, #0
 8002136:	d0f7      	beq.n	8002128 <xQueueReceiveFromISR+0x6c>
 8002138:	f1b8 0f00 	cmp.w	r8, #0
 800213c:	d0f4      	beq.n	8002128 <xQueueReceiveFromISR+0x6c>
 800213e:	2001      	movs	r0, #1
 8002140:	f8c8 0000 	str.w	r0, [r8]
 8002144:	f387 8811 	msr	BASEPRI, r7
 8002148:	e8bd 83f8 	ldmia.w	sp!, {r3, r4, r5, r6, r7, r8, r9, pc}
 800214c:	3601      	adds	r6, #1
 800214e:	b276      	sxtb	r6, r6
 8002150:	f885 6044 	strb.w	r6, [r5, #68]	; 0x44
 8002154:	e7e8      	b.n	8002128 <xQueueReceiveFromISR+0x6c>
 8002156:	4620      	mov	r0, r4
 8002158:	e7f4      	b.n	8002144 <xQueueReceiveFromISR+0x88>
	...

0800215c <prvAddNewTaskToReadyList>:
 800215c:	e92d 41f0 	stmdb	sp!, {r4, r5, r6, r7, r8, lr}
 8002160:	4604      	mov	r4, r0
 8002162:	f000 fd7f 	bl	8002c64 <vPortEnterCritical>
 8002166:	4b2f      	ldr	r3, [pc, #188]	; (8002224 <prvAddNewTaskToReadyList+0xc8>)
 8002168:	4e2f      	ldr	r6, [pc, #188]	; (8002228 <prvAddNewTaskToReadyList+0xcc>)
 800216a:	681a      	ldr	r2, [r3, #0]
 800216c:	4f2f      	ldr	r7, [pc, #188]	; (800222c <prvAddNewTaskToReadyList+0xd0>)
 800216e:	3201      	adds	r2, #1
 8002170:	601a      	str	r2, [r3, #0]
 8002172:	6835      	ldr	r5, [r6, #0]
 8002174:	2d00      	cmp	r5, #0
 8002176:	d14a      	bne.n	800220e <prvAddNewTaskToReadyList+0xb2>
 8002178:	6034      	str	r4, [r6, #0]
 800217a:	681b      	ldr	r3, [r3, #0]
 800217c:	2b01      	cmp	r3, #1
 800217e:	d11f      	bne.n	80021c0 <prvAddNewTaskToReadyList+0x64>
 8002180:	46b8      	mov	r8, r7
 8002182:	4640      	mov	r0, r8
 8002184:	3501      	adds	r5, #1
 8002186:	f7ff fc16 	bl	80019b6 <vListInitialise>
 800218a:	2d07      	cmp	r5, #7
 800218c:	f108 0814 	add.w	r8, r8, #20
 8002190:	d1f7      	bne.n	8002182 <prvAddNewTaskToReadyList+0x26>
 8002192:	f8df 809c 	ldr.w	r8, [pc, #156]	; 8002230 <prvAddNewTaskToReadyList+0xd4>
 8002196:	4d27      	ldr	r5, [pc, #156]	; (8002234 <prvAddNewTaskToReadyList+0xd8>)
 8002198:	4640      	mov	r0, r8
 800219a:	f7ff fc0c 	bl	80019b6 <vListInitialise>
 800219e:	4628      	mov	r0, r5
 80021a0:	f7ff fc09 	bl	80019b6 <vListInitialise>
 80021a4:	4824      	ldr	r0, [pc, #144]	; (8002238 <prvAddNewTaskToReadyList+0xdc>)
 80021a6:	f7ff fc06 	bl	80019b6 <vListInitialise>
 80021aa:	4824      	ldr	r0, [pc, #144]	; (800223c <prvAddNewTaskToReadyList+0xe0>)
 80021ac:	f7ff fc03 	bl	80019b6 <vListInitialise>
 80021b0:	4823      	ldr	r0, [pc, #140]	; (8002240 <prvAddNewTaskToReadyList+0xe4>)
 80021b2:	f7ff fc00 	bl	80019b6 <vListInitialise>
 80021b6:	4b23      	ldr	r3, [pc, #140]	; (8002244 <prvAddNewTaskToReadyList+0xe8>)
 80021b8:	f8c3 8000 	str.w	r8, [r3]
 80021bc:	4b22      	ldr	r3, [pc, #136]	; (8002248 <prvAddNewTaskToReadyList+0xec>)
 80021be:	601d      	str	r5, [r3, #0]
 80021c0:	4a22      	ldr	r2, [pc, #136]	; (800224c <prvAddNewTaskToReadyList+0xf0>)
 80021c2:	4923      	ldr	r1, [pc, #140]	; (8002250 <prvAddNewTaskToReadyList+0xf4>)
 80021c4:	6813      	ldr	r3, [r2, #0]
 80021c6:	6808      	ldr	r0, [r1, #0]
 80021c8:	3301      	adds	r3, #1
 80021ca:	6013      	str	r3, [r2, #0]
 80021cc:	2301      	movs	r3, #1
 80021ce:	6ae2      	ldr	r2, [r4, #44]	; 0x2c
 80021d0:	4093      	lsls	r3, r2
 80021d2:	4303      	orrs	r3, r0
 80021d4:	2014      	movs	r0, #20
 80021d6:	600b      	str	r3, [r1, #0]
 80021d8:	fb00 7002 	mla	r0, r0, r2, r7
 80021dc:	1d21      	adds	r1, r4, #4
 80021de:	f7ff fbf8 	bl	80019d2 <vListInsertEnd>
 80021e2:	f000 fd5f 	bl	8002ca4 <vPortExitCritical>
 80021e6:	4b1b      	ldr	r3, [pc, #108]	; (8002254 <prvAddNewTaskToReadyList+0xf8>)
 80021e8:	681b      	ldr	r3, [r3, #0]
 80021ea:	b173      	cbz	r3, 800220a <prvAddNewTaskToReadyList+0xae>
 80021ec:	6833      	ldr	r3, [r6, #0]
 80021ee:	6ada      	ldr	r2, [r3, #44]	; 0x2c
 80021f0:	6ae3      	ldr	r3, [r4, #44]	; 0x2c
 80021f2:	429a      	cmp	r2, r3
 80021f4:	d209      	bcs.n	800220a <prvAddNewTaskToReadyList+0xae>
 80021f6:	f04f 23e0 	mov.w	r3, #3758153728	; 0xe000e000
 80021fa:	f04f 5280 	mov.w	r2, #268435456	; 0x10000000
 80021fe:	f8c3 2d04 	str.w	r2, [r3, #3332]	; 0xd04
 8002202:	f3bf 8f4f 	dsb	sy
 8002206:	f3bf 8f6f 	isb	sy
 800220a:	e8bd 81f0 	ldmia.w	sp!, {r4, r5, r6, r7, r8, pc}
 800220e:	4b11      	ldr	r3, [pc, #68]	; (8002254 <prvAddNewTaskToReadyList+0xf8>)
 8002210:	681b      	ldr	r3, [r3, #0]
 8002212:	2b00      	cmp	r3, #0
 8002214:	d1d4      	bne.n	80021c0 <prvAddNewTaskToReadyList+0x64>
 8002216:	6833      	ldr	r3, [r6, #0]
 8002218:	6ada      	ldr	r2, [r3, #44]	; 0x2c
 800221a:	6ae3      	ldr	r3, [r4, #44]	; 0x2c
 800221c:	429a      	cmp	r2, r3
 800221e:	bf98      	it	ls
 8002220:	6034      	strls	r4, [r6, #0]
 8002222:	e7cd      	b.n	80021c0 <prvAddNewTaskToReadyList+0x64>
 8002224:	20000428 	.word	0x20000428
 8002228:	20000390 	.word	0x20000390
 800222c:	2000039c 	.word	0x2000039c
 8002230:	20000440 	.word	0x20000440
 8002234:	20000454 	.word	0x20000454
 8002238:	20000470 	.word	0x20000470
 800223c:	2000049c 	.word	0x2000049c
 8002240:	20000488 	.word	0x20000488
 8002244:	20000394 	.word	0x20000394
 8002248:	20000398 	.word	0x20000398
 800224c:	20000438 	.word	0x20000438
 8002250:	2000043c 	.word	0x2000043c
 8002254:	20000484 	.word	0x20000484

08002258 <prvAddCurrentTaskToDelayedList>:
 8002258:	b5f8      	push	{r3, r4, r5, r6, r7, lr}
 800225a:	4b1a      	ldr	r3, [pc, #104]	; (80022c4 <prvAddCurrentTaskToDelayedList+0x6c>)
 800225c:	4d1a      	ldr	r5, [pc, #104]	; (80022c8 <prvAddCurrentTaskToDelayedList+0x70>)
 800225e:	4606      	mov	r6, r0
 8002260:	681c      	ldr	r4, [r3, #0]
 8002262:	6828      	ldr	r0, [r5, #0]
 8002264:	460f      	mov	r7, r1
 8002266:	3004      	adds	r0, #4
 8002268:	f7ff fbd6 	bl	8001a18 <uxListRemove>
 800226c:	b940      	cbnz	r0, 8002280 <prvAddCurrentTaskToDelayedList+0x28>
 800226e:	682a      	ldr	r2, [r5, #0]
 8002270:	4916      	ldr	r1, [pc, #88]	; (80022cc <prvAddCurrentTaskToDelayedList+0x74>)
 8002272:	6ad0      	ldr	r0, [r2, #44]	; 0x2c
 8002274:	2201      	movs	r2, #1
 8002276:	680b      	ldr	r3, [r1, #0]
 8002278:	4082      	lsls	r2, r0
 800227a:	ea23 0302 	bic.w	r3, r3, r2
 800227e:	600b      	str	r3, [r1, #0]
 8002280:	1c73      	adds	r3, r6, #1
 8002282:	d107      	bne.n	8002294 <prvAddCurrentTaskToDelayedList+0x3c>
 8002284:	b137      	cbz	r7, 8002294 <prvAddCurrentTaskToDelayedList+0x3c>
 8002286:	6829      	ldr	r1, [r5, #0]
 8002288:	4811      	ldr	r0, [pc, #68]	; (80022d0 <prvAddCurrentTaskToDelayedList+0x78>)
 800228a:	3104      	adds	r1, #4
 800228c:	e8bd 40f8 	ldmia.w	sp!, {r3, r4, r5, r6, r7, lr}
 8002290:	f7ff bb9f 	b.w	80019d2 <vListInsertEnd>
 8002294:	682b      	ldr	r3, [r5, #0]
 8002296:	19a4      	adds	r4, r4, r6
 8002298:	605c      	str	r4, [r3, #4]
 800229a:	d307      	bcc.n	80022ac <prvAddCurrentTaskToDelayedList+0x54>
 800229c:	4b0d      	ldr	r3, [pc, #52]	; (80022d4 <prvAddCurrentTaskToDelayedList+0x7c>)
 800229e:	6818      	ldr	r0, [r3, #0]
 80022a0:	6829      	ldr	r1, [r5, #0]
 80022a2:	e8bd 40f8 	ldmia.w	sp!, {r3, r4, r5, r6, r7, lr}
 80022a6:	3104      	adds	r1, #4
 80022a8:	f7ff bb9f 	b.w	80019ea <vListInsert>
 80022ac:	4b0a      	ldr	r3, [pc, #40]	; (80022d8 <prvAddCurrentTaskToDelayedList+0x80>)
 80022ae:	6818      	ldr	r0, [r3, #0]
 80022b0:	6829      	ldr	r1, [r5, #0]
 80022b2:	3104      	adds	r1, #4
 80022b4:	f7ff fb99 	bl	80019ea <vListInsert>
 80022b8:	4b08      	ldr	r3, [pc, #32]	; (80022dc <prvAddCurrentTaskToDelayedList+0x84>)
 80022ba:	681a      	ldr	r2, [r3, #0]
 80022bc:	42a2      	cmp	r2, r4
 80022be:	bf88      	it	hi
 80022c0:	601c      	strhi	r4, [r3, #0]
 80022c2:	bdf8      	pop	{r3, r4, r5, r6, r7, pc}
 80022c4:	200004b0 	.word	0x200004b0
 80022c8:	20000390 	.word	0x20000390
 80022cc:	2000043c 	.word	0x2000043c
 80022d0:	20000488 	.word	0x20000488
 80022d4:	20000398 	.word	0x20000398
 80022d8:	20000394 	.word	0x20000394
 80022dc:	20000468 	.word	0x20000468

080022e0 <prvResetNextTaskUnblockTime>:
 80022e0:	4a06      	ldr	r2, [pc, #24]	; (80022fc <prvResetNextTaskUnblockTime+0x1c>)
 80022e2:	6813      	ldr	r3, [r2, #0]
 80022e4:	6819      	ldr	r1, [r3, #0]
 80022e6:	4b06      	ldr	r3, [pc, #24]	; (8002300 <prvResetNextTaskUnblockTime+0x20>)
 80022e8:	b919      	cbnz	r1, 80022f2 <prvResetNextTaskUnblockTime+0x12>
 80022ea:	f04f 32ff 	mov.w	r2, #4294967295
 80022ee:	601a      	str	r2, [r3, #0]
 80022f0:	4770      	bx	lr
 80022f2:	6812      	ldr	r2, [r2, #0]
 80022f4:	68d2      	ldr	r2, [r2, #12]
 80022f6:	68d2      	ldr	r2, [r2, #12]
 80022f8:	6852      	ldr	r2, [r2, #4]
 80022fa:	e7f8      	b.n	80022ee <prvResetNextTaskUnblockTime+0xe>
 80022fc:	20000394 	.word	0x20000394
 8002300:	20000468 	.word	0x20000468

08002304 <prvDeleteTCB>:
 8002304:	b510      	push	{r4, lr}
 8002306:	f890 3051 	ldrb.w	r3, [r0, #81]	; 0x51
 800230a:	4604      	mov	r4, r0
 800230c:	b93b      	cbnz	r3, 800231e <prvDeleteTCB+0x1a>
 800230e:	6b00      	ldr	r0, [r0, #48]	; 0x30
 8002310:	f000 fe66 	bl	8002fe0 <vPortFree>
 8002314:	4620      	mov	r0, r4
 8002316:	e8bd 4010 	ldmia.w	sp!, {r4, lr}
 800231a:	f000 be61 	b.w	8002fe0 <vPortFree>
 800231e:	2b01      	cmp	r3, #1
 8002320:	d0f9      	beq.n	8002316 <prvDeleteTCB+0x12>
 8002322:	2b02      	cmp	r3, #2
 8002324:	d008      	beq.n	8002338 <prvDeleteTCB+0x34>
 8002326:	f04f 0350 	mov.w	r3, #80	; 0x50
 800232a:	f383 8811 	msr	BASEPRI, r3
 800232e:	f3bf 8f6f 	isb	sy
 8002332:	f3bf 8f4f 	dsb	sy
 8002336:	e7fe      	b.n	8002336 <prvDeleteTCB+0x32>
 8002338:	bd10      	pop	{r4, pc}
	...

0800233c <prvIdleTask>:
 800233c:	b580      	push	{r7, lr}
 800233e:	4c13      	ldr	r4, [pc, #76]	; (800238c <prvIdleTask+0x50>)
 8002340:	4f13      	ldr	r7, [pc, #76]	; (8002390 <prvIdleTask+0x54>)
 8002342:	4d14      	ldr	r5, [pc, #80]	; (8002394 <prvIdleTask+0x58>)
 8002344:	6823      	ldr	r3, [r4, #0]
 8002346:	b973      	cbnz	r3, 8002366 <prvIdleTask+0x2a>
 8002348:	4b13      	ldr	r3, [pc, #76]	; (8002398 <prvIdleTask+0x5c>)
 800234a:	681b      	ldr	r3, [r3, #0]
 800234c:	2b01      	cmp	r3, #1
 800234e:	d9f8      	bls.n	8002342 <prvIdleTask+0x6>
 8002350:	f04f 23e0 	mov.w	r3, #3758153728	; 0xe000e000
 8002354:	f04f 5280 	mov.w	r2, #268435456	; 0x10000000
 8002358:	f8c3 2d04 	str.w	r2, [r3, #3332]	; 0xd04
 800235c:	f3bf 8f4f 	dsb	sy
 8002360:	f3bf 8f6f 	isb	sy
 8002364:	e7ed      	b.n	8002342 <prvIdleTask+0x6>
 8002366:	f000 fc7d 	bl	8002c64 <vPortEnterCritical>
 800236a:	68fb      	ldr	r3, [r7, #12]
 800236c:	68de      	ldr	r6, [r3, #12]
 800236e:	1d30      	adds	r0, r6, #4
 8002370:	f7ff fb52 	bl	8001a18 <uxListRemove>
 8002374:	682b      	ldr	r3, [r5, #0]
 8002376:	3b01      	subs	r3, #1
 8002378:	602b      	str	r3, [r5, #0]
 800237a:	6823      	ldr	r3, [r4, #0]
 800237c:	3b01      	subs	r3, #1
 800237e:	6023      	str	r3, [r4, #0]
 8002380:	f000 fc90 	bl	8002ca4 <vPortExitCritical>
 8002384:	4630      	mov	r0, r6
 8002386:	f7ff ffbd 	bl	8002304 <prvDeleteTCB>
 800238a:	e7db      	b.n	8002344 <prvIdleTask+0x8>
 800238c:	2000042c 	.word	0x2000042c
 8002390:	2000049c 	.word	0x2000049c
 8002394:	20000428 	.word	0x20000428
 8002398:	2000039c 	.word	0x2000039c

0800239c <prvInitialiseNewTask.constprop.0>:
 800239c:	e92d 47f0 	stmdb	sp!, {r4, r5, r6, r7, r8, r9, sl, lr}
 80023a0:	4607      	mov	r7, r0
 80023a2:	e9dd 8409 	ldrd	r8, r4, [sp, #36]	; 0x24
 80023a6:	f102 4080 	add.w	r0, r2, #1073741824	; 0x40000000
 80023aa:	6b26      	ldr	r6, [r4, #48]	; 0x30
 80023ac:	3801      	subs	r0, #1
 80023ae:	eb06 0680 	add.w	r6, r6, r0, lsl #2
 80023b2:	4699      	mov	r9, r3
 80023b4:	f026 0607 	bic.w	r6, r6, #7
 80023b8:	1e4b      	subs	r3, r1, #1
 80023ba:	f104 0234 	add.w	r2, r4, #52	; 0x34
 80023be:	310f      	adds	r1, #15
 80023c0:	f813 0f01 	ldrb.w	r0, [r3, #1]!
 80023c4:	f802 0b01 	strb.w	r0, [r2], #1
 80023c8:	b108      	cbz	r0, 80023ce <prvInitialiseNewTask.constprop.0+0x32>
 80023ca:	428b      	cmp	r3, r1
 80023cc:	d1f8      	bne.n	80023c0 <prvInitialiseNewTask.constprop.0+0x24>
 80023ce:	9d08      	ldr	r5, [sp, #32]
 80023d0:	f04f 0a00 	mov.w	sl, #0
 80023d4:	2d06      	cmp	r5, #6
 80023d6:	bf28      	it	cs
 80023d8:	2506      	movcs	r5, #6
 80023da:	1d20      	adds	r0, r4, #4
 80023dc:	e9c4 5a11 	strd	r5, sl, [r4, #68]	; 0x44
 80023e0:	62e5      	str	r5, [r4, #44]	; 0x2c
 80023e2:	f884 a043 	strb.w	sl, [r4, #67]	; 0x43
 80023e6:	f7ff faf1 	bl	80019cc <vListInitialiseItem>
 80023ea:	f1c5 0507 	rsb	r5, r5, #7
 80023ee:	f104 0018 	add.w	r0, r4, #24
 80023f2:	f7ff faeb 	bl	80019cc <vListInitialiseItem>
 80023f6:	f8c4 a04c 	str.w	sl, [r4, #76]	; 0x4c
 80023fa:	464a      	mov	r2, r9
 80023fc:	4639      	mov	r1, r7
 80023fe:	4630      	mov	r0, r6
 8002400:	6124      	str	r4, [r4, #16]
 8002402:	61a5      	str	r5, [r4, #24]
 8002404:	6264      	str	r4, [r4, #36]	; 0x24
 8002406:	f884 a050 	strb.w	sl, [r4, #80]	; 0x50
 800240a:	f000 fc03 	bl	8002c14 <pxPortInitialiseStack>
 800240e:	6020      	str	r0, [r4, #0]
 8002410:	f1b8 0f00 	cmp.w	r8, #0
 8002414:	d001      	beq.n	800241a <prvInitialiseNewTask.constprop.0+0x7e>
 8002416:	f8c8 4000 	str.w	r4, [r8]
 800241a:	e8bd 87f0 	ldmia.w	sp!, {r4, r5, r6, r7, r8, r9, sl, pc}

0800241e <xTaskCreateStatic>:
 800241e:	b570      	push	{r4, r5, r6, lr}
 8002420:	b086      	sub	sp, #24
 8002422:	e9dd 540b 	ldrd	r5, r4, [sp, #44]	; 0x2c
 8002426:	b945      	cbnz	r5, 800243a <xTaskCreateStatic+0x1c>
 8002428:	f04f 0350 	mov.w	r3, #80	; 0x50
 800242c:	f383 8811 	msr	BASEPRI, r3
 8002430:	f3bf 8f6f 	isb	sy
 8002434:	f3bf 8f4f 	dsb	sy
 8002438:	e7fe      	b.n	8002438 <xTaskCreateStatic+0x1a>
 800243a:	b944      	cbnz	r4, 800244e <xTaskCreateStatic+0x30>
 800243c:	f04f 0350 	mov.w	r3, #80	; 0x50
 8002440:	f383 8811 	msr	BASEPRI, r3
 8002444:	f3bf 8f6f 	isb	sy
 8002448:	f3bf 8f4f 	dsb	sy
 800244c:	e7fe      	b.n	800244c <xTaskCreateStatic+0x2e>
 800244e:	2654      	movs	r6, #84	; 0x54
 8002450:	9605      	str	r6, [sp, #20]
 8002452:	9e05      	ldr	r6, [sp, #20]
 8002454:	2e54      	cmp	r6, #84	; 0x54
 8002456:	d008      	beq.n	800246a <xTaskCreateStatic+0x4c>
 8002458:	f04f 0350 	mov.w	r3, #80	; 0x50
 800245c:	f383 8811 	msr	BASEPRI, r3
 8002460:	f3bf 8f6f 	isb	sy
 8002464:	f3bf 8f4f 	dsb	sy
 8002468:	e7fe      	b.n	8002468 <xTaskCreateStatic+0x4a>
 800246a:	6325      	str	r5, [r4, #48]	; 0x30
 800246c:	2502      	movs	r5, #2
 800246e:	f884 5051 	strb.w	r5, [r4, #81]	; 0x51
 8002472:	ad04      	add	r5, sp, #16
 8002474:	9501      	str	r5, [sp, #4]
 8002476:	9d0a      	ldr	r5, [sp, #40]	; 0x28
 8002478:	9402      	str	r4, [sp, #8]
 800247a:	9500      	str	r5, [sp, #0]
 800247c:	f7ff ff8e 	bl	800239c <prvInitialiseNewTask.constprop.0>
 8002480:	4620      	mov	r0, r4
 8002482:	f7ff fe6b 	bl	800215c <prvAddNewTaskToReadyList>
 8002486:	9804      	ldr	r0, [sp, #16]
 8002488:	b006      	add	sp, #24
 800248a:	bd70      	pop	{r4, r5, r6, pc}

0800248c <xTaskCreate>:
 800248c:	e92d 43f0 	stmdb	sp!, {r4, r5, r6, r7, r8, r9, lr}
 8002490:	4607      	mov	r7, r0
 8002492:	b085      	sub	sp, #20
 8002494:	0090      	lsls	r0, r2, #2
 8002496:	4688      	mov	r8, r1
 8002498:	4616      	mov	r6, r2
 800249a:	4699      	mov	r9, r3
 800249c:	f000 fd10 	bl	8002ec0 <pvPortMalloc>
 80024a0:	4605      	mov	r5, r0
 80024a2:	b1e8      	cbz	r0, 80024e0 <xTaskCreate+0x54>
 80024a4:	2054      	movs	r0, #84	; 0x54
 80024a6:	f000 fd0b 	bl	8002ec0 <pvPortMalloc>
 80024aa:	4604      	mov	r4, r0
 80024ac:	b1a8      	cbz	r0, 80024da <xTaskCreate+0x4e>
 80024ae:	2300      	movs	r3, #0
 80024b0:	f880 3051 	strb.w	r3, [r0, #81]	; 0x51
 80024b4:	9b0d      	ldr	r3, [sp, #52]	; 0x34
 80024b6:	6305      	str	r5, [r0, #48]	; 0x30
 80024b8:	9301      	str	r3, [sp, #4]
 80024ba:	9b0c      	ldr	r3, [sp, #48]	; 0x30
 80024bc:	4632      	mov	r2, r6
 80024be:	4641      	mov	r1, r8
 80024c0:	9002      	str	r0, [sp, #8]
 80024c2:	9300      	str	r3, [sp, #0]
 80024c4:	4638      	mov	r0, r7
 80024c6:	464b      	mov	r3, r9
 80024c8:	f7ff ff68 	bl	800239c <prvInitialiseNewTask.constprop.0>
 80024cc:	4620      	mov	r0, r4
 80024ce:	f7ff fe45 	bl	800215c <prvAddNewTaskToReadyList>
 80024d2:	2001      	movs	r0, #1
 80024d4:	b005      	add	sp, #20
 80024d6:	e8bd 83f0 	ldmia.w	sp!, {r4, r5, r6, r7, r8, r9, pc}
 80024da:	4628      	mov	r0, r5
 80024dc:	f000 fd80 	bl	8002fe0 <vPortFree>
 80024e0:	f04f 30ff 	mov.w	r0, #4294967295
 80024e4:	e7f6      	b.n	80024d4 <xTaskCreate+0x48>
	...

080024e8 <vTaskStartScheduler>:
 80024e8:	b510      	push	{r4, lr}
 80024ea:	2400      	movs	r4, #0
 80024ec:	b088      	sub	sp, #32
 80024ee:	aa07      	add	r2, sp, #28
 80024f0:	a906      	add	r1, sp, #24
 80024f2:	a805      	add	r0, sp, #20
 80024f4:	e9cd 4405 	strd	r4, r4, [sp, #20]
 80024f8:	f7fd fea2 	bl	8000240 <vApplicationGetIdleTaskMemory>
 80024fc:	9b05      	ldr	r3, [sp, #20]
 80024fe:	9a07      	ldr	r2, [sp, #28]
 8002500:	9302      	str	r3, [sp, #8]
 8002502:	9b06      	ldr	r3, [sp, #24]
 8002504:	490f      	ldr	r1, [pc, #60]	; (8002544 <vTaskStartScheduler+0x5c>)
 8002506:	e9cd 4300 	strd	r4, r3, [sp]
 800250a:	480f      	ldr	r0, [pc, #60]	; (8002548 <vTaskStartScheduler+0x60>)
 800250c:	4623      	mov	r3, r4
 800250e:	f7ff ff86 	bl	800241e <xTaskCreateStatic>
 8002512:	b1a8      	cbz	r0, 8002540 <vTaskStartScheduler+0x58>
 8002514:	f04f 0350 	mov.w	r3, #80	; 0x50
 8002518:	f383 8811 	msr	BASEPRI, r3
 800251c:	f3bf 8f6f 	isb	sy
 8002520:	f3bf 8f4f 	dsb	sy
 8002524:	f04f 32ff 	mov.w	r2, #4294967295
 8002528:	4b08      	ldr	r3, [pc, #32]	; (800254c <vTaskStartScheduler+0x64>)
 800252a:	601a      	str	r2, [r3, #0]
 800252c:	2201      	movs	r2, #1
 800252e:	4b08      	ldr	r3, [pc, #32]	; (8002550 <vTaskStartScheduler+0x68>)
 8002530:	601a      	str	r2, [r3, #0]
 8002532:	4b08      	ldr	r3, [pc, #32]	; (8002554 <vTaskStartScheduler+0x6c>)
 8002534:	601c      	str	r4, [r3, #0]
 8002536:	b008      	add	sp, #32
 8002538:	e8bd 4010 	ldmia.w	sp!, {r4, lr}
 800253c:	f000 bc12 	b.w	8002d64 <xPortStartScheduler>
 8002540:	b008      	add	sp, #32
 8002542:	bd10      	pop	{r4, pc}
 8002544:	080031d7 	.word	0x080031d7
 8002548:	0800233d 	.word	0x0800233d
 800254c:	20000468 	.word	0x20000468
 8002550:	20000484 	.word	0x20000484
 8002554:	200004b0 	.word	0x200004b0

08002558 <vTaskSuspendAll>:
 8002558:	4a02      	ldr	r2, [pc, #8]	; (8002564 <vTaskSuspendAll+0xc>)
 800255a:	6813      	ldr	r3, [r2, #0]
 800255c:	3301      	adds	r3, #1
 800255e:	6013      	str	r3, [r2, #0]
 8002560:	4770      	bx	lr
 8002562:	bf00      	nop
 8002564:	20000434 	.word	0x20000434

08002568 <xTaskIncrementTick>:
 8002568:	e92d 4ff8 	stmdb	sp!, {r3, r4, r5, r6, r7, r8, r9, sl, fp, lr}
 800256c:	4b3c      	ldr	r3, [pc, #240]	; (8002660 <xTaskIncrementTick+0xf8>)
 800256e:	681b      	ldr	r3, [r3, #0]
 8002570:	2b00      	cmp	r3, #0
 8002572:	d16e      	bne.n	8002652 <xTaskIncrementTick+0xea>
 8002574:	4b3b      	ldr	r3, [pc, #236]	; (8002664 <xTaskIncrementTick+0xfc>)
 8002576:	681d      	ldr	r5, [r3, #0]
 8002578:	3501      	adds	r5, #1
 800257a:	601d      	str	r5, [r3, #0]
 800257c:	b9bd      	cbnz	r5, 80025ae <xTaskIncrementTick+0x46>
 800257e:	4b3a      	ldr	r3, [pc, #232]	; (8002668 <xTaskIncrementTick+0x100>)
 8002580:	681a      	ldr	r2, [r3, #0]
 8002582:	6812      	ldr	r2, [r2, #0]
 8002584:	b142      	cbz	r2, 8002598 <xTaskIncrementTick+0x30>
 8002586:	f04f 0350 	mov.w	r3, #80	; 0x50
 800258a:	f383 8811 	msr	BASEPRI, r3
 800258e:	f3bf 8f6f 	isb	sy
 8002592:	f3bf 8f4f 	dsb	sy
 8002596:	e7fe      	b.n	8002596 <xTaskIncrementTick+0x2e>
 8002598:	4a34      	ldr	r2, [pc, #208]	; (800266c <xTaskIncrementTick+0x104>)
 800259a:	6819      	ldr	r1, [r3, #0]
 800259c:	6810      	ldr	r0, [r2, #0]
 800259e:	6018      	str	r0, [r3, #0]
 80025a0:	6011      	str	r1, [r2, #0]
 80025a2:	4a33      	ldr	r2, [pc, #204]	; (8002670 <xTaskIncrementTick+0x108>)
 80025a4:	6813      	ldr	r3, [r2, #0]
 80025a6:	3301      	adds	r3, #1
 80025a8:	6013      	str	r3, [r2, #0]
 80025aa:	f7ff fe99 	bl	80022e0 <prvResetNextTaskUnblockTime>
 80025ae:	4e31      	ldr	r6, [pc, #196]	; (8002674 <xTaskIncrementTick+0x10c>)
 80025b0:	2400      	movs	r4, #0
 80025b2:	6833      	ldr	r3, [r6, #0]
 80025b4:	4f30      	ldr	r7, [pc, #192]	; (8002678 <xTaskIncrementTick+0x110>)
 80025b6:	42ab      	cmp	r3, r5
 80025b8:	d910      	bls.n	80025dc <xTaskIncrementTick+0x74>
 80025ba:	2214      	movs	r2, #20
 80025bc:	4b2f      	ldr	r3, [pc, #188]	; (800267c <xTaskIncrementTick+0x114>)
 80025be:	681b      	ldr	r3, [r3, #0]
 80025c0:	6adb      	ldr	r3, [r3, #44]	; 0x2c
 80025c2:	4353      	muls	r3, r2
 80025c4:	58fb      	ldr	r3, [r7, r3]
 80025c6:	2b02      	cmp	r3, #2
 80025c8:	bf28      	it	cs
 80025ca:	2401      	movcs	r4, #1
 80025cc:	4b2c      	ldr	r3, [pc, #176]	; (8002680 <xTaskIncrementTick+0x118>)
 80025ce:	681b      	ldr	r3, [r3, #0]
 80025d0:	2b00      	cmp	r3, #0
 80025d2:	bf0c      	ite	eq
 80025d4:	4620      	moveq	r0, r4
 80025d6:	2001      	movne	r0, #1
 80025d8:	e8bd 8ff8 	ldmia.w	sp!, {r3, r4, r5, r6, r7, r8, r9, sl, fp, pc}
 80025dc:	f8df a088 	ldr.w	sl, [pc, #136]	; 8002668 <xTaskIncrementTick+0x100>
 80025e0:	f8df 90a0 	ldr.w	r9, [pc, #160]	; 8002684 <xTaskIncrementTick+0x11c>
 80025e4:	f8da 3000 	ldr.w	r3, [sl]
 80025e8:	681b      	ldr	r3, [r3, #0]
 80025ea:	b91b      	cbnz	r3, 80025f4 <xTaskIncrementTick+0x8c>
 80025ec:	f04f 33ff 	mov.w	r3, #4294967295
 80025f0:	6033      	str	r3, [r6, #0]
 80025f2:	e7e2      	b.n	80025ba <xTaskIncrementTick+0x52>
 80025f4:	f8da 3000 	ldr.w	r3, [sl]
 80025f8:	68db      	ldr	r3, [r3, #12]
 80025fa:	f8d3 b00c 	ldr.w	fp, [r3, #12]
 80025fe:	f8db 2004 	ldr.w	r2, [fp, #4]
 8002602:	4295      	cmp	r5, r2
 8002604:	d201      	bcs.n	800260a <xTaskIncrementTick+0xa2>
 8002606:	6032      	str	r2, [r6, #0]
 8002608:	e7d7      	b.n	80025ba <xTaskIncrementTick+0x52>
 800260a:	f10b 0804 	add.w	r8, fp, #4
 800260e:	4640      	mov	r0, r8
 8002610:	f7ff fa02 	bl	8001a18 <uxListRemove>
 8002614:	f8db 2028 	ldr.w	r2, [fp, #40]	; 0x28
 8002618:	b11a      	cbz	r2, 8002622 <xTaskIncrementTick+0xba>
 800261a:	f10b 0018 	add.w	r0, fp, #24
 800261e:	f7ff f9fb 	bl	8001a18 <uxListRemove>
 8002622:	2201      	movs	r2, #1
 8002624:	f8db 002c 	ldr.w	r0, [fp, #44]	; 0x2c
 8002628:	f8d9 3000 	ldr.w	r3, [r9]
 800262c:	4082      	lsls	r2, r0
 800262e:	431a      	orrs	r2, r3
 8002630:	f8c9 2000 	str.w	r2, [r9]
 8002634:	2214      	movs	r2, #20
 8002636:	4641      	mov	r1, r8
 8002638:	fb02 7000 	mla	r0, r2, r0, r7
 800263c:	f7ff f9c9 	bl	80019d2 <vListInsertEnd>
 8002640:	4b0e      	ldr	r3, [pc, #56]	; (800267c <xTaskIncrementTick+0x114>)
 8002642:	f8db 202c 	ldr.w	r2, [fp, #44]	; 0x2c
 8002646:	6819      	ldr	r1, [r3, #0]
 8002648:	6acb      	ldr	r3, [r1, #44]	; 0x2c
 800264a:	429a      	cmp	r2, r3
 800264c:	bf28      	it	cs
 800264e:	2401      	movcs	r4, #1
 8002650:	e7c8      	b.n	80025e4 <xTaskIncrementTick+0x7c>
 8002652:	4a0d      	ldr	r2, [pc, #52]	; (8002688 <xTaskIncrementTick+0x120>)
 8002654:	2400      	movs	r4, #0
 8002656:	6813      	ldr	r3, [r2, #0]
 8002658:	3301      	adds	r3, #1
 800265a:	6013      	str	r3, [r2, #0]
 800265c:	e7b6      	b.n	80025cc <xTaskIncrementTick+0x64>
 800265e:	bf00      	nop
 8002660:	20000434 	.word	0x20000434
 8002664:	200004b0 	.word	0x200004b0
 8002668:	20000394 	.word	0x20000394
 800266c:	20000398 	.word	0x20000398
 8002670:	2000046c 	.word	0x2000046c
 8002674:	20000468 	.word	0x20000468
 8002678:	2000039c 	.word	0x2000039c
 800267c:	20000390 	.word	0x20000390
 8002680:	200004b4 	.word	0x200004b4
 8002684:	2000043c 	.word	0x2000043c
 8002688:	20000430 	.word	0x20000430

0800268c <xTaskResumeAll>:
 800268c:	e92d 43f8 	stmdb	sp!, {r3, r4, r5, r6, r7, r8, r9, lr}
 8002690:	4c31      	ldr	r4, [pc, #196]	; (8002758 <xTaskResumeAll+0xcc>)
 8002692:	6823      	ldr	r3, [r4, #0]
 8002694:	b943      	cbnz	r3, 80026a8 <xTaskResumeAll+0x1c>
 8002696:	f04f 0350 	mov.w	r3, #80	; 0x50
 800269a:	f383 8811 	msr	BASEPRI, r3
 800269e:	f3bf 8f6f 	isb	sy
 80026a2:	f3bf 8f4f 	dsb	sy
 80026a6:	e7fe      	b.n	80026a6 <xTaskResumeAll+0x1a>
 80026a8:	f000 fadc 	bl	8002c64 <vPortEnterCritical>
 80026ac:	6823      	ldr	r3, [r4, #0]
 80026ae:	3b01      	subs	r3, #1
 80026b0:	6023      	str	r3, [r4, #0]
 80026b2:	6824      	ldr	r4, [r4, #0]
 80026b4:	b12c      	cbz	r4, 80026c2 <xTaskResumeAll+0x36>
 80026b6:	2400      	movs	r4, #0
 80026b8:	f000 faf4 	bl	8002ca4 <vPortExitCritical>
 80026bc:	4620      	mov	r0, r4
 80026be:	e8bd 83f8 	ldmia.w	sp!, {r3, r4, r5, r6, r7, r8, r9, pc}
 80026c2:	4b26      	ldr	r3, [pc, #152]	; (800275c <xTaskResumeAll+0xd0>)
 80026c4:	681b      	ldr	r3, [r3, #0]
 80026c6:	2b00      	cmp	r3, #0
 80026c8:	d0f5      	beq.n	80026b6 <xTaskResumeAll+0x2a>
 80026ca:	4d25      	ldr	r5, [pc, #148]	; (8002760 <xTaskResumeAll+0xd4>)
 80026cc:	4e25      	ldr	r6, [pc, #148]	; (8002764 <xTaskResumeAll+0xd8>)
 80026ce:	f8df 8098 	ldr.w	r8, [pc, #152]	; 8002768 <xTaskResumeAll+0xdc>
 80026d2:	e01f      	b.n	8002714 <xTaskResumeAll+0x88>
 80026d4:	68eb      	ldr	r3, [r5, #12]
 80026d6:	2701      	movs	r7, #1
 80026d8:	68dc      	ldr	r4, [r3, #12]
 80026da:	f104 0904 	add.w	r9, r4, #4
 80026de:	f104 0018 	add.w	r0, r4, #24
 80026e2:	f7ff f999 	bl	8001a18 <uxListRemove>
 80026e6:	4648      	mov	r0, r9
 80026e8:	f7ff f996 	bl	8001a18 <uxListRemove>
 80026ec:	2014      	movs	r0, #20
 80026ee:	6ae2      	ldr	r2, [r4, #44]	; 0x2c
 80026f0:	6831      	ldr	r1, [r6, #0]
 80026f2:	fa07 f302 	lsl.w	r3, r7, r2
 80026f6:	430b      	orrs	r3, r1
 80026f8:	fb00 8002 	mla	r0, r0, r2, r8
 80026fc:	4649      	mov	r1, r9
 80026fe:	6033      	str	r3, [r6, #0]
 8002700:	f7ff f967 	bl	80019d2 <vListInsertEnd>
 8002704:	4b19      	ldr	r3, [pc, #100]	; (800276c <xTaskResumeAll+0xe0>)
 8002706:	6ae2      	ldr	r2, [r4, #44]	; 0x2c
 8002708:	681b      	ldr	r3, [r3, #0]
 800270a:	6adb      	ldr	r3, [r3, #44]	; 0x2c
 800270c:	429a      	cmp	r2, r3
 800270e:	d301      	bcc.n	8002714 <xTaskResumeAll+0x88>
 8002710:	4b17      	ldr	r3, [pc, #92]	; (8002770 <xTaskResumeAll+0xe4>)
 8002712:	601f      	str	r7, [r3, #0]
 8002714:	682b      	ldr	r3, [r5, #0]
 8002716:	2b00      	cmp	r3, #0
 8002718:	d1dc      	bne.n	80026d4 <xTaskResumeAll+0x48>
 800271a:	b10c      	cbz	r4, 8002720 <xTaskResumeAll+0x94>
 800271c:	f7ff fde0 	bl	80022e0 <prvResetNextTaskUnblockTime>
 8002720:	4d14      	ldr	r5, [pc, #80]	; (8002774 <xTaskResumeAll+0xe8>)
 8002722:	682c      	ldr	r4, [r5, #0]
 8002724:	b144      	cbz	r4, 8002738 <xTaskResumeAll+0xac>
 8002726:	2701      	movs	r7, #1
 8002728:	4e11      	ldr	r6, [pc, #68]	; (8002770 <xTaskResumeAll+0xe4>)
 800272a:	f7ff ff1d 	bl	8002568 <xTaskIncrementTick>
 800272e:	b100      	cbz	r0, 8002732 <xTaskResumeAll+0xa6>
 8002730:	6037      	str	r7, [r6, #0]
 8002732:	3c01      	subs	r4, #1
 8002734:	d1f9      	bne.n	800272a <xTaskResumeAll+0x9e>
 8002736:	602c      	str	r4, [r5, #0]
 8002738:	4b0d      	ldr	r3, [pc, #52]	; (8002770 <xTaskResumeAll+0xe4>)
 800273a:	681b      	ldr	r3, [r3, #0]
 800273c:	2b00      	cmp	r3, #0
 800273e:	d0ba      	beq.n	80026b6 <xTaskResumeAll+0x2a>
 8002740:	f04f 23e0 	mov.w	r3, #3758153728	; 0xe000e000
 8002744:	f04f 5280 	mov.w	r2, #268435456	; 0x10000000
 8002748:	f8c3 2d04 	str.w	r2, [r3, #3332]	; 0xd04
 800274c:	f3bf 8f4f 	dsb	sy
 8002750:	f3bf 8f6f 	isb	sy
 8002754:	2401      	movs	r4, #1
 8002756:	e7af      	b.n	80026b8 <xTaskResumeAll+0x2c>
 8002758:	20000434 	.word	0x20000434
 800275c:	20000428 	.word	0x20000428
 8002760:	20000470 	.word	0x20000470
 8002764:	2000043c 	.word	0x2000043c
 8002768:	2000039c 	.word	0x2000039c
 800276c:	20000390 	.word	0x20000390
 8002770:	200004b4 	.word	0x200004b4
 8002774:	20000430 	.word	0x20000430

08002778 <vTaskDelay>:
 8002778:	b508      	push	{r3, lr}
 800277a:	b950      	cbnz	r0, 8002792 <vTaskDelay+0x1a>
 800277c:	f04f 23e0 	mov.w	r3, #3758153728	; 0xe000e000
 8002780:	f04f 5280 	mov.w	r2, #268435456	; 0x10000000
 8002784:	f8c3 2d04 	str.w	r2, [r3, #3332]	; 0xd04
 8002788:	f3bf 8f4f 	dsb	sy
 800278c:	f3bf 8f6f 	isb	sy
 8002790:	bd08      	pop	{r3, pc}
 8002792:	4b0a      	ldr	r3, [pc, #40]	; (80027bc <vTaskDelay+0x44>)
 8002794:	6819      	ldr	r1, [r3, #0]
 8002796:	b141      	cbz	r1, 80027aa <vTaskDelay+0x32>
 8002798:	f04f 0350 	mov.w	r3, #80	; 0x50
 800279c:	f383 8811 	msr	BASEPRI, r3
 80027a0:	f3bf 8f6f 	isb	sy
 80027a4:	f3bf 8f4f 	dsb	sy
 80027a8:	e7fe      	b.n	80027a8 <vTaskDelay+0x30>
 80027aa:	f7ff fed5 	bl	8002558 <vTaskSuspendAll>
 80027ae:	f7ff fd53 	bl	8002258 <prvAddCurrentTaskToDelayedList>
 80027b2:	f7ff ff6b 	bl	800268c <xTaskResumeAll>
 80027b6:	2800      	cmp	r0, #0
 80027b8:	d0e0      	beq.n	800277c <vTaskDelay+0x4>
 80027ba:	e7e9      	b.n	8002790 <vTaskDelay+0x18>
 80027bc:	20000434 	.word	0x20000434

080027c0 <vTaskSwitchContext>:
 80027c0:	4b17      	ldr	r3, [pc, #92]	; (8002820 <vTaskSwitchContext+0x60>)
 80027c2:	b510      	push	{r4, lr}
 80027c4:	681a      	ldr	r2, [r3, #0]
 80027c6:	4b17      	ldr	r3, [pc, #92]	; (8002824 <vTaskSwitchContext+0x64>)
 80027c8:	b112      	cbz	r2, 80027d0 <vTaskSwitchContext+0x10>
 80027ca:	2201      	movs	r2, #1
 80027cc:	601a      	str	r2, [r3, #0]
 80027ce:	bd10      	pop	{r4, pc}
 80027d0:	601a      	str	r2, [r3, #0]
 80027d2:	4b15      	ldr	r3, [pc, #84]	; (8002828 <vTaskSwitchContext+0x68>)
 80027d4:	681a      	ldr	r2, [r3, #0]
 80027d6:	fab2 f282 	clz	r2, r2
 80027da:	2314      	movs	r3, #20
 80027dc:	b2d2      	uxtb	r2, r2
 80027de:	f1c2 021f 	rsb	r2, r2, #31
 80027e2:	4353      	muls	r3, r2
 80027e4:	4911      	ldr	r1, [pc, #68]	; (800282c <vTaskSwitchContext+0x6c>)
 80027e6:	58cc      	ldr	r4, [r1, r3]
 80027e8:	18c8      	adds	r0, r1, r3
 80027ea:	b944      	cbnz	r4, 80027fe <vTaskSwitchContext+0x3e>
 80027ec:	f04f 0350 	mov.w	r3, #80	; 0x50
 80027f0:	f383 8811 	msr	BASEPRI, r3
 80027f4:	f3bf 8f6f 	isb	sy
 80027f8:	f3bf 8f4f 	dsb	sy
 80027fc:	e7fe      	b.n	80027fc <vTaskSwitchContext+0x3c>
 80027fe:	6844      	ldr	r4, [r0, #4]
 8002800:	3308      	adds	r3, #8
 8002802:	6864      	ldr	r4, [r4, #4]
 8002804:	440b      	add	r3, r1
 8002806:	429c      	cmp	r4, r3
 8002808:	bf08      	it	eq
 800280a:	6863      	ldreq	r3, [r4, #4]
 800280c:	6044      	str	r4, [r0, #4]
 800280e:	bf08      	it	eq
 8002810:	6043      	streq	r3, [r0, #4]
 8002812:	2314      	movs	r3, #20
 8002814:	fb03 1202 	mla	r2, r3, r2, r1
 8002818:	6853      	ldr	r3, [r2, #4]
 800281a:	68da      	ldr	r2, [r3, #12]
 800281c:	4b04      	ldr	r3, [pc, #16]	; (8002830 <vTaskSwitchContext+0x70>)
 800281e:	e7d5      	b.n	80027cc <vTaskSwitchContext+0xc>
 8002820:	20000434 	.word	0x20000434
 8002824:	200004b4 	.word	0x200004b4
 8002828:	2000043c 	.word	0x2000043c
 800282c:	2000039c 	.word	0x2000039c
 8002830:	20000390 	.word	0x20000390

08002834 <vTaskPlaceOnEventList>:
 8002834:	b510      	push	{r4, lr}
 8002836:	460c      	mov	r4, r1
 8002838:	b940      	cbnz	r0, 800284c <vTaskPlaceOnEventList+0x18>
 800283a:	f04f 0350 	mov.w	r3, #80	; 0x50
 800283e:	f383 8811 	msr	BASEPRI, r3
 8002842:	f3bf 8f6f 	isb	sy
 8002846:	f3bf 8f4f 	dsb	sy
 800284a:	e7fe      	b.n	800284a <vTaskPlaceOnEventList+0x16>
 800284c:	4b05      	ldr	r3, [pc, #20]	; (8002864 <vTaskPlaceOnEventList+0x30>)
 800284e:	6819      	ldr	r1, [r3, #0]
 8002850:	3118      	adds	r1, #24
 8002852:	f7ff f8ca 	bl	80019ea <vListInsert>
 8002856:	4620      	mov	r0, r4
 8002858:	e8bd 4010 	ldmia.w	sp!, {r4, lr}
 800285c:	2101      	movs	r1, #1
 800285e:	f7ff bcfb 	b.w	8002258 <prvAddCurrentTaskToDelayedList>
 8002862:	bf00      	nop
 8002864:	20000390 	.word	0x20000390

08002868 <xTaskRemoveFromEventList>:
 8002868:	b538      	push	{r3, r4, r5, lr}
 800286a:	68c3      	ldr	r3, [r0, #12]
 800286c:	68dc      	ldr	r4, [r3, #12]
 800286e:	b944      	cbnz	r4, 8002882 <xTaskRemoveFromEventList+0x1a>
 8002870:	f04f 0350 	mov.w	r3, #80	; 0x50
 8002874:	f383 8811 	msr	BASEPRI, r3
 8002878:	f3bf 8f6f 	isb	sy
 800287c:	f3bf 8f4f 	dsb	sy
 8002880:	e7fe      	b.n	8002880 <xTaskRemoveFromEventList+0x18>
 8002882:	f104 0518 	add.w	r5, r4, #24
 8002886:	4628      	mov	r0, r5
 8002888:	f7ff f8c6 	bl	8001a18 <uxListRemove>
 800288c:	4b11      	ldr	r3, [pc, #68]	; (80028d4 <xTaskRemoveFromEventList+0x6c>)
 800288e:	681b      	ldr	r3, [r3, #0]
 8002890:	b9e3      	cbnz	r3, 80028cc <xTaskRemoveFromEventList+0x64>
 8002892:	1d25      	adds	r5, r4, #4
 8002894:	4628      	mov	r0, r5
 8002896:	f7ff f8bf 	bl	8001a18 <uxListRemove>
 800289a:	2301      	movs	r3, #1
 800289c:	490e      	ldr	r1, [pc, #56]	; (80028d8 <xTaskRemoveFromEventList+0x70>)
 800289e:	6ae2      	ldr	r2, [r4, #44]	; 0x2c
 80028a0:	6808      	ldr	r0, [r1, #0]
 80028a2:	4093      	lsls	r3, r2
 80028a4:	4303      	orrs	r3, r0
 80028a6:	2014      	movs	r0, #20
 80028a8:	600b      	str	r3, [r1, #0]
 80028aa:	4629      	mov	r1, r5
 80028ac:	4b0b      	ldr	r3, [pc, #44]	; (80028dc <xTaskRemoveFromEventList+0x74>)
 80028ae:	fb00 3002 	mla	r0, r0, r2, r3
 80028b2:	f7ff f88e 	bl	80019d2 <vListInsertEnd>
 80028b6:	4b0a      	ldr	r3, [pc, #40]	; (80028e0 <xTaskRemoveFromEventList+0x78>)
 80028b8:	6ae2      	ldr	r2, [r4, #44]	; 0x2c
 80028ba:	681b      	ldr	r3, [r3, #0]
 80028bc:	6adb      	ldr	r3, [r3, #44]	; 0x2c
 80028be:	429a      	cmp	r2, r3
 80028c0:	bf85      	ittet	hi
 80028c2:	2001      	movhi	r0, #1
 80028c4:	4b07      	ldrhi	r3, [pc, #28]	; (80028e4 <xTaskRemoveFromEventList+0x7c>)
 80028c6:	2000      	movls	r0, #0
 80028c8:	6018      	strhi	r0, [r3, #0]
 80028ca:	bd38      	pop	{r3, r4, r5, pc}
 80028cc:	4629      	mov	r1, r5
 80028ce:	4806      	ldr	r0, [pc, #24]	; (80028e8 <xTaskRemoveFromEventList+0x80>)
 80028d0:	e7ef      	b.n	80028b2 <xTaskRemoveFromEventList+0x4a>
 80028d2:	bf00      	nop
 80028d4:	20000434 	.word	0x20000434
 80028d8:	2000043c 	.word	0x2000043c
 80028dc:	2000039c 	.word	0x2000039c
 80028e0:	20000390 	.word	0x20000390
 80028e4:	200004b4 	.word	0x200004b4
 80028e8:	20000470 	.word	0x20000470

080028ec <vTaskInternalSetTimeOutState>:
 80028ec:	4b03      	ldr	r3, [pc, #12]	; (80028fc <vTaskInternalSetTimeOutState+0x10>)
 80028ee:	681b      	ldr	r3, [r3, #0]
 80028f0:	6003      	str	r3, [r0, #0]
 80028f2:	4b03      	ldr	r3, [pc, #12]	; (8002900 <vTaskInternalSetTimeOutState+0x14>)
 80028f4:	681b      	ldr	r3, [r3, #0]
 80028f6:	6043      	str	r3, [r0, #4]
 80028f8:	4770      	bx	lr
 80028fa:	bf00      	nop
 80028fc:	2000046c 	.word	0x2000046c
 8002900:	200004b0 	.word	0x200004b0

08002904 <xTaskCheckForTimeOut>:
 8002904:	b570      	push	{r4, r5, r6, lr}
 8002906:	460c      	mov	r4, r1
 8002908:	4605      	mov	r5, r0
 800290a:	b940      	cbnz	r0, 800291e <xTaskCheckForTimeOut+0x1a>
 800290c:	f04f 0350 	mov.w	r3, #80	; 0x50
 8002910:	f383 8811 	msr	BASEPRI, r3
 8002914:	f3bf 8f6f 	isb	sy
 8002918:	f3bf 8f4f 	dsb	sy
 800291c:	e7fe      	b.n	800291c <xTaskCheckForTimeOut+0x18>
 800291e:	b941      	cbnz	r1, 8002932 <xTaskCheckForTimeOut+0x2e>
 8002920:	f04f 0350 	mov.w	r3, #80	; 0x50
 8002924:	f383 8811 	msr	BASEPRI, r3
 8002928:	f3bf 8f6f 	isb	sy
 800292c:	f3bf 8f4f 	dsb	sy
 8002930:	e7fe      	b.n	8002930 <xTaskCheckForTimeOut+0x2c>
 8002932:	f000 f997 	bl	8002c64 <vPortEnterCritical>
 8002936:	4b0f      	ldr	r3, [pc, #60]	; (8002974 <xTaskCheckForTimeOut+0x70>)
 8002938:	6819      	ldr	r1, [r3, #0]
 800293a:	6823      	ldr	r3, [r4, #0]
 800293c:	1c5a      	adds	r2, r3, #1
 800293e:	d010      	beq.n	8002962 <xTaskCheckForTimeOut+0x5e>
 8002940:	480d      	ldr	r0, [pc, #52]	; (8002978 <xTaskCheckForTimeOut+0x74>)
 8002942:	682e      	ldr	r6, [r5, #0]
 8002944:	6800      	ldr	r0, [r0, #0]
 8002946:	686a      	ldr	r2, [r5, #4]
 8002948:	4286      	cmp	r6, r0
 800294a:	d001      	beq.n	8002950 <xTaskCheckForTimeOut+0x4c>
 800294c:	428a      	cmp	r2, r1
 800294e:	d90f      	bls.n	8002970 <xTaskCheckForTimeOut+0x6c>
 8002950:	1a88      	subs	r0, r1, r2
 8002952:	4283      	cmp	r3, r0
 8002954:	d90a      	bls.n	800296c <xTaskCheckForTimeOut+0x68>
 8002956:	1a5b      	subs	r3, r3, r1
 8002958:	4413      	add	r3, r2
 800295a:	4628      	mov	r0, r5
 800295c:	6023      	str	r3, [r4, #0]
 800295e:	f7ff ffc5 	bl	80028ec <vTaskInternalSetTimeOutState>
 8002962:	2400      	movs	r4, #0
 8002964:	f000 f99e 	bl	8002ca4 <vPortExitCritical>
 8002968:	4620      	mov	r0, r4
 800296a:	bd70      	pop	{r4, r5, r6, pc}
 800296c:	2300      	movs	r3, #0
 800296e:	6023      	str	r3, [r4, #0]
 8002970:	2401      	movs	r4, #1
 8002972:	e7f7      	b.n	8002964 <xTaskCheckForTimeOut+0x60>
 8002974:	200004b0 	.word	0x200004b0
 8002978:	2000046c 	.word	0x2000046c

0800297c <vTaskMissedYield>:
 800297c:	2201      	movs	r2, #1
 800297e:	4b01      	ldr	r3, [pc, #4]	; (8002984 <vTaskMissedYield+0x8>)
 8002980:	601a      	str	r2, [r3, #0]
 8002982:	4770      	bx	lr
 8002984:	200004b4 	.word	0x200004b4

08002988 <xTaskGetSchedulerState>:
 8002988:	4b05      	ldr	r3, [pc, #20]	; (80029a0 <xTaskGetSchedulerState+0x18>)
 800298a:	681b      	ldr	r3, [r3, #0]
 800298c:	b133      	cbz	r3, 800299c <xTaskGetSchedulerState+0x14>
 800298e:	4b05      	ldr	r3, [pc, #20]	; (80029a4 <xTaskGetSchedulerState+0x1c>)
 8002990:	681b      	ldr	r3, [r3, #0]
 8002992:	2b00      	cmp	r3, #0
 8002994:	bf0c      	ite	eq
 8002996:	2002      	moveq	r0, #2
 8002998:	2000      	movne	r0, #0
 800299a:	4770      	bx	lr
 800299c:	2001      	movs	r0, #1
 800299e:	4770      	bx	lr
 80029a0:	20000484 	.word	0x20000484
 80029a4:	20000434 	.word	0x20000434

080029a8 <xTaskPriorityInherit>:
 80029a8:	e92d 41f0 	stmdb	sp!, {r4, r5, r6, r7, r8, lr}
 80029ac:	4604      	mov	r4, r0
 80029ae:	b358      	cbz	r0, 8002a08 <xTaskPriorityInherit+0x60>
 80029b0:	4d23      	ldr	r5, [pc, #140]	; (8002a40 <xTaskPriorityInherit+0x98>)
 80029b2:	6ac3      	ldr	r3, [r0, #44]	; 0x2c
 80029b4:	682a      	ldr	r2, [r5, #0]
 80029b6:	6ad2      	ldr	r2, [r2, #44]	; 0x2c
 80029b8:	4293      	cmp	r3, r2
 80029ba:	d239      	bcs.n	8002a30 <xTaskPriorityInherit+0x88>
 80029bc:	2614      	movs	r6, #20
 80029be:	6982      	ldr	r2, [r0, #24]
 80029c0:	4f20      	ldr	r7, [pc, #128]	; (8002a44 <xTaskPriorityInherit+0x9c>)
 80029c2:	2a00      	cmp	r2, #0
 80029c4:	bfa8      	it	ge
 80029c6:	682a      	ldrge	r2, [r5, #0]
 80029c8:	fb06 7303 	mla	r3, r6, r3, r7
 80029cc:	bfa2      	ittt	ge
 80029ce:	6ad2      	ldrge	r2, [r2, #44]	; 0x2c
 80029d0:	f1c2 0207 	rsbge	r2, r2, #7
 80029d4:	6182      	strge	r2, [r0, #24]
 80029d6:	6942      	ldr	r2, [r0, #20]
 80029d8:	429a      	cmp	r2, r3
 80029da:	d117      	bne.n	8002a0c <xTaskPriorityInherit+0x64>
 80029dc:	f100 0804 	add.w	r8, r0, #4
 80029e0:	4640      	mov	r0, r8
 80029e2:	f7ff f819 	bl	8001a18 <uxListRemove>
 80029e6:	4b18      	ldr	r3, [pc, #96]	; (8002a48 <xTaskPriorityInherit+0xa0>)
 80029e8:	b1b0      	cbz	r0, 8002a18 <xTaskPriorityInherit+0x70>
 80029ea:	682a      	ldr	r2, [r5, #0]
 80029ec:	6819      	ldr	r1, [r3, #0]
 80029ee:	6ad2      	ldr	r2, [r2, #44]	; 0x2c
 80029f0:	62e2      	str	r2, [r4, #44]	; 0x2c
 80029f2:	2401      	movs	r4, #1
 80029f4:	fa04 f002 	lsl.w	r0, r4, r2
 80029f8:	4308      	orrs	r0, r1
 80029fa:	6018      	str	r0, [r3, #0]
 80029fc:	2014      	movs	r0, #20
 80029fe:	4641      	mov	r1, r8
 8002a00:	fb00 7002 	mla	r0, r0, r2, r7
 8002a04:	f7fe ffe5 	bl	80019d2 <vListInsertEnd>
 8002a08:	4620      	mov	r0, r4
 8002a0a:	e003      	b.n	8002a14 <xTaskPriorityInherit+0x6c>
 8002a0c:	682b      	ldr	r3, [r5, #0]
 8002a0e:	6adb      	ldr	r3, [r3, #44]	; 0x2c
 8002a10:	62c3      	str	r3, [r0, #44]	; 0x2c
 8002a12:	2001      	movs	r0, #1
 8002a14:	e8bd 81f0 	ldmia.w	sp!, {r4, r5, r6, r7, r8, pc}
 8002a18:	6ae0      	ldr	r0, [r4, #44]	; 0x2c
 8002a1a:	4346      	muls	r6, r0
 8002a1c:	59ba      	ldr	r2, [r7, r6]
 8002a1e:	2a00      	cmp	r2, #0
 8002a20:	d1e3      	bne.n	80029ea <xTaskPriorityInherit+0x42>
 8002a22:	2101      	movs	r1, #1
 8002a24:	681a      	ldr	r2, [r3, #0]
 8002a26:	4081      	lsls	r1, r0
 8002a28:	ea22 0201 	bic.w	r2, r2, r1
 8002a2c:	601a      	str	r2, [r3, #0]
 8002a2e:	e7dc      	b.n	80029ea <xTaskPriorityInherit+0x42>
 8002a30:	682b      	ldr	r3, [r5, #0]
 8002a32:	6c40      	ldr	r0, [r0, #68]	; 0x44
 8002a34:	6adc      	ldr	r4, [r3, #44]	; 0x2c
 8002a36:	42a0      	cmp	r0, r4
 8002a38:	bf2c      	ite	cs
 8002a3a:	2000      	movcs	r0, #0
 8002a3c:	2001      	movcc	r0, #1
 8002a3e:	e7e9      	b.n	8002a14 <xTaskPriorityInherit+0x6c>
 8002a40:	20000390 	.word	0x20000390
 8002a44:	2000039c 	.word	0x2000039c
 8002a48:	2000043c 	.word	0x2000043c

08002a4c <xTaskPriorityDisinherit>:
 8002a4c:	b5f8      	push	{r3, r4, r5, r6, r7, lr}
 8002a4e:	4604      	mov	r4, r0
 8002a50:	b908      	cbnz	r0, 8002a56 <xTaskPriorityDisinherit+0xa>
 8002a52:	2000      	movs	r0, #0
 8002a54:	bdf8      	pop	{r3, r4, r5, r6, r7, pc}
 8002a56:	4b22      	ldr	r3, [pc, #136]	; (8002ae0 <xTaskPriorityDisinherit+0x94>)
 8002a58:	681b      	ldr	r3, [r3, #0]
 8002a5a:	4283      	cmp	r3, r0
 8002a5c:	d008      	beq.n	8002a70 <xTaskPriorityDisinherit+0x24>
 8002a5e:	f04f 0350 	mov.w	r3, #80	; 0x50
 8002a62:	f383 8811 	msr	BASEPRI, r3
 8002a66:	f3bf 8f6f 	isb	sy
 8002a6a:	f3bf 8f4f 	dsb	sy
 8002a6e:	e7fe      	b.n	8002a6e <xTaskPriorityDisinherit+0x22>
 8002a70:	6c9b      	ldr	r3, [r3, #72]	; 0x48
 8002a72:	b943      	cbnz	r3, 8002a86 <xTaskPriorityDisinherit+0x3a>
 8002a74:	f04f 0350 	mov.w	r3, #80	; 0x50
 8002a78:	f383 8811 	msr	BASEPRI, r3
 8002a7c:	f3bf 8f6f 	isb	sy
 8002a80:	f3bf 8f4f 	dsb	sy
 8002a84:	e7fe      	b.n	8002a84 <xTaskPriorityDisinherit+0x38>
 8002a86:	6ac1      	ldr	r1, [r0, #44]	; 0x2c
 8002a88:	6c42      	ldr	r2, [r0, #68]	; 0x44
 8002a8a:	3b01      	subs	r3, #1
 8002a8c:	4291      	cmp	r1, r2
 8002a8e:	6483      	str	r3, [r0, #72]	; 0x48
 8002a90:	d0df      	beq.n	8002a52 <xTaskPriorityDisinherit+0x6>
 8002a92:	2b00      	cmp	r3, #0
 8002a94:	d1dd      	bne.n	8002a52 <xTaskPriorityDisinherit+0x6>
 8002a96:	1d06      	adds	r6, r0, #4
 8002a98:	4630      	mov	r0, r6
 8002a9a:	f7fe ffbd 	bl	8001a18 <uxListRemove>
 8002a9e:	4f11      	ldr	r7, [pc, #68]	; (8002ae4 <xTaskPriorityDisinherit+0x98>)
 8002aa0:	4a11      	ldr	r2, [pc, #68]	; (8002ae8 <xTaskPriorityDisinherit+0x9c>)
 8002aa2:	b950      	cbnz	r0, 8002aba <xTaskPriorityDisinherit+0x6e>
 8002aa4:	2114      	movs	r1, #20
 8002aa6:	6ae0      	ldr	r0, [r4, #44]	; 0x2c
 8002aa8:	4341      	muls	r1, r0
 8002aaa:	587b      	ldr	r3, [r7, r1]
 8002aac:	b92b      	cbnz	r3, 8002aba <xTaskPriorityDisinherit+0x6e>
 8002aae:	2501      	movs	r5, #1
 8002ab0:	6813      	ldr	r3, [r2, #0]
 8002ab2:	4085      	lsls	r5, r0
 8002ab4:	ea23 0305 	bic.w	r3, r3, r5
 8002ab8:	6013      	str	r3, [r2, #0]
 8002aba:	6c63      	ldr	r3, [r4, #68]	; 0x44
 8002abc:	2014      	movs	r0, #20
 8002abe:	f1c3 0107 	rsb	r1, r3, #7
 8002ac2:	61a1      	str	r1, [r4, #24]
 8002ac4:	62e3      	str	r3, [r4, #44]	; 0x2c
 8002ac6:	2401      	movs	r4, #1
 8002ac8:	6811      	ldr	r1, [r2, #0]
 8002aca:	fa04 f503 	lsl.w	r5, r4, r3
 8002ace:	fb00 7003 	mla	r0, r0, r3, r7
 8002ad2:	430d      	orrs	r5, r1
 8002ad4:	4631      	mov	r1, r6
 8002ad6:	6015      	str	r5, [r2, #0]
 8002ad8:	f7fe ff7b 	bl	80019d2 <vListInsertEnd>
 8002adc:	4620      	mov	r0, r4
 8002ade:	e7b9      	b.n	8002a54 <xTaskPriorityDisinherit+0x8>
 8002ae0:	20000390 	.word	0x20000390
 8002ae4:	2000039c 	.word	0x2000039c
 8002ae8:	2000043c 	.word	0x2000043c

08002aec <vTaskPriorityDisinheritAfterTimeout>:
 8002aec:	b5f8      	push	{r3, r4, r5, r6, r7, lr}
 8002aee:	4604      	mov	r4, r0
 8002af0:	2800      	cmp	r0, #0
 8002af2:	d04b      	beq.n	8002b8c <vTaskPriorityDisinheritAfterTimeout+0xa0>
 8002af4:	6c82      	ldr	r2, [r0, #72]	; 0x48
 8002af6:	b942      	cbnz	r2, 8002b0a <vTaskPriorityDisinheritAfterTimeout+0x1e>
 8002af8:	f04f 0350 	mov.w	r3, #80	; 0x50
 8002afc:	f383 8811 	msr	BASEPRI, r3
 8002b00:	f3bf 8f6f 	isb	sy
 8002b04:	f3bf 8f4f 	dsb	sy
 8002b08:	e7fe      	b.n	8002b08 <vTaskPriorityDisinheritAfterTimeout+0x1c>
 8002b0a:	6c43      	ldr	r3, [r0, #68]	; 0x44
 8002b0c:	4299      	cmp	r1, r3
 8002b0e:	bf38      	it	cc
 8002b10:	4619      	movcc	r1, r3
 8002b12:	6ac3      	ldr	r3, [r0, #44]	; 0x2c
 8002b14:	428b      	cmp	r3, r1
 8002b16:	d039      	beq.n	8002b8c <vTaskPriorityDisinheritAfterTimeout+0xa0>
 8002b18:	2a01      	cmp	r2, #1
 8002b1a:	d137      	bne.n	8002b8c <vTaskPriorityDisinheritAfterTimeout+0xa0>
 8002b1c:	4a1c      	ldr	r2, [pc, #112]	; (8002b90 <vTaskPriorityDisinheritAfterTimeout+0xa4>)
 8002b1e:	6812      	ldr	r2, [r2, #0]
 8002b20:	4282      	cmp	r2, r0
 8002b22:	d108      	bne.n	8002b36 <vTaskPriorityDisinheritAfterTimeout+0x4a>
 8002b24:	f04f 0350 	mov.w	r3, #80	; 0x50
 8002b28:	f383 8811 	msr	BASEPRI, r3
 8002b2c:	f3bf 8f6f 	isb	sy
 8002b30:	f3bf 8f4f 	dsb	sy
 8002b34:	e7fe      	b.n	8002b34 <vTaskPriorityDisinheritAfterTimeout+0x48>
 8002b36:	2514      	movs	r5, #20
 8002b38:	4e16      	ldr	r6, [pc, #88]	; (8002b94 <vTaskPriorityDisinheritAfterTimeout+0xa8>)
 8002b3a:	6982      	ldr	r2, [r0, #24]
 8002b3c:	fb05 6303 	mla	r3, r5, r3, r6
 8002b40:	2a00      	cmp	r2, #0
 8002b42:	6942      	ldr	r2, [r0, #20]
 8002b44:	62c1      	str	r1, [r0, #44]	; 0x2c
 8002b46:	bfa4      	itt	ge
 8002b48:	f1c1 0107 	rsbge	r1, r1, #7
 8002b4c:	6181      	strge	r1, [r0, #24]
 8002b4e:	429a      	cmp	r2, r3
 8002b50:	d11c      	bne.n	8002b8c <vTaskPriorityDisinheritAfterTimeout+0xa0>
 8002b52:	1d07      	adds	r7, r0, #4
 8002b54:	4638      	mov	r0, r7
 8002b56:	f7fe ff5f 	bl	8001a18 <uxListRemove>
 8002b5a:	6ae2      	ldr	r2, [r4, #44]	; 0x2c
 8002b5c:	4c0e      	ldr	r4, [pc, #56]	; (8002b98 <vTaskPriorityDisinheritAfterTimeout+0xac>)
 8002b5e:	b940      	cbnz	r0, 8002b72 <vTaskPriorityDisinheritAfterTimeout+0x86>
 8002b60:	4355      	muls	r5, r2
 8002b62:	5973      	ldr	r3, [r6, r5]
 8002b64:	b92b      	cbnz	r3, 8002b72 <vTaskPriorityDisinheritAfterTimeout+0x86>
 8002b66:	2101      	movs	r1, #1
 8002b68:	6823      	ldr	r3, [r4, #0]
 8002b6a:	4091      	lsls	r1, r2
 8002b6c:	ea23 0301 	bic.w	r3, r3, r1
 8002b70:	6023      	str	r3, [r4, #0]
 8002b72:	2301      	movs	r3, #1
 8002b74:	2014      	movs	r0, #20
 8002b76:	6821      	ldr	r1, [r4, #0]
 8002b78:	4093      	lsls	r3, r2
 8002b7a:	430b      	orrs	r3, r1
 8002b7c:	fb00 6002 	mla	r0, r0, r2, r6
 8002b80:	4639      	mov	r1, r7
 8002b82:	6023      	str	r3, [r4, #0]
 8002b84:	e8bd 40f8 	ldmia.w	sp!, {r3, r4, r5, r6, r7, lr}
 8002b88:	f7fe bf23 	b.w	80019d2 <vListInsertEnd>
 8002b8c:	bdf8      	pop	{r3, r4, r5, r6, r7, pc}
 8002b8e:	bf00      	nop
 8002b90:	20000390 	.word	0x20000390
 8002b94:	2000039c 	.word	0x2000039c
 8002b98:	2000043c 	.word	0x2000043c

08002b9c <pvTaskIncrementMutexHeldCount>:
 8002b9c:	4b04      	ldr	r3, [pc, #16]	; (8002bb0 <pvTaskIncrementMutexHeldCount+0x14>)
 8002b9e:	681a      	ldr	r2, [r3, #0]
 8002ba0:	b11a      	cbz	r2, 8002baa <pvTaskIncrementMutexHeldCount+0xe>
 8002ba2:	6819      	ldr	r1, [r3, #0]
 8002ba4:	6c8a      	ldr	r2, [r1, #72]	; 0x48
 8002ba6:	3201      	adds	r2, #1
 8002ba8:	648a      	str	r2, [r1, #72]	; 0x48
 8002baa:	6818      	ldr	r0, [r3, #0]
 8002bac:	4770      	bx	lr
 8002bae:	bf00      	nop
 8002bb0:	20000390 	.word	0x20000390

08002bb4 <prvPortStartFirstTask>:
 8002bb4:	4806      	ldr	r0, [pc, #24]	; (8002bd0 <prvPortStartFirstTask+0x1c>)
 8002bb6:	6800      	ldr	r0, [r0, #0]
 8002bb8:	6800      	ldr	r0, [r0, #0]
 8002bba:	f380 8808 	msr	MSP, r0
 8002bbe:	b662      	cpsie	i
 8002bc0:	b661      	cpsie	f
 8002bc2:	f3bf 8f4f 	dsb	sy
 8002bc6:	f3bf 8f6f 	isb	sy
 8002bca:	df00      	svc	0
 8002bcc:	bf00      	nop
 8002bce:	0000      	.short	0x0000
 8002bd0:	e000ed08 	.word	0xe000ed08

08002bd4 <prvTaskExitError>:
 8002bd4:	2300      	movs	r3, #0
 8002bd6:	b082      	sub	sp, #8
 8002bd8:	9301      	str	r3, [sp, #4]
 8002bda:	4b0d      	ldr	r3, [pc, #52]	; (8002c10 <prvTaskExitError+0x3c>)
 8002bdc:	681b      	ldr	r3, [r3, #0]
 8002bde:	3301      	adds	r3, #1
 8002be0:	d008      	beq.n	8002bf4 <prvTaskExitError+0x20>
 8002be2:	f04f 0350 	mov.w	r3, #80	; 0x50
 8002be6:	f383 8811 	msr	BASEPRI, r3
 8002bea:	f3bf 8f6f 	isb	sy
 8002bee:	f3bf 8f4f 	dsb	sy
 8002bf2:	e7fe      	b.n	8002bf2 <prvTaskExitError+0x1e>
 8002bf4:	f04f 0350 	mov.w	r3, #80	; 0x50
 8002bf8:	f383 8811 	msr	BASEPRI, r3
 8002bfc:	f3bf 8f6f 	isb	sy
 8002c00:	f3bf 8f4f 	dsb	sy
 8002c04:	9b01      	ldr	r3, [sp, #4]
 8002c06:	2b00      	cmp	r3, #0
 8002c08:	d0fc      	beq.n	8002c04 <prvTaskExitError+0x30>
 8002c0a:	b002      	add	sp, #8
 8002c0c:	4770      	bx	lr
 8002c0e:	bf00      	nop
 8002c10:	2000000c 	.word	0x2000000c

08002c14 <pxPortInitialiseStack>:
 8002c14:	f04f 7380 	mov.w	r3, #16777216	; 0x1000000
 8002c18:	f840 3c04 	str.w	r3, [r0, #-4]
 8002c1c:	4b05      	ldr	r3, [pc, #20]	; (8002c34 <pxPortInitialiseStack+0x20>)
 8002c1e:	f021 0101 	bic.w	r1, r1, #1
 8002c22:	f840 1c08 	str.w	r1, [r0, #-8]
 8002c26:	f840 3c0c 	str.w	r3, [r0, #-12]
 8002c2a:	f840 2c20 	str.w	r2, [r0, #-32]
 8002c2e:	3840      	subs	r0, #64	; 0x40
 8002c30:	4770      	bx	lr
 8002c32:	bf00      	nop
 8002c34:	08002bd5 	.word	0x08002bd5
	...

08002c40 <SVC_Handler>:
 8002c40:	4b07      	ldr	r3, [pc, #28]	; (8002c60 <pxCurrentTCBConst2>)
 8002c42:	6819      	ldr	r1, [r3, #0]
 8002c44:	6808      	ldr	r0, [r1, #0]
 8002c46:	e8b0 0ff0 	ldmia.w	r0!, {r4, r5, r6, r7, r8, r9, sl, fp}
 8002c4a:	f380 8809 	msr	PSP, r0
 8002c4e:	f3bf 8f6f 	isb	sy
 8002c52:	f04f 0000 	mov.w	r0, #0
 8002c56:	f380 8811 	msr	BASEPRI, r0
 8002c5a:	f04e 0e0d 	orr.w	lr, lr, #13
 8002c5e:	4770      	bx	lr

08002c60 <pxCurrentTCBConst2>:
 8002c60:	20000390 	.word	0x20000390

08002c64 <vPortEnterCritical>:
 8002c64:	f04f 0350 	mov.w	r3, #80	; 0x50
 8002c68:	f383 8811 	msr	BASEPRI, r3
 8002c6c:	f3bf 8f6f 	isb	sy
 8002c70:	f3bf 8f4f 	dsb	sy
 8002c74:	4a0a      	ldr	r2, [pc, #40]	; (8002ca0 <vPortEnterCritical+0x3c>)
 8002c76:	6813      	ldr	r3, [r2, #0]
 8002c78:	3301      	adds	r3, #1
 8002c7a:	2b01      	cmp	r3, #1
 8002c7c:	6013      	str	r3, [r2, #0]
 8002c7e:	d10e      	bne.n	8002c9e <vPortEnterCritical+0x3a>
 8002c80:	f04f 23e0 	mov.w	r3, #3758153728	; 0xe000e000
 8002c84:	f8d3 3d04 	ldr.w	r3, [r3, #3332]	; 0xd04
 8002c88:	b2db      	uxtb	r3, r3
 8002c8a:	b143      	cbz	r3, 8002c9e <vPortEnterCritical+0x3a>
 8002c8c:	f04f 0350 	mov.w	r3, #80	; 0x50
 8002c90:	f383 8811 	msr	BASEPRI, r3
 8002c94:	f3bf 8f6f 	isb	sy
 8002c98:	f3bf 8f4f 	dsb	sy
 8002c9c:	e7fe      	b.n	8002c9c <vPortEnterCritical+0x38>
 8002c9e:	4770      	bx	lr
 8002ca0:	2000000c 	.word	0x2000000c

08002ca4 <vPortExitCritical>:
 8002ca4:	4a08      	ldr	r2, [pc, #32]	; (8002cc8 <vPortExitCritical+0x24>)
 8002ca6:	6813      	ldr	r3, [r2, #0]
 8002ca8:	b943      	cbnz	r3, 8002cbc <vPortExitCritical+0x18>
 8002caa:	f04f 0350 	mov.w	r3, #80	; 0x50
 8002cae:	f383 8811 	msr	BASEPRI, r3
 8002cb2:	f3bf 8f6f 	isb	sy
 8002cb6:	f3bf 8f4f 	dsb	sy
 8002cba:	e7fe      	b.n	8002cba <vPortExitCritical+0x16>
 8002cbc:	3b01      	subs	r3, #1
 8002cbe:	6013      	str	r3, [r2, #0]
 8002cc0:	b90b      	cbnz	r3, 8002cc6 <vPortExitCritical+0x22>
 8002cc2:	f383 8811 	msr	BASEPRI, r3
 8002cc6:	4770      	bx	lr
 8002cc8:	2000000c 	.word	0x2000000c
 8002ccc:	00000000 	.word	0x00000000

08002cd0 <PendSV_Handler>:
 8002cd0:	f3ef 8009 	mrs	r0, PSP
 8002cd4:	f3bf 8f6f 	isb	sy
 8002cd8:	4b0d      	ldr	r3, [pc, #52]	; (8002d10 <pxCurrentTCBConst>)
 8002cda:	681a      	ldr	r2, [r3, #0]
 8002cdc:	e920 0ff0 	stmdb	r0!, {r4, r5, r6, r7, r8, r9, sl, fp}
 8002ce0:	6010      	str	r0, [r2, #0]
 8002ce2:	e92d 4008 	stmdb	sp!, {r3, lr}
 8002ce6:	f04f 0050 	mov.w	r0, #80	; 0x50
 8002cea:	f380 8811 	msr	BASEPRI, r0
 8002cee:	f7ff fd67 	bl	80027c0 <vTaskSwitchContext>
 8002cf2:	f04f 0000 	mov.w	r0, #0
 8002cf6:	f380 8811 	msr	BASEPRI, r0
 8002cfa:	e8bd 4008 	ldmia.w	sp!, {r3, lr}
 8002cfe:	6819      	ldr	r1, [r3, #0]
 8002d00:	6808      	ldr	r0, [r1, #0]
 8002d02:	e8b0 0ff0 	ldmia.w	r0!, {r4, r5, r6, r7, r8, r9, sl, fp}
 8002d06:	f380 8809 	msr	PSP, r0
 8002d0a:	f3bf 8f6f 	isb	sy
 8002d0e:	4770      	bx	lr

08002d10 <pxCurrentTCBConst>:
 8002d10:	20000390 	.word	0x20000390

08002d14 <SysTick_Handler>:
 8002d14:	b508      	push	{r3, lr}
 8002d16:	f04f 0350 	mov.w	r3, #80	; 0x50
 8002d1a:	f383 8811 	msr	BASEPRI, r3
 8002d1e:	f3bf 8f6f 	isb	sy
 8002d22:	f3bf 8f4f 	dsb	sy
 8002d26:	f7ff fc1f 	bl	8002568 <xTaskIncrementTick>
 8002d2a:	b128      	cbz	r0, 8002d38 <SysTick_Handler+0x24>
 8002d2c:	f04f 23e0 	mov.w	r3, #3758153728	; 0xe000e000
 8002d30:	f04f 5280 	mov.w	r2, #268435456	; 0x10000000
 8002d34:	f8c3 2d04 	str.w	r2, [r3, #3332]	; 0xd04
 8002d38:	2300      	movs	r3, #0
 8002d3a:	f383 8811 	msr	BASEPRI, r3
 8002d3e:	bd08      	pop	{r3, pc}

08002d40 <vPortSetupTimerInterrupt>:
 8002d40:	f04f 22e0 	mov.w	r2, #3758153728	; 0xe000e000
 8002d44:	2300      	movs	r3, #0
 8002d46:	f44f 717a 	mov.w	r1, #1000	; 0x3e8
 8002d4a:	6113      	str	r3, [r2, #16]
 8002d4c:	6193      	str	r3, [r2, #24]
 8002d4e:	4b04      	ldr	r3, [pc, #16]	; (8002d60 <vPortSetupTimerInterrupt+0x20>)
 8002d50:	681b      	ldr	r3, [r3, #0]
 8002d52:	fbb3 f3f1 	udiv	r3, r3, r1
 8002d56:	3b01      	subs	r3, #1
 8002d58:	6153      	str	r3, [r2, #20]
 8002d5a:	2307      	movs	r3, #7
 8002d5c:	6113      	str	r3, [r2, #16]
 8002d5e:	4770      	bx	lr
 8002d60:	20000000 	.word	0x20000000

08002d64 <xPortStartScheduler>:
 8002d64:	b513      	push	{r0, r1, r4, lr}
 8002d66:	4b29      	ldr	r3, [pc, #164]	; (8002e0c <xPortStartScheduler+0xa8>)
 8002d68:	2100      	movs	r1, #0
 8002d6a:	781a      	ldrb	r2, [r3, #0]
 8002d6c:	b2d2      	uxtb	r2, r2
 8002d6e:	9201      	str	r2, [sp, #4]
 8002d70:	22ff      	movs	r2, #255	; 0xff
 8002d72:	701a      	strb	r2, [r3, #0]
 8002d74:	781b      	ldrb	r3, [r3, #0]
 8002d76:	4a26      	ldr	r2, [pc, #152]	; (8002e10 <xPortStartScheduler+0xac>)
 8002d78:	b2db      	uxtb	r3, r3
 8002d7a:	f88d 3003 	strb.w	r3, [sp, #3]
 8002d7e:	f89d 3003 	ldrb.w	r3, [sp, #3]
 8002d82:	f003 0350 	and.w	r3, r3, #80	; 0x50
 8002d86:	7013      	strb	r3, [r2, #0]
 8002d88:	2307      	movs	r3, #7
 8002d8a:	4a22      	ldr	r2, [pc, #136]	; (8002e14 <xPortStartScheduler+0xb0>)
 8002d8c:	6013      	str	r3, [r2, #0]
 8002d8e:	f89d 0003 	ldrb.w	r0, [sp, #3]
 8002d92:	1e5c      	subs	r4, r3, #1
 8002d94:	0600      	lsls	r0, r0, #24
 8002d96:	d40c      	bmi.n	8002db2 <xPortStartScheduler+0x4e>
 8002d98:	b111      	cbz	r1, 8002da0 <xPortStartScheduler+0x3c>
 8002d9a:	2b03      	cmp	r3, #3
 8002d9c:	6013      	str	r3, [r2, #0]
 8002d9e:	d011      	beq.n	8002dc4 <xPortStartScheduler+0x60>
 8002da0:	f04f 0350 	mov.w	r3, #80	; 0x50
 8002da4:	f383 8811 	msr	BASEPRI, r3
 8002da8:	f3bf 8f6f 	isb	sy
 8002dac:	f3bf 8f4f 	dsb	sy
 8002db0:	e7fe      	b.n	8002db0 <xPortStartScheduler+0x4c>
 8002db2:	f89d 3003 	ldrb.w	r3, [sp, #3]
 8002db6:	2101      	movs	r1, #1
 8002db8:	005b      	lsls	r3, r3, #1
 8002dba:	b2db      	uxtb	r3, r3
 8002dbc:	f88d 3003 	strb.w	r3, [sp, #3]
 8002dc0:	4623      	mov	r3, r4
 8002dc2:	e7e4      	b.n	8002d8e <xPortStartScheduler+0x2a>
 8002dc4:	f44f 7340 	mov.w	r3, #768	; 0x300
 8002dc8:	6013      	str	r3, [r2, #0]
 8002dca:	9b01      	ldr	r3, [sp, #4]
 8002dcc:	4a0f      	ldr	r2, [pc, #60]	; (8002e0c <xPortStartScheduler+0xa8>)
 8002dce:	b2db      	uxtb	r3, r3
 8002dd0:	7013      	strb	r3, [r2, #0]
 8002dd2:	f04f 23e0 	mov.w	r3, #3758153728	; 0xe000e000
 8002dd6:	2400      	movs	r4, #0
 8002dd8:	f8d3 2d20 	ldr.w	r2, [r3, #3360]	; 0xd20
 8002ddc:	f442 0270 	orr.w	r2, r2, #15728640	; 0xf00000
 8002de0:	f8c3 2d20 	str.w	r2, [r3, #3360]	; 0xd20
 8002de4:	f8d3 2d20 	ldr.w	r2, [r3, #3360]	; 0xd20
 8002de8:	f042 4270 	orr.w	r2, r2, #4026531840	; 0xf0000000
 8002dec:	f8c3 2d20 	str.w	r2, [r3, #3360]	; 0xd20
 8002df0:	f7ff ffa6 	bl	8002d40 <vPortSetupTimerInterrupt>
 8002df4:	4b08      	ldr	r3, [pc, #32]	; (8002e18 <xPortStartScheduler+0xb4>)
 8002df6:	601c      	str	r4, [r3, #0]
 8002df8:	f7ff fedc 	bl	8002bb4 <prvPortStartFirstTask>
 8002dfc:	f7ff fce0 	bl	80027c0 <vTaskSwitchContext>
 8002e00:	4620      	mov	r0, r4
 8002e02:	f7ff fee7 	bl	8002bd4 <prvTaskExitError>
 8002e06:	b002      	add	sp, #8
 8002e08:	bd10      	pop	{r4, pc}
 8002e0a:	bf00      	nop
 8002e0c:	e000e400 	.word	0xe000e400
 8002e10:	200004b8 	.word	0x200004b8
 8002e14:	200004bc 	.word	0x200004bc
 8002e18:	2000000c 	.word	0x2000000c

08002e1c <vPortValidateInterruptPriority>:
 8002e1c:	f3ef 8305 	mrs	r3, IPSR
 8002e20:	2b0f      	cmp	r3, #15
 8002e22:	d90e      	bls.n	8002e42 <vPortValidateInterruptPriority+0x26>
 8002e24:	4a11      	ldr	r2, [pc, #68]	; (8002e6c <vPortValidateInterruptPriority+0x50>)
 8002e26:	5c9b      	ldrb	r3, [r3, r2]
 8002e28:	4a11      	ldr	r2, [pc, #68]	; (8002e70 <vPortValidateInterruptPriority+0x54>)
 8002e2a:	7812      	ldrb	r2, [r2, #0]
 8002e2c:	429a      	cmp	r2, r3
 8002e2e:	d908      	bls.n	8002e42 <vPortValidateInterruptPriority+0x26>
 8002e30:	f04f 0350 	mov.w	r3, #80	; 0x50
 8002e34:	f383 8811 	msr	BASEPRI, r3
 8002e38:	f3bf 8f6f 	isb	sy
 8002e3c:	f3bf 8f4f 	dsb	sy
 8002e40:	e7fe      	b.n	8002e40 <vPortValidateInterruptPriority+0x24>
 8002e42:	f04f 23e0 	mov.w	r3, #3758153728	; 0xe000e000
 8002e46:	4a0b      	ldr	r2, [pc, #44]	; (8002e74 <vPortValidateInterruptPriority+0x58>)
 8002e48:	f8d3 3d0c 	ldr.w	r3, [r3, #3340]	; 0xd0c
 8002e4c:	6812      	ldr	r2, [r2, #0]
 8002e4e:	f403 63e0 	and.w	r3, r3, #1792	; 0x700
 8002e52:	4293      	cmp	r3, r2
 8002e54:	d908      	bls.n	8002e68 <vPortValidateInterruptPriority+0x4c>
 8002e56:	f04f 0350 	mov.w	r3, #80	; 0x50
 8002e5a:	f383 8811 	msr	BASEPRI, r3
 8002e5e:	f3bf 8f6f 	isb	sy
 8002e62:	f3bf 8f4f 	dsb	sy
 8002e66:	e7fe      	b.n	8002e66 <vPortValidateInterruptPriority+0x4a>
 8002e68:	4770      	bx	lr
 8002e6a:	bf00      	nop
 8002e6c:	e000e3f0 	.word	0xe000e3f0
 8002e70:	200004b8 	.word	0x200004b8
 8002e74:	200004bc 	.word	0x200004bc

08002e78 <prvInsertBlockIntoFreeList>:
 8002e78:	b510      	push	{r4, lr}
 8002e7a:	4b0f      	ldr	r3, [pc, #60]	; (8002eb8 <prvInsertBlockIntoFreeList+0x40>)
 8002e7c:	461a      	mov	r2, r3
 8002e7e:	681b      	ldr	r3, [r3, #0]
 8002e80:	4283      	cmp	r3, r0
 8002e82:	d3fb      	bcc.n	8002e7c <prvInsertBlockIntoFreeList+0x4>
 8002e84:	6854      	ldr	r4, [r2, #4]
 8002e86:	1911      	adds	r1, r2, r4
 8002e88:	4288      	cmp	r0, r1
 8002e8a:	bf01      	itttt	eq
 8002e8c:	6841      	ldreq	r1, [r0, #4]
 8002e8e:	4610      	moveq	r0, r2
 8002e90:	1909      	addeq	r1, r1, r4
 8002e92:	6051      	streq	r1, [r2, #4]
 8002e94:	6844      	ldr	r4, [r0, #4]
 8002e96:	1901      	adds	r1, r0, r4
 8002e98:	428b      	cmp	r3, r1
 8002e9a:	d107      	bne.n	8002eac <prvInsertBlockIntoFreeList+0x34>
 8002e9c:	4907      	ldr	r1, [pc, #28]	; (8002ebc <prvInsertBlockIntoFreeList+0x44>)
 8002e9e:	6809      	ldr	r1, [r1, #0]
 8002ea0:	428b      	cmp	r3, r1
 8002ea2:	bf1f      	itttt	ne
 8002ea4:	6859      	ldrne	r1, [r3, #4]
 8002ea6:	681b      	ldrne	r3, [r3, #0]
 8002ea8:	1909      	addne	r1, r1, r4
 8002eaa:	6041      	strne	r1, [r0, #4]
 8002eac:	4290      	cmp	r0, r2
 8002eae:	6003      	str	r3, [r0, #0]
 8002eb0:	bf18      	it	ne
 8002eb2:	6010      	strne	r0, [r2, #0]
 8002eb4:	bd10      	pop	{r4, pc}
 8002eb6:	bf00      	nop
 8002eb8:	200014d0 	.word	0x200014d0
 8002ebc:	200004c0 	.word	0x200004c0

08002ec0 <pvPortMalloc>:
 8002ec0:	e92d 41f0 	stmdb	sp!, {r4, r5, r6, r7, r8, lr}
 8002ec4:	4604      	mov	r4, r0
 8002ec6:	f7ff fb47 	bl	8002558 <vTaskSuspendAll>
 8002eca:	483f      	ldr	r0, [pc, #252]	; (8002fc8 <pvPortMalloc+0x108>)
 8002ecc:	4d3f      	ldr	r5, [pc, #252]	; (8002fcc <pvPortMalloc+0x10c>)
 8002ece:	6803      	ldr	r3, [r0, #0]
 8002ed0:	bb0b      	cbnz	r3, 8002f16 <pvPortMalloc+0x56>
 8002ed2:	493f      	ldr	r1, [pc, #252]	; (8002fd0 <pvPortMalloc+0x110>)
 8002ed4:	074e      	lsls	r6, r1, #29
 8002ed6:	bf1d      	ittte	ne
 8002ed8:	1dcb      	addne	r3, r1, #7
 8002eda:	f023 0307 	bicne.w	r3, r3, #7
 8002ede:	f501 5280 	addne.w	r2, r1, #4096	; 0x1000
 8002ee2:	f44f 5280 	moveq.w	r2, #4096	; 0x1000
 8002ee6:	bf1c      	itt	ne
 8002ee8:	4619      	movne	r1, r3
 8002eea:	1ad2      	subne	r2, r2, r3
 8002eec:	2300      	movs	r3, #0
 8002eee:	440a      	add	r2, r1
 8002ef0:	4e38      	ldr	r6, [pc, #224]	; (8002fd4 <pvPortMalloc+0x114>)
 8002ef2:	3a08      	subs	r2, #8
 8002ef4:	f022 0207 	bic.w	r2, r2, #7
 8002ef8:	6073      	str	r3, [r6, #4]
 8002efa:	6031      	str	r1, [r6, #0]
 8002efc:	e9c2 3300 	strd	r3, r3, [r2]
 8002f00:	1a53      	subs	r3, r2, r1
 8002f02:	e9c1 2300 	strd	r2, r3, [r1]
 8002f06:	6002      	str	r2, [r0, #0]
 8002f08:	4a33      	ldr	r2, [pc, #204]	; (8002fd8 <pvPortMalloc+0x118>)
 8002f0a:	6013      	str	r3, [r2, #0]
 8002f0c:	4a33      	ldr	r2, [pc, #204]	; (8002fdc <pvPortMalloc+0x11c>)
 8002f0e:	6013      	str	r3, [r2, #0]
 8002f10:	f04f 4300 	mov.w	r3, #2147483648	; 0x80000000
 8002f14:	602b      	str	r3, [r5, #0]
 8002f16:	682f      	ldr	r7, [r5, #0]
 8002f18:	4227      	tst	r7, r4
 8002f1a:	d150      	bne.n	8002fbe <pvPortMalloc+0xfe>
 8002f1c:	2c00      	cmp	r4, #0
 8002f1e:	d041      	beq.n	8002fa4 <pvPortMalloc+0xe4>
 8002f20:	f104 0308 	add.w	r3, r4, #8
 8002f24:	0761      	lsls	r1, r4, #29
 8002f26:	bf1c      	itt	ne
 8002f28:	f023 0307 	bicne.w	r3, r3, #7
 8002f2c:	3308      	addne	r3, #8
 8002f2e:	2b00      	cmp	r3, #0
 8002f30:	d045      	beq.n	8002fbe <pvPortMalloc+0xfe>
 8002f32:	4c2a      	ldr	r4, [pc, #168]	; (8002fdc <pvPortMalloc+0x11c>)
 8002f34:	6826      	ldr	r6, [r4, #0]
 8002f36:	429e      	cmp	r6, r3
 8002f38:	d341      	bcc.n	8002fbe <pvPortMalloc+0xfe>
 8002f3a:	4a26      	ldr	r2, [pc, #152]	; (8002fd4 <pvPortMalloc+0x114>)
 8002f3c:	6815      	ldr	r5, [r2, #0]
 8002f3e:	6869      	ldr	r1, [r5, #4]
 8002f40:	4299      	cmp	r1, r3
 8002f42:	d204      	bcs.n	8002f4e <pvPortMalloc+0x8e>
 8002f44:	f8d5 c000 	ldr.w	ip, [r5]
 8002f48:	f1bc 0f00 	cmp.w	ip, #0
 8002f4c:	d115      	bne.n	8002f7a <pvPortMalloc+0xba>
 8002f4e:	6800      	ldr	r0, [r0, #0]
 8002f50:	42a8      	cmp	r0, r5
 8002f52:	d034      	beq.n	8002fbe <pvPortMalloc+0xfe>
 8002f54:	6828      	ldr	r0, [r5, #0]
 8002f56:	1ac9      	subs	r1, r1, r3
 8002f58:	2910      	cmp	r1, #16
 8002f5a:	f8d2 8000 	ldr.w	r8, [r2]
 8002f5e:	6010      	str	r0, [r2, #0]
 8002f60:	d912      	bls.n	8002f88 <pvPortMalloc+0xc8>
 8002f62:	18e8      	adds	r0, r5, r3
 8002f64:	0742      	lsls	r2, r0, #29
 8002f66:	d00b      	beq.n	8002f80 <pvPortMalloc+0xc0>
 8002f68:	f04f 0350 	mov.w	r3, #80	; 0x50
 8002f6c:	f383 8811 	msr	BASEPRI, r3
 8002f70:	f3bf 8f6f 	isb	sy
 8002f74:	f3bf 8f4f 	dsb	sy
 8002f78:	e7fe      	b.n	8002f78 <pvPortMalloc+0xb8>
 8002f7a:	462a      	mov	r2, r5
 8002f7c:	4665      	mov	r5, ip
 8002f7e:	e7de      	b.n	8002f3e <pvPortMalloc+0x7e>
 8002f80:	6041      	str	r1, [r0, #4]
 8002f82:	606b      	str	r3, [r5, #4]
 8002f84:	f7ff ff78 	bl	8002e78 <prvInsertBlockIntoFreeList>
 8002f88:	686b      	ldr	r3, [r5, #4]
 8002f8a:	4913      	ldr	r1, [pc, #76]	; (8002fd8 <pvPortMalloc+0x118>)
 8002f8c:	1af6      	subs	r6, r6, r3
 8002f8e:	431f      	orrs	r7, r3
 8002f90:	2300      	movs	r3, #0
 8002f92:	6808      	ldr	r0, [r1, #0]
 8002f94:	6026      	str	r6, [r4, #0]
 8002f96:	4286      	cmp	r6, r0
 8002f98:	bf38      	it	cc
 8002f9a:	600e      	strcc	r6, [r1, #0]
 8002f9c:	f108 0408 	add.w	r4, r8, #8
 8002fa0:	606f      	str	r7, [r5, #4]
 8002fa2:	602b      	str	r3, [r5, #0]
 8002fa4:	f7ff fb72 	bl	800268c <xTaskResumeAll>
 8002fa8:	0763      	lsls	r3, r4, #29
 8002faa:	d00a      	beq.n	8002fc2 <pvPortMalloc+0x102>
 8002fac:	f04f 0350 	mov.w	r3, #80	; 0x50
 8002fb0:	f383 8811 	msr	BASEPRI, r3
 8002fb4:	f3bf 8f6f 	isb	sy
 8002fb8:	f3bf 8f4f 	dsb	sy
 8002fbc:	e7fe      	b.n	8002fbc <pvPortMalloc+0xfc>
 8002fbe:	2400      	movs	r4, #0
 8002fc0:	e7f0      	b.n	8002fa4 <pvPortMalloc+0xe4>
 8002fc2:	4620      	mov	r0, r4
 8002fc4:	e8bd 81f0 	ldmia.w	sp!, {r4, r5, r6, r7, r8, pc}
 8002fc8:	200004c0 	.word	0x200004c0
 8002fcc:	200014c4 	.word	0x200014c4
 8002fd0:	200004c4 	.word	0x200004c4
 8002fd4:	200014d0 	.word	0x200014d0
 8002fd8:	200014cc 	.word	0x200014cc
 8002fdc:	200014c8 	.word	0x200014c8

08002fe0 <vPortFree>:
 8002fe0:	b510      	push	{r4, lr}
 8002fe2:	4604      	mov	r4, r0
 8002fe4:	b370      	cbz	r0, 8003044 <vPortFree+0x64>
 8002fe6:	4a18      	ldr	r2, [pc, #96]	; (8003048 <vPortFree+0x68>)
 8002fe8:	f850 3c04 	ldr.w	r3, [r0, #-4]
 8002fec:	6812      	ldr	r2, [r2, #0]
 8002fee:	4213      	tst	r3, r2
 8002ff0:	d108      	bne.n	8003004 <vPortFree+0x24>
 8002ff2:	f04f 0350 	mov.w	r3, #80	; 0x50
 8002ff6:	f383 8811 	msr	BASEPRI, r3
 8002ffa:	f3bf 8f6f 	isb	sy
 8002ffe:	f3bf 8f4f 	dsb	sy
 8003002:	e7fe      	b.n	8003002 <vPortFree+0x22>
 8003004:	f850 1c08 	ldr.w	r1, [r0, #-8]
 8003008:	b141      	cbz	r1, 800301c <vPortFree+0x3c>
 800300a:	f04f 0350 	mov.w	r3, #80	; 0x50
 800300e:	f383 8811 	msr	BASEPRI, r3
 8003012:	f3bf 8f6f 	isb	sy
 8003016:	f3bf 8f4f 	dsb	sy
 800301a:	e7fe      	b.n	800301a <vPortFree+0x3a>
 800301c:	ea23 0302 	bic.w	r3, r3, r2
 8003020:	f840 3c04 	str.w	r3, [r0, #-4]
 8003024:	f7ff fa98 	bl	8002558 <vTaskSuspendAll>
 8003028:	4a08      	ldr	r2, [pc, #32]	; (800304c <vPortFree+0x6c>)
 800302a:	f854 3c04 	ldr.w	r3, [r4, #-4]
 800302e:	6811      	ldr	r1, [r2, #0]
 8003030:	f1a4 0008 	sub.w	r0, r4, #8
 8003034:	440b      	add	r3, r1
 8003036:	6013      	str	r3, [r2, #0]
 8003038:	f7ff ff1e 	bl	8002e78 <prvInsertBlockIntoFreeList>
 800303c:	e8bd 4010 	ldmia.w	sp!, {r4, lr}
 8003040:	f7ff bb24 	b.w	800268c <xTaskResumeAll>
 8003044:	bd10      	pop	{r4, pc}
 8003046:	bf00      	nop
 8003048:	200014c4 	.word	0x200014c4
 800304c:	200014c8 	.word	0x200014c8

08003050 <__libc_init_array>:
 8003050:	b570      	push	{r4, r5, r6, lr}
 8003052:	2600      	movs	r6, #0
 8003054:	4d0c      	ldr	r5, [pc, #48]	; (8003088 <__libc_init_array+0x38>)
 8003056:	4c0d      	ldr	r4, [pc, #52]	; (800308c <__libc_init_array+0x3c>)
 8003058:	1b64      	subs	r4, r4, r5
 800305a:	10a4      	asrs	r4, r4, #2
 800305c:	42a6      	cmp	r6, r4
 800305e:	d109      	bne.n	8003074 <__libc_init_array+0x24>
 8003060:	f000 f838 	bl	80030d4 <_init>
 8003064:	2600      	movs	r6, #0
 8003066:	4d0a      	ldr	r5, [pc, #40]	; (8003090 <__libc_init_array+0x40>)
 8003068:	4c0a      	ldr	r4, [pc, #40]	; (8003094 <__libc_init_array+0x44>)
 800306a:	1b64      	subs	r4, r4, r5
 800306c:	10a4      	asrs	r4, r4, #2
 800306e:	42a6      	cmp	r6, r4
 8003070:	d105      	bne.n	800307e <__libc_init_array+0x2e>
 8003072:	bd70      	pop	{r4, r5, r6, pc}
 8003074:	f855 3b04 	ldr.w	r3, [r5], #4
 8003078:	4798      	blx	r3
 800307a:	3601      	adds	r6, #1
 800307c:	e7ee      	b.n	800305c <__libc_init_array+0xc>
 800307e:	f855 3b04 	ldr.w	r3, [r5], #4
 8003082:	4798      	blx	r3
 8003084:	3601      	adds	r6, #1
 8003086:	e7f2      	b.n	800306e <__libc_init_array+0x1e>
 8003088:	080031dc 	.word	0x080031dc
 800308c:	080031dc 	.word	0x080031dc
 8003090:	080031dc 	.word	0x080031dc
 8003094:	080031e0 	.word	0x080031e0

08003098 <memcpy>:
 8003098:	440a      	add	r2, r1
 800309a:	4291      	cmp	r1, r2
 800309c:	f100 33ff 	add.w	r3, r0, #4294967295
 80030a0:	d100      	bne.n	80030a4 <memcpy+0xc>
 80030a2:	4770      	bx	lr
 80030a4:	b510      	push	{r4, lr}
 80030a6:	f811 4b01 	ldrb.w	r4, [r1], #1
 80030aa:	4291      	cmp	r1, r2
 80030ac:	f803 4f01 	strb.w	r4, [r3, #1]!
 80030b0:	d1f9      	bne.n	80030a6 <memcpy+0xe>
 80030b2:	bd10      	pop	{r4, pc}

080030b4 <memset>:
 80030b4:	4603      	mov	r3, r0
 80030b6:	4402      	add	r2, r0
 80030b8:	4293      	cmp	r3, r2
 80030ba:	d100      	bne.n	80030be <memset+0xa>
 80030bc:	4770      	bx	lr
 80030be:	f803 1b01 	strb.w	r1, [r3], #1
 80030c2:	e7f9      	b.n	80030b8 <memset+0x4>

080030c4 <strcpy>:
 80030c4:	4603      	mov	r3, r0
 80030c6:	f811 2b01 	ldrb.w	r2, [r1], #1
 80030ca:	f803 2b01 	strb.w	r2, [r3], #1
 80030ce:	2a00      	cmp	r2, #0
 80030d0:	d1f9      	bne.n	80030c6 <strcpy+0x2>
 80030d2:	4770      	bx	lr

080030d4 <_init>:
 80030d4:	b5f8      	push	{r3, r4, r5, r6, r7, lr}
 80030d6:	bf00      	nop
 80030d8:	bcf8      	pop	{r3, r4, r5, r6, r7}
 80030da:	bc08      	pop	{r3}
 80030dc:	469e      	mov	lr, r3
 80030de:	4770      	bx	lr

080030e0 <_fini>:
 80030e0:	b5f8      	push	{r3, r4, r5, r6, r7, lr}
 80030e2:	bf00      	nop
 80030e4:	bcf8      	pop	{r3, r4, r5, r6, r7}
 80030e6:	bc08      	pop	{r3}
 80030e8:	469e      	mov	lr, r3
 80030ea:	4770      	bx	lr
