
Lab14.elf:     file format elf32-littlearm

Sections:
Idx Name          Size      VMA       LMA       File off  Algn
  0 .isr_vector   000001e4  08000000  08000000  00010000  2**0
                  CONTENTS, ALLOC, LOAD, READONLY, DATA
  1 .text         000033b4  080001f0  080001f0  000101f0  2**4
                  CONTENTS, ALLOC, LOAD, READONLY, CODE
  2 .rodata       00000140  080035a4  080035a4  000135a4  2**2
                  CONTENTS, ALLOC, LOAD, READONLY, DATA
  3 .ARM.extab    00000000  080036e4  080036e4  00020074  2**0
                  CONTENTS
  4 .ARM          00000000  080036e4  080036e4  00020074  2**0
                  CONTENTS
  5 .preinit_array 00000000  080036e4  080036e4  00020074  2**0
                  CONTENTS, ALLOC, LOAD, DATA
  6 .init_array   00000004  080036e4  080036e4  000136e4  2**2
                  CONTENTS, ALLOC, LOAD, DATA
  7 .fini_array   00000004  080036e8  080036e8  000136e8  2**2
                  CONTENTS, ALLOC, LOAD, DATA
  8 .data         00000074  20000000  080036ec  00020000  2**2
                  CONTENTS, ALLOC, LOAD, DATA
  9 .bss          000010d4  20000074  08003760  00020074  2**2
                  ALLOC
 10 ._user_heap_stack 00000600  20001148  08003760  00021148  2**0
                  ALLOC
 11 .ARM.attributes 00000029  00000000  00000000  00020074  2**0
                  CONTENTS, READONLY
 12 .comment      00000050  00000000  00000000  0002009d  2**0
                  CONTENTS, READONLY
 13 .debug_frame  000005d4  00000000  00000000  000200f0  2**2
                  CONTENTS, READONLY, DEBUGGING, OCTETS

Disassembly of section .text:

080001f0 <__do_global_dtors_aux>:
 80001f0:	b510      	push	{r4, lr}
 80001f2:	4c05      	ldr	r4, [pc, #20]	; (8000208 <__do_global_dtors_aux+0x18>)
 80001f4:	7823      	ldrb	r3, [r4, #0]
 80001f6:	b933      	cbnz	r3, 8000206 <__do_global_dtors_aux+0x16>
 80001f8:	4b04      	ldr	r3, [pc, #16]	; (800020c <__do_global_dtors_aux+0x1c>)
 80001fa:	b113      	cbz	r3, 8000202 <__do_global_dtors_aux+0x12>
 80001fc:	4804      	ldr	r0, [pc, #16]	; (8000210 <__do_global_dtors_aux+0x20>)
 80001fe:	f3af 8000 	nop.w
 8000202:	2301      	movs	r3, #1
 8000204:	7023      	strb	r3, [r4, #0]
 8000206:	bd10      	pop	{r4, pc}
 8000208:	20000074 	.word	0x20000074
 800020c:	00000000 	.word	0x00000000
 8000210:	0800358c 	.word	0x0800358c

08000214 <frame_dummy>:
 8000214:	b508      	push	{r3, lr}
 8000216:	4b03      	ldr	r3, [pc, #12]	; (8000224 <frame_dummy+0x10>)
 8000218:	b11b      	cbz	r3, 8000222 <frame_dummy+0xe>
 800021a:	4903      	ldr	r1, [pc, #12]	; (8000228 <frame_dummy+0x14>)
 800021c:	4803      	ldr	r0, [pc, #12]	; (800022c <frame_dummy+0x18>)
 800021e:	f3af 8000 	nop.w
 8000222:	bd08      	pop	{r3, pc}
 8000224:	00000000 	.word	0x00000000
 8000228:	20000078 	.word	0x20000078
 800022c:	0800358c 	.word	0x0800358c

08000230 <strlen>:
 8000230:	4603      	mov	r3, r0
 8000232:	f813 2b01 	ldrb.w	r2, [r3], #1
 8000236:	2a00      	cmp	r2, #0
 8000238:	d1fb      	bne.n	8000232 <strlen+0x2>
 800023a:	1a18      	subs	r0, r3, r0
 800023c:	3801      	subs	r0, #1
 800023e:	4770      	bx	lr

08000240 <vApplicationGetIdleTaskMemory>:
 8000240:	4b03      	ldr	r3, [pc, #12]	; (8000250 <vApplicationGetIdleTaskMemory+0x10>)
 8000242:	6003      	str	r3, [r0, #0]
 8000244:	4b03      	ldr	r3, [pc, #12]	; (8000254 <vApplicationGetIdleTaskMemory+0x14>)
 8000246:	600b      	str	r3, [r1, #0]
 8000248:	2380      	movs	r3, #128	; 0x80
 800024a:	6013      	str	r3, [r2, #0]
 800024c:	4770      	bx	lr
 800024e:	bf00      	nop
 8000250:	20000290 	.word	0x20000290
 8000254:	20000090 	.word	0x20000090

08000258 <MsgProducerTask>:
 8000258:	b570      	push	{r4, r5, r6, lr}
 800025a:	4d11      	ldr	r5, [pc, #68]	; (80002a0 <MsgProducerTask+0x48>)
 800025c:	4e11      	ldr	r6, [pc, #68]	; (80002a4 <MsgProducerTask+0x4c>)
 800025e:	b086      	sub	sp, #24
 8000260:	f04f 31ff 	mov.w	r1, #4294967295
 8000264:	6828      	ldr	r0, [r5, #0]
 8000266:	f001 f98b 	bl	8001580 <osMailAlloc>
 800026a:	2202      	movs	r2, #2
 800026c:	4631      	mov	r1, r6
 800026e:	8002      	strh	r2, [r0, #0]
 8000270:	4604      	mov	r4, r0
 8000272:	a801      	add	r0, sp, #4
 8000274:	f002 fdc4 	bl	8002e00 <siprintf>
 8000278:	a801      	add	r0, sp, #4
 800027a:	f7ff ffd9 	bl	8000230 <strlen>
 800027e:	a901      	add	r1, sp, #4
 8000280:	b282      	uxth	r2, r0
 8000282:	f04f 33ff 	mov.w	r3, #4294967295
 8000286:	4808      	ldr	r0, [pc, #32]	; (80002a8 <MsgProducerTask+0x50>)
 8000288:	f001 f80a 	bl	80012a0 <HAL_UART_Transmit>
 800028c:	f44f 707a 	mov.w	r0, #1000	; 0x3e8
 8000290:	f000 fa26 	bl	80006e0 <HAL_Delay>
 8000294:	4621      	mov	r1, r4
 8000296:	6828      	ldr	r0, [r5, #0]
 8000298:	f001 f977 	bl	800158a <osMailPut>
 800029c:	e7e0      	b.n	8000260 <MsgProducerTask+0x8>
 800029e:	bf00      	nop
 80002a0:	20000398 	.word	0x20000398
 80002a4:	08003604 	.word	0x08003604
 80002a8:	20000354 	.word	0x20000354

080002ac <MsgConsumerTask>:
 80002ac:	b570      	push	{r4, r5, r6, lr}
 80002ae:	4c12      	ldr	r4, [pc, #72]	; (80002f8 <MsgConsumerTask+0x4c>)
 80002b0:	4e12      	ldr	r6, [pc, #72]	; (80002fc <MsgConsumerTask+0x50>)
 80002b2:	b088      	sub	sp, #32
 80002b4:	f04f 32ff 	mov.w	r2, #4294967295
 80002b8:	4668      	mov	r0, sp
 80002ba:	6821      	ldr	r1, [r4, #0]
 80002bc:	f001 f98f 	bl	80015de <osMailGet>
 80002c0:	9b00      	ldr	r3, [sp, #0]
 80002c2:	2b20      	cmp	r3, #32
 80002c4:	d1f6      	bne.n	80002b4 <MsgConsumerTask+0x8>
 80002c6:	9d01      	ldr	r5, [sp, #4]
 80002c8:	4631      	mov	r1, r6
 80002ca:	882a      	ldrh	r2, [r5, #0]
 80002cc:	a803      	add	r0, sp, #12
 80002ce:	f002 fd97 	bl	8002e00 <siprintf>
 80002d2:	a803      	add	r0, sp, #12
 80002d4:	f7ff ffac 	bl	8000230 <strlen>
 80002d8:	a903      	add	r1, sp, #12
 80002da:	b282      	uxth	r2, r0
 80002dc:	f04f 33ff 	mov.w	r3, #4294967295
 80002e0:	4807      	ldr	r0, [pc, #28]	; (8000300 <MsgConsumerTask+0x54>)
 80002e2:	f000 ffdd 	bl	80012a0 <HAL_UART_Transmit>
 80002e6:	f241 7070 	movw	r0, #6000	; 0x1770
 80002ea:	f000 f9f9 	bl	80006e0 <HAL_Delay>
 80002ee:	4629      	mov	r1, r5
 80002f0:	6820      	ldr	r0, [r4, #0]
 80002f2:	f001 f9ab 	bl	800164c <osMailFree>
 80002f6:	e7dd      	b.n	80002b4 <MsgConsumerTask+0x8>
 80002f8:	20000398 	.word	0x20000398
 80002fc:	08003612 	.word	0x08003612
 8000300:	20000354 	.word	0x20000354

08000304 <SystemClock_Config>:
 8000304:	b510      	push	{r4, lr}
 8000306:	b090      	sub	sp, #64	; 0x40
 8000308:	2214      	movs	r2, #20
 800030a:	2100      	movs	r1, #0
 800030c:	a808      	add	r0, sp, #32
 800030e:	f002 fc61 	bl	8002bd4 <memset>
 8000312:	2214      	movs	r2, #20
 8000314:	2100      	movs	r1, #0
 8000316:	a801      	add	r0, sp, #4
 8000318:	f002 fc5c 	bl	8002bd4 <memset>
 800031c:	2402      	movs	r4, #2
 800031e:	f44f 3380 	mov.w	r3, #65536	; 0x10000
 8000322:	2201      	movs	r2, #1
 8000324:	e9cd 430d 	strd	r4, r3, [sp, #52]	; 0x34
 8000328:	e9cd 2306 	strd	r2, r3, [sp, #24]
 800032c:	f44f 13e0 	mov.w	r3, #1835008	; 0x1c0000
 8000330:	a806      	add	r0, sp, #24
 8000332:	920a      	str	r2, [sp, #40]	; 0x28
 8000334:	930f      	str	r3, [sp, #60]	; 0x3c
 8000336:	f000 fb1f 	bl	8000978 <HAL_RCC_OscConfig>
 800033a:	b108      	cbz	r0, 8000340 <SystemClock_Config+0x3c>
 800033c:	b672      	cpsid	i
 800033e:	e7fe      	b.n	800033e <SystemClock_Config+0x3a>
 8000340:	230f      	movs	r3, #15
 8000342:	e9cd 3401 	strd	r3, r4, [sp, #4]
 8000346:	f44f 6380 	mov.w	r3, #1024	; 0x400
 800034a:	9003      	str	r0, [sp, #12]
 800034c:	e9cd 3004 	strd	r3, r0, [sp, #16]
 8000350:	4621      	mov	r1, r4
 8000352:	a801      	add	r0, sp, #4
 8000354:	f000 fce6 	bl	8000d24 <HAL_RCC_ClockConfig>
 8000358:	b108      	cbz	r0, 800035e <SystemClock_Config+0x5a>
 800035a:	b672      	cpsid	i
 800035c:	e7fe      	b.n	800035c <SystemClock_Config+0x58>
 800035e:	b010      	add	sp, #64	; 0x40
 8000360:	bd10      	pop	{r4, pc}
	...

08000364 <main>:
 8000364:	b580      	push	{r7, lr}
 8000366:	b09c      	sub	sp, #112	; 0x70
 8000368:	f000 f996 	bl	8000698 <HAL_Init>
 800036c:	f7ff ffca 	bl	8000304 <SystemClock_Config>
 8000370:	4b37      	ldr	r3, [pc, #220]	; (8000450 <main+0xec>)
 8000372:	4838      	ldr	r0, [pc, #224]	; (8000454 <main+0xf0>)
 8000374:	699a      	ldr	r2, [r3, #24]
 8000376:	4938      	ldr	r1, [pc, #224]	; (8000458 <main+0xf4>)
 8000378:	f042 0220 	orr.w	r2, r2, #32
 800037c:	619a      	str	r2, [r3, #24]
 800037e:	699a      	ldr	r2, [r3, #24]
 8000380:	f002 0220 	and.w	r2, r2, #32
 8000384:	9201      	str	r2, [sp, #4]
 8000386:	9a01      	ldr	r2, [sp, #4]
 8000388:	699a      	ldr	r2, [r3, #24]
 800038a:	f042 0204 	orr.w	r2, r2, #4
 800038e:	619a      	str	r2, [r3, #24]
 8000390:	699b      	ldr	r3, [r3, #24]
 8000392:	220c      	movs	r2, #12
 8000394:	f003 0304 	and.w	r3, r3, #4
 8000398:	9302      	str	r3, [sp, #8]
 800039a:	9b02      	ldr	r3, [sp, #8]
 800039c:	f44f 33e1 	mov.w	r3, #115200	; 0x1c200
 80003a0:	e9c0 1300 	strd	r1, r3, [r0]
 80003a4:	2300      	movs	r3, #0
 80003a6:	e9c0 3302 	strd	r3, r3, [r0, #8]
 80003aa:	e9c0 2305 	strd	r2, r3, [r0, #20]
 80003ae:	6103      	str	r3, [r0, #16]
 80003b0:	61c3      	str	r3, [r0, #28]
 80003b2:	f000 ff47 	bl	8001244 <HAL_UART_Init>
 80003b6:	4605      	mov	r5, r0
 80003b8:	b108      	cbz	r0, 80003be <main+0x5a>
 80003ba:	b672      	cpsid	i
 80003bc:	e7fe      	b.n	80003bc <main+0x58>
 80003be:	2104      	movs	r1, #4
 80003c0:	e9cd 0003 	strd	r0, r0, [sp, #12]
 80003c4:	a803      	add	r0, sp, #12
 80003c6:	f000 ffed 	bl	80013a4 <osSemaphoreCreate>
 80003ca:	4b24      	ldr	r3, [pc, #144]	; (800045c <main+0xf8>)
 80003cc:	2104      	movs	r1, #4
 80003ce:	6018      	str	r0, [r3, #0]
 80003d0:	a805      	add	r0, sp, #20
 80003d2:	e9cd 5505 	strd	r5, r5, [sp, #20]
 80003d6:	f000 ffe5 	bl	80013a4 <osSemaphoreCreate>
 80003da:	4c21      	ldr	r4, [pc, #132]	; (8000460 <main+0xfc>)
 80003dc:	4b21      	ldr	r3, [pc, #132]	; (8000464 <main+0x100>)
 80003de:	ae0a      	add	r6, sp, #40	; 0x28
 80003e0:	6018      	str	r0, [r3, #0]
 80003e2:	e894 000f 	ldmia.w	r4, {r0, r1, r2, r3}
 80003e6:	e886 000f 	stmia.w	r6, {r0, r1, r2, r3}
 80003ea:	4629      	mov	r1, r5
 80003ec:	4630      	mov	r0, r6
 80003ee:	f001 f886 	bl	80014fe <osMessageCreate>
 80003f2:	4b1d      	ldr	r3, [pc, #116]	; (8000468 <main+0x104>)
 80003f4:	2204      	movs	r2, #4
 80003f6:	6018      	str	r0, [r3, #0]
 80003f8:	2302      	movs	r3, #2
 80003fa:	4629      	mov	r1, r5
 80003fc:	a807      	add	r0, sp, #28
 80003fe:	e9cd 2307 	strd	r2, r3, [sp, #28]
 8000402:	f8cd d024 	str.w	sp, [sp, #36]	; 0x24
 8000406:	f001 f88c 	bl	8001522 <osMailCreate>
 800040a:	4b18      	ldr	r3, [pc, #96]	; (800046c <main+0x108>)
 800040c:	f104 0710 	add.w	r7, r4, #16
 8000410:	ae0e      	add	r6, sp, #56	; 0x38
 8000412:	6018      	str	r0, [r3, #0]
 8000414:	cf0f      	ldmia	r7!, {r0, r1, r2, r3}
 8000416:	c60f      	stmia	r6!, {r0, r1, r2, r3}
 8000418:	e897 0007 	ldmia.w	r7, {r0, r1, r2}
 800041c:	e886 0007 	stmia.w	r6, {r0, r1, r2}
 8000420:	4629      	mov	r1, r5
 8000422:	a80e      	add	r0, sp, #56	; 0x38
 8000424:	f000 ff96 	bl	8001354 <osThreadCreate>
 8000428:	4b11      	ldr	r3, [pc, #68]	; (8000470 <main+0x10c>)
 800042a:	ae15      	add	r6, sp, #84	; 0x54
 800042c:	342c      	adds	r4, #44	; 0x2c
 800042e:	6018      	str	r0, [r3, #0]
 8000430:	cc0f      	ldmia	r4!, {r0, r1, r2, r3}
 8000432:	c60f      	stmia	r6!, {r0, r1, r2, r3}
 8000434:	e894 0007 	ldmia.w	r4, {r0, r1, r2}
 8000438:	e886 0007 	stmia.w	r6, {r0, r1, r2}
 800043c:	4629      	mov	r1, r5
 800043e:	a815      	add	r0, sp, #84	; 0x54
 8000440:	f000 ff88 	bl	8001354 <osThreadCreate>
 8000444:	4b0b      	ldr	r3, [pc, #44]	; (8000474 <main+0x110>)
 8000446:	6018      	str	r0, [r3, #0]
 8000448:	f000 ff7f 	bl	800134a <osKernelStart>
 800044c:	e7fe      	b.n	800044c <main+0xe8>
 800044e:	bf00      	nop
 8000450:	40021000 	.word	0x40021000
 8000454:	20000354 	.word	0x20000354
 8000458:	40013800 	.word	0x40013800
 800045c:	2000034c 	.word	0x2000034c
 8000460:	080035a4 	.word	0x080035a4
 8000464:	20000350 	.word	0x20000350
 8000468:	2000039c 	.word	0x2000039c
 800046c:	20000398 	.word	0x20000398
 8000470:	20000348 	.word	0x20000348
 8000474:	20000344 	.word	0x20000344

08000478 <HAL_TIM_PeriodElapsedCallback>:
 8000478:	6802      	ldr	r2, [r0, #0]
 800047a:	4b03      	ldr	r3, [pc, #12]	; (8000488 <HAL_TIM_PeriodElapsedCallback+0x10>)
 800047c:	429a      	cmp	r2, r3
 800047e:	d101      	bne.n	8000484 <HAL_TIM_PeriodElapsedCallback+0xc>
 8000480:	f000 b91c 	b.w	80006bc <HAL_IncTick>
 8000484:	4770      	bx	lr
 8000486:	bf00      	nop
 8000488:	40000400 	.word	0x40000400

0800048c <HAL_MspInit>:
 800048c:	4b11      	ldr	r3, [pc, #68]	; (80004d4 <HAL_MspInit+0x48>)
 800048e:	b507      	push	{r0, r1, r2, lr}
 8000490:	699a      	ldr	r2, [r3, #24]
 8000492:	210f      	movs	r1, #15
 8000494:	f042 0201 	orr.w	r2, r2, #1
 8000498:	619a      	str	r2, [r3, #24]
 800049a:	699a      	ldr	r2, [r3, #24]
 800049c:	f06f 0001 	mvn.w	r0, #1
 80004a0:	f002 0201 	and.w	r2, r2, #1
 80004a4:	9200      	str	r2, [sp, #0]
 80004a6:	9a00      	ldr	r2, [sp, #0]
 80004a8:	69da      	ldr	r2, [r3, #28]
 80004aa:	f042 5280 	orr.w	r2, r2, #268435456	; 0x10000000
 80004ae:	61da      	str	r2, [r3, #28]
 80004b0:	69db      	ldr	r3, [r3, #28]
 80004b2:	2200      	movs	r2, #0
 80004b4:	f003 5380 	and.w	r3, r3, #268435456	; 0x10000000
 80004b8:	9301      	str	r3, [sp, #4]
 80004ba:	9b01      	ldr	r3, [sp, #4]
 80004bc:	f000 f934 	bl	8000728 <HAL_NVIC_SetPriority>
 80004c0:	4a05      	ldr	r2, [pc, #20]	; (80004d8 <HAL_MspInit+0x4c>)
 80004c2:	6853      	ldr	r3, [r2, #4]
 80004c4:	f023 63e0 	bic.w	r3, r3, #117440512	; 0x7000000
 80004c8:	f043 7300 	orr.w	r3, r3, #33554432	; 0x2000000
 80004cc:	6053      	str	r3, [r2, #4]
 80004ce:	b003      	add	sp, #12
 80004d0:	f85d fb04 	ldr.w	pc, [sp], #4
 80004d4:	40021000 	.word	0x40021000
 80004d8:	40010000 	.word	0x40010000

080004dc <HAL_UART_MspInit>:
 80004dc:	b510      	push	{r4, lr}
 80004de:	4604      	mov	r4, r0
 80004e0:	b086      	sub	sp, #24
 80004e2:	2210      	movs	r2, #16
 80004e4:	2100      	movs	r1, #0
 80004e6:	a802      	add	r0, sp, #8
 80004e8:	f002 fb74 	bl	8002bd4 <memset>
 80004ec:	6822      	ldr	r2, [r4, #0]
 80004ee:	4b17      	ldr	r3, [pc, #92]	; (800054c <HAL_UART_MspInit+0x70>)
 80004f0:	429a      	cmp	r2, r3
 80004f2:	d128      	bne.n	8000546 <HAL_UART_MspInit+0x6a>
 80004f4:	f503 4358 	add.w	r3, r3, #55296	; 0xd800
 80004f8:	699a      	ldr	r2, [r3, #24]
 80004fa:	4815      	ldr	r0, [pc, #84]	; (8000550 <HAL_UART_MspInit+0x74>)
 80004fc:	f442 4280 	orr.w	r2, r2, #16384	; 0x4000
 8000500:	619a      	str	r2, [r3, #24]
 8000502:	699a      	ldr	r2, [r3, #24]
 8000504:	a902      	add	r1, sp, #8
 8000506:	f402 4280 	and.w	r2, r2, #16384	; 0x4000
 800050a:	9200      	str	r2, [sp, #0]
 800050c:	9a00      	ldr	r2, [sp, #0]
 800050e:	699a      	ldr	r2, [r3, #24]
 8000510:	f042 0204 	orr.w	r2, r2, #4
 8000514:	619a      	str	r2, [r3, #24]
 8000516:	699b      	ldr	r3, [r3, #24]
 8000518:	f44f 7200 	mov.w	r2, #512	; 0x200
 800051c:	f003 0304 	and.w	r3, r3, #4
 8000520:	9301      	str	r3, [sp, #4]
 8000522:	9b01      	ldr	r3, [sp, #4]
 8000524:	2302      	movs	r3, #2
 8000526:	e9cd 2302 	strd	r2, r3, [sp, #8]
 800052a:	2303      	movs	r3, #3
 800052c:	9305      	str	r3, [sp, #20]
 800052e:	f000 f93b 	bl	80007a8 <HAL_GPIO_Init>
 8000532:	f44f 6180 	mov.w	r1, #1024	; 0x400
 8000536:	2300      	movs	r3, #0
 8000538:	4805      	ldr	r0, [pc, #20]	; (8000550 <HAL_UART_MspInit+0x74>)
 800053a:	e9cd 1302 	strd	r1, r3, [sp, #8]
 800053e:	a902      	add	r1, sp, #8
 8000540:	9304      	str	r3, [sp, #16]
 8000542:	f000 f931 	bl	80007a8 <HAL_GPIO_Init>
 8000546:	b006      	add	sp, #24
 8000548:	bd10      	pop	{r4, pc}
 800054a:	bf00      	nop
 800054c:	40013800 	.word	0x40013800
 8000550:	40010800 	.word	0x40010800

08000554 <HAL_InitTick>:
 8000554:	4b21      	ldr	r3, [pc, #132]	; (80005dc <HAL_InitTick+0x88>)
 8000556:	b570      	push	{r4, r5, r6, lr}
 8000558:	69da      	ldr	r2, [r3, #28]
 800055a:	b088      	sub	sp, #32
 800055c:	f042 0202 	orr.w	r2, r2, #2
 8000560:	61da      	str	r2, [r3, #28]
 8000562:	69db      	ldr	r3, [r3, #28]
 8000564:	4605      	mov	r5, r0
 8000566:	f003 0302 	and.w	r3, r3, #2
 800056a:	9302      	str	r3, [sp, #8]
 800056c:	a901      	add	r1, sp, #4
 800056e:	a803      	add	r0, sp, #12
 8000570:	9b02      	ldr	r3, [sp, #8]
 8000572:	f000 fc93 	bl	8000e9c <HAL_RCC_GetClockConfig>
 8000576:	9b06      	ldr	r3, [sp, #24]
 8000578:	bb4b      	cbnz	r3, 80005ce <HAL_InitTick+0x7a>
 800057a:	f000 fc6f 	bl	8000e5c <HAL_RCC_GetPCLK1Freq>
 800057e:	4e18      	ldr	r6, [pc, #96]	; (80005e0 <HAL_InitTick+0x8c>)
 8000580:	4b18      	ldr	r3, [pc, #96]	; (80005e4 <HAL_InitTick+0x90>)
 8000582:	6033      	str	r3, [r6, #0]
 8000584:	f240 33e7 	movw	r3, #999	; 0x3e7
 8000588:	60f3      	str	r3, [r6, #12]
 800058a:	4b17      	ldr	r3, [pc, #92]	; (80005e8 <HAL_InitTick+0x94>)
 800058c:	fbb0 f3f3 	udiv	r3, r0, r3
 8000590:	3b01      	subs	r3, #1
 8000592:	6073      	str	r3, [r6, #4]
 8000594:	2300      	movs	r3, #0
 8000596:	4630      	mov	r0, r6
 8000598:	6133      	str	r3, [r6, #16]
 800059a:	60b3      	str	r3, [r6, #8]
 800059c:	61b3      	str	r3, [r6, #24]
 800059e:	f000 fdc1 	bl	8001124 <HAL_TIM_Base_Init>
 80005a2:	4604      	mov	r4, r0
 80005a4:	b980      	cbnz	r0, 80005c8 <HAL_InitTick+0x74>
 80005a6:	4630      	mov	r0, r6
 80005a8:	f000 fc98 	bl	8000edc <HAL_TIM_Base_Start_IT>
 80005ac:	4604      	mov	r4, r0
 80005ae:	b958      	cbnz	r0, 80005c8 <HAL_InitTick+0x74>
 80005b0:	201d      	movs	r0, #29
 80005b2:	f000 f8eb 	bl	800078c <HAL_NVIC_EnableIRQ>
 80005b6:	2d0f      	cmp	r5, #15
 80005b8:	d80d      	bhi.n	80005d6 <HAL_InitTick+0x82>
 80005ba:	4622      	mov	r2, r4
 80005bc:	4629      	mov	r1, r5
 80005be:	201d      	movs	r0, #29
 80005c0:	f000 f8b2 	bl	8000728 <HAL_NVIC_SetPriority>
 80005c4:	4b09      	ldr	r3, [pc, #36]	; (80005ec <HAL_InitTick+0x98>)
 80005c6:	601d      	str	r5, [r3, #0]
 80005c8:	4620      	mov	r0, r4
 80005ca:	b008      	add	sp, #32
 80005cc:	bd70      	pop	{r4, r5, r6, pc}
 80005ce:	f000 fc45 	bl	8000e5c <HAL_RCC_GetPCLK1Freq>
 80005d2:	0040      	lsls	r0, r0, #1
 80005d4:	e7d3      	b.n	800057e <HAL_InitTick+0x2a>
 80005d6:	2401      	movs	r4, #1
 80005d8:	e7f6      	b.n	80005c8 <HAL_InitTick+0x74>
 80005da:	bf00      	nop
 80005dc:	40021000 	.word	0x40021000
 80005e0:	200003a0 	.word	0x200003a0
 80005e4:	40000400 	.word	0x40000400
 80005e8:	000f4240 	.word	0x000f4240
 80005ec:	20000008 	.word	0x20000008

080005f0 <NMI_Handler>:
 80005f0:	e7fe      	b.n	80005f0 <NMI_Handler>

080005f2 <HardFault_Handler>:
 80005f2:	e7fe      	b.n	80005f2 <HardFault_Handler>

080005f4 <MemManage_Handler>:
 80005f4:	e7fe      	b.n	80005f4 <MemManage_Handler>

080005f6 <BusFault_Handler>:
 80005f6:	e7fe      	b.n	80005f6 <BusFault_Handler>

080005f8 <UsageFault_Handler>:
 80005f8:	e7fe      	b.n	80005f8 <UsageFault_Handler>

080005fa <DebugMon_Handler>:
 80005fa:	4770      	bx	lr

080005fc <TIM3_IRQHandler>:
 80005fc:	4801      	ldr	r0, [pc, #4]	; (8000604 <TIM3_IRQHandler+0x8>)
 80005fe:	f000 bca3 	b.w	8000f48 <HAL_TIM_IRQHandler>
 8000602:	bf00      	nop
 8000604:	200003a0 	.word	0x200003a0

08000608 <_sbrk>:
 8000608:	4a0b      	ldr	r2, [pc, #44]	; (8000638 <_sbrk+0x30>)
 800060a:	4603      	mov	r3, r0
 800060c:	6811      	ldr	r1, [r2, #0]
 800060e:	b510      	push	{r4, lr}
 8000610:	b909      	cbnz	r1, 8000616 <_sbrk+0xe>
 8000612:	490a      	ldr	r1, [pc, #40]	; (800063c <_sbrk+0x34>)
 8000614:	6011      	str	r1, [r2, #0]
 8000616:	6810      	ldr	r0, [r2, #0]
 8000618:	4909      	ldr	r1, [pc, #36]	; (8000640 <_sbrk+0x38>)
 800061a:	4c0a      	ldr	r4, [pc, #40]	; (8000644 <_sbrk+0x3c>)
 800061c:	4403      	add	r3, r0
 800061e:	1b09      	subs	r1, r1, r4
 8000620:	428b      	cmp	r3, r1
 8000622:	d906      	bls.n	8000632 <_sbrk+0x2a>
 8000624:	f002 fa9c 	bl	8002b60 <__errno>
 8000628:	230c      	movs	r3, #12
 800062a:	6003      	str	r3, [r0, #0]
 800062c:	f04f 30ff 	mov.w	r0, #4294967295
 8000630:	bd10      	pop	{r4, pc}
 8000632:	6013      	str	r3, [r2, #0]
 8000634:	e7fc      	b.n	8000630 <_sbrk+0x28>
 8000636:	bf00      	nop
 8000638:	200003e8 	.word	0x200003e8
 800063c:	20001148 	.word	0x20001148
 8000640:	2000c000 	.word	0x2000c000
 8000644:	00000400 	.word	0x00000400

08000648 <SystemInit>:
 8000648:	4770      	bx	lr
	...

0800064c <Reset_Handler>:
 800064c:	480c      	ldr	r0, [pc, #48]	; (8000680 <LoopFillZerobss+0x12>)
 800064e:	490d      	ldr	r1, [pc, #52]	; (8000684 <LoopFillZerobss+0x16>)
 8000650:	4a0d      	ldr	r2, [pc, #52]	; (8000688 <LoopFillZerobss+0x1a>)
 8000652:	2300      	movs	r3, #0
 8000654:	e002      	b.n	800065c <LoopCopyDataInit>

08000656 <CopyDataInit>:
 8000656:	58d4      	ldr	r4, [r2, r3]
 8000658:	50c4      	str	r4, [r0, r3]
 800065a:	3304      	adds	r3, #4

0800065c <LoopCopyDataInit>:
 800065c:	18c4      	adds	r4, r0, r3
 800065e:	428c      	cmp	r4, r1
 8000660:	d3f9      	bcc.n	8000656 <CopyDataInit>
 8000662:	4a0a      	ldr	r2, [pc, #40]	; (800068c <LoopFillZerobss+0x1e>)
 8000664:	4c0a      	ldr	r4, [pc, #40]	; (8000690 <LoopFillZerobss+0x22>)
 8000666:	2300      	movs	r3, #0
 8000668:	e001      	b.n	800066e <LoopFillZerobss>

0800066a <FillZerobss>:
 800066a:	6013      	str	r3, [r2, #0]
 800066c:	3204      	adds	r2, #4

0800066e <LoopFillZerobss>:
 800066e:	42a2      	cmp	r2, r4
 8000670:	d3fb      	bcc.n	800066a <FillZerobss>
 8000672:	f7ff ffe9 	bl	8000648 <SystemInit>
 8000676:	f002 fa79 	bl	8002b6c <__libc_init_array>
 800067a:	f7ff fe73 	bl	8000364 <main>
 800067e:	4770      	bx	lr
 8000680:	20000000 	.word	0x20000000
 8000684:	20000074 	.word	0x20000074
 8000688:	080036ec 	.word	0x080036ec
 800068c:	20000074 	.word	0x20000074
 8000690:	20001148 	.word	0x20001148

08000694 <ADC1_2_IRQHandler>:
 8000694:	e7fe      	b.n	8000694 <ADC1_2_IRQHandler>
	...

08000698 <HAL_Init>:
 8000698:	4a07      	ldr	r2, [pc, #28]	; (80006b8 <HAL_Init+0x20>)
 800069a:	b508      	push	{r3, lr}
 800069c:	6813      	ldr	r3, [r2, #0]
 800069e:	2003      	movs	r0, #3
 80006a0:	f043 0310 	orr.w	r3, r3, #16
 80006a4:	6013      	str	r3, [r2, #0]
 80006a6:	f000 f82d 	bl	8000704 <HAL_NVIC_SetPriorityGrouping>
 80006aa:	200f      	movs	r0, #15
 80006ac:	f7ff ff52 	bl	8000554 <HAL_InitTick>
 80006b0:	f7ff feec 	bl	800048c <HAL_MspInit>
 80006b4:	2000      	movs	r0, #0
 80006b6:	bd08      	pop	{r3, pc}
 80006b8:	40022000 	.word	0x40022000

080006bc <HAL_IncTick>:
 80006bc:	4a03      	ldr	r2, [pc, #12]	; (80006cc <HAL_IncTick+0x10>)
 80006be:	4b04      	ldr	r3, [pc, #16]	; (80006d0 <HAL_IncTick+0x14>)
 80006c0:	6811      	ldr	r1, [r2, #0]
 80006c2:	781b      	ldrb	r3, [r3, #0]
 80006c4:	440b      	add	r3, r1
 80006c6:	6013      	str	r3, [r2, #0]
 80006c8:	4770      	bx	lr
 80006ca:	bf00      	nop
 80006cc:	200003ec 	.word	0x200003ec
 80006d0:	20000004 	.word	0x20000004

080006d4 <HAL_GetTick>:
 80006d4:	4b01      	ldr	r3, [pc, #4]	; (80006dc <HAL_GetTick+0x8>)
 80006d6:	6818      	ldr	r0, [r3, #0]
 80006d8:	4770      	bx	lr
 80006da:	bf00      	nop
 80006dc:	200003ec 	.word	0x200003ec

080006e0 <HAL_Delay>:
 80006e0:	b538      	push	{r3, r4, r5, lr}
 80006e2:	4604      	mov	r4, r0
 80006e4:	f7ff fff6 	bl	80006d4 <HAL_GetTick>
 80006e8:	4605      	mov	r5, r0
 80006ea:	1c63      	adds	r3, r4, #1
 80006ec:	bf1e      	ittt	ne
 80006ee:	4b04      	ldrne	r3, [pc, #16]	; (8000700 <HAL_Delay+0x20>)
 80006f0:	781b      	ldrbne	r3, [r3, #0]
 80006f2:	18e4      	addne	r4, r4, r3
 80006f4:	f7ff ffee 	bl	80006d4 <HAL_GetTick>
 80006f8:	1b43      	subs	r3, r0, r5
 80006fa:	42a3      	cmp	r3, r4
 80006fc:	d3fa      	bcc.n	80006f4 <HAL_Delay+0x14>
 80006fe:	bd38      	pop	{r3, r4, r5, pc}
 8000700:	20000004 	.word	0x20000004

08000704 <HAL_NVIC_SetPriorityGrouping>:
 8000704:	4907      	ldr	r1, [pc, #28]	; (8000724 <HAL_NVIC_SetPriorityGrouping+0x20>)
 8000706:	0203      	lsls	r3, r0, #8
 8000708:	68ca      	ldr	r2, [r1, #12]
 800070a:	f403 63e0 	and.w	r3, r3, #1792	; 0x700
 800070e:	f422 62e0 	bic.w	r2, r2, #1792	; 0x700
 8000712:	0412      	lsls	r2, r2, #16
 8000714:	0c12      	lsrs	r2, r2, #16
 8000716:	4313      	orrs	r3, r2
 8000718:	f043 63bf 	orr.w	r3, r3, #100139008	; 0x5f80000
 800071c:	f443 3300 	orr.w	r3, r3, #131072	; 0x20000
 8000720:	60cb      	str	r3, [r1, #12]
 8000722:	4770      	bx	lr
 8000724:	e000ed00 	.word	0xe000ed00

08000728 <HAL_NVIC_SetPriority>:
 8000728:	4b16      	ldr	r3, [pc, #88]	; (8000784 <HAL_NVIC_SetPriority+0x5c>)
 800072a:	b530      	push	{r4, r5, lr}
 800072c:	68dc      	ldr	r4, [r3, #12]
 800072e:	f3c4 2402 	ubfx	r4, r4, #8, #3
 8000732:	f1c4 0307 	rsb	r3, r4, #7
 8000736:	1d25      	adds	r5, r4, #4
 8000738:	2b04      	cmp	r3, #4
 800073a:	bf28      	it	cs
 800073c:	2304      	movcs	r3, #4
 800073e:	2d06      	cmp	r5, #6
 8000740:	f04f 35ff 	mov.w	r5, #4294967295
 8000744:	bf98      	it	ls
 8000746:	2400      	movls	r4, #0
 8000748:	fa05 f303 	lsl.w	r3, r5, r3
 800074c:	bf88      	it	hi
 800074e:	3c03      	subhi	r4, #3
 8000750:	ea21 0303 	bic.w	r3, r1, r3
 8000754:	40a3      	lsls	r3, r4
 8000756:	fa05 f404 	lsl.w	r4, r5, r4
 800075a:	ea22 0204 	bic.w	r2, r2, r4
 800075e:	2800      	cmp	r0, #0
 8000760:	ea43 0302 	orr.w	r3, r3, r2
 8000764:	bfac      	ite	ge
 8000766:	f100 4060 	addge.w	r0, r0, #3758096384	; 0xe0000000
 800076a:	4a07      	ldrlt	r2, [pc, #28]	; (8000788 <HAL_NVIC_SetPriority+0x60>)
 800076c:	ea4f 1303 	mov.w	r3, r3, lsl #4
 8000770:	b2db      	uxtb	r3, r3
 8000772:	bfab      	itete	ge
 8000774:	f500 4061 	addge.w	r0, r0, #57600	; 0xe100
 8000778:	f000 000f 	andlt.w	r0, r0, #15
 800077c:	f880 3300 	strbge.w	r3, [r0, #768]	; 0x300
 8000780:	5413      	strblt	r3, [r2, r0]
 8000782:	bd30      	pop	{r4, r5, pc}
 8000784:	e000ed00 	.word	0xe000ed00
 8000788:	e000ed14 	.word	0xe000ed14

0800078c <HAL_NVIC_EnableIRQ>:
 800078c:	2800      	cmp	r0, #0
 800078e:	db08      	blt.n	80007a2 <HAL_NVIC_EnableIRQ+0x16>
 8000790:	2301      	movs	r3, #1
 8000792:	0942      	lsrs	r2, r0, #5
 8000794:	f000 001f 	and.w	r0, r0, #31
 8000798:	fa03 f000 	lsl.w	r0, r3, r0
 800079c:	4b01      	ldr	r3, [pc, #4]	; (80007a4 <HAL_NVIC_EnableIRQ+0x18>)
 800079e:	f843 0022 	str.w	r0, [r3, r2, lsl #2]
 80007a2:	4770      	bx	lr
 80007a4:	e000e100 	.word	0xe000e100

080007a8 <HAL_GPIO_Init>:
 80007a8:	e92d 4ff7 	stmdb	sp!, {r0, r1, r2, r4, r5, r6, r7, r8, r9, sl, fp, lr}
 80007ac:	2200      	movs	r2, #0
 80007ae:	4616      	mov	r6, r2
 80007b0:	4f6a      	ldr	r7, [pc, #424]	; (800095c <HAL_GPIO_Init+0x1b4>)
 80007b2:	4b6b      	ldr	r3, [pc, #428]	; (8000960 <HAL_GPIO_Init+0x1b8>)
 80007b4:	f8df c1ac 	ldr.w	ip, [pc, #428]	; 8000964 <HAL_GPIO_Init+0x1bc>
 80007b8:	f8df e1ac 	ldr.w	lr, [pc, #428]	; 8000968 <HAL_GPIO_Init+0x1c0>
 80007bc:	680c      	ldr	r4, [r1, #0]
 80007be:	fa34 f506 	lsrs.w	r5, r4, r6
 80007c2:	d102      	bne.n	80007ca <HAL_GPIO_Init+0x22>
 80007c4:	b003      	add	sp, #12
 80007c6:	e8bd 8ff0 	ldmia.w	sp!, {r4, r5, r6, r7, r8, r9, sl, fp, pc}
 80007ca:	f04f 0801 	mov.w	r8, #1
 80007ce:	fa08 f806 	lsl.w	r8, r8, r6
 80007d2:	ea04 0508 	and.w	r5, r4, r8
 80007d6:	ea38 0404 	bics.w	r4, r8, r4
 80007da:	f040 8081 	bne.w	80008e0 <HAL_GPIO_Init+0x138>
 80007de:	684c      	ldr	r4, [r1, #4]
 80007e0:	2c03      	cmp	r4, #3
 80007e2:	d807      	bhi.n	80007f4 <HAL_GPIO_Init+0x4c>
 80007e4:	3c01      	subs	r4, #1
 80007e6:	2c02      	cmp	r4, #2
 80007e8:	f200 808c 	bhi.w	8000904 <HAL_GPIO_Init+0x15c>
 80007ec:	e8df f004 	tbb	[pc, r4]
 80007f0:	a29d      	.short	0xa29d
 80007f2:	a8          	.byte	0xa8
 80007f3:	00          	.byte	0x00
 80007f4:	2c12      	cmp	r4, #18
 80007f6:	f000 80a0 	beq.w	800093a <HAL_GPIO_Init+0x192>
 80007fa:	d873      	bhi.n	80008e4 <HAL_GPIO_Init+0x13c>
 80007fc:	2c11      	cmp	r4, #17
 80007fe:	f000 8096 	beq.w	800092e <HAL_GPIO_Init+0x186>
 8000802:	2dff      	cmp	r5, #255	; 0xff
 8000804:	bf98      	it	ls
 8000806:	4682      	movls	sl, r0
 8000808:	f04f 090f 	mov.w	r9, #15
 800080c:	bf88      	it	hi
 800080e:	f100 0a04 	addhi.w	sl, r0, #4
 8000812:	ea4f 0486 	mov.w	r4, r6, lsl #2
 8000816:	f8da 8000 	ldr.w	r8, [sl]
 800081a:	bf88      	it	hi
 800081c:	3c20      	subhi	r4, #32
 800081e:	fa09 fb04 	lsl.w	fp, r9, r4
 8000822:	ea28 080b 	bic.w	r8, r8, fp
 8000826:	fa02 f404 	lsl.w	r4, r2, r4
 800082a:	ea48 0404 	orr.w	r4, r8, r4
 800082e:	f8ca 4000 	str.w	r4, [sl]
 8000832:	f8d1 a004 	ldr.w	sl, [r1, #4]
 8000836:	f01a 5f80 	tst.w	sl, #268435456	; 0x10000000
 800083a:	d051      	beq.n	80008e0 <HAL_GPIO_Init+0x138>
 800083c:	69bc      	ldr	r4, [r7, #24]
 800083e:	f026 0803 	bic.w	r8, r6, #3
 8000842:	f044 0401 	orr.w	r4, r4, #1
 8000846:	61bc      	str	r4, [r7, #24]
 8000848:	69bc      	ldr	r4, [r7, #24]
 800084a:	f108 4880 	add.w	r8, r8, #1073741824	; 0x40000000
 800084e:	f004 0401 	and.w	r4, r4, #1
 8000852:	9401      	str	r4, [sp, #4]
 8000854:	f508 3880 	add.w	r8, r8, #65536	; 0x10000
 8000858:	f006 0b03 	and.w	fp, r6, #3
 800085c:	9c01      	ldr	r4, [sp, #4]
 800085e:	ea4f 0b8b 	mov.w	fp, fp, lsl #2
 8000862:	f8d8 4008 	ldr.w	r4, [r8, #8]
 8000866:	fa09 f90b 	lsl.w	r9, r9, fp
 800086a:	ea24 0909 	bic.w	r9, r4, r9
 800086e:	4c3f      	ldr	r4, [pc, #252]	; (800096c <HAL_GPIO_Init+0x1c4>)
 8000870:	42a0      	cmp	r0, r4
 8000872:	d069      	beq.n	8000948 <HAL_GPIO_Init+0x1a0>
 8000874:	f504 6480 	add.w	r4, r4, #1024	; 0x400
 8000878:	42a0      	cmp	r0, r4
 800087a:	d067      	beq.n	800094c <HAL_GPIO_Init+0x1a4>
 800087c:	f504 6480 	add.w	r4, r4, #1024	; 0x400
 8000880:	42a0      	cmp	r0, r4
 8000882:	d065      	beq.n	8000950 <HAL_GPIO_Init+0x1a8>
 8000884:	f504 6480 	add.w	r4, r4, #1024	; 0x400
 8000888:	42a0      	cmp	r0, r4
 800088a:	d063      	beq.n	8000954 <HAL_GPIO_Init+0x1ac>
 800088c:	f504 6480 	add.w	r4, r4, #1024	; 0x400
 8000890:	42a0      	cmp	r0, r4
 8000892:	d061      	beq.n	8000958 <HAL_GPIO_Init+0x1b0>
 8000894:	4560      	cmp	r0, ip
 8000896:	bf0c      	ite	eq
 8000898:	2405      	moveq	r4, #5
 800089a:	2406      	movne	r4, #6
 800089c:	fa04 f40b 	lsl.w	r4, r4, fp
 80008a0:	ea44 0409 	orr.w	r4, r4, r9
 80008a4:	f8c8 4008 	str.w	r4, [r8, #8]
 80008a8:	681c      	ldr	r4, [r3, #0]
 80008aa:	f41a 3f80 	tst.w	sl, #65536	; 0x10000
 80008ae:	bf14      	ite	ne
 80008b0:	432c      	orrne	r4, r5
 80008b2:	43ac      	biceq	r4, r5
 80008b4:	601c      	str	r4, [r3, #0]
 80008b6:	685c      	ldr	r4, [r3, #4]
 80008b8:	f41a 3f00 	tst.w	sl, #131072	; 0x20000
 80008bc:	bf14      	ite	ne
 80008be:	432c      	orrne	r4, r5
 80008c0:	43ac      	biceq	r4, r5
 80008c2:	605c      	str	r4, [r3, #4]
 80008c4:	689c      	ldr	r4, [r3, #8]
 80008c6:	f41a 1f80 	tst.w	sl, #1048576	; 0x100000
 80008ca:	bf14      	ite	ne
 80008cc:	432c      	orrne	r4, r5
 80008ce:	43ac      	biceq	r4, r5
 80008d0:	609c      	str	r4, [r3, #8]
 80008d2:	68dc      	ldr	r4, [r3, #12]
 80008d4:	f41a 1f00 	tst.w	sl, #2097152	; 0x200000
 80008d8:	bf14      	ite	ne
 80008da:	432c      	orrne	r4, r5
 80008dc:	43ac      	biceq	r4, r5
 80008de:	60dc      	str	r4, [r3, #12]
 80008e0:	3601      	adds	r6, #1
 80008e2:	e76b      	b.n	80007bc <HAL_GPIO_Init+0x14>
 80008e4:	4574      	cmp	r4, lr
 80008e6:	d00d      	beq.n	8000904 <HAL_GPIO_Init+0x15c>
 80008e8:	d818      	bhi.n	800091c <HAL_GPIO_Init+0x174>
 80008ea:	f8df 9084 	ldr.w	r9, [pc, #132]	; 8000970 <HAL_GPIO_Init+0x1c8>
 80008ee:	454c      	cmp	r4, r9
 80008f0:	d008      	beq.n	8000904 <HAL_GPIO_Init+0x15c>
 80008f2:	f509 2970 	add.w	r9, r9, #983040	; 0xf0000
 80008f6:	454c      	cmp	r4, r9
 80008f8:	d004      	beq.n	8000904 <HAL_GPIO_Init+0x15c>
 80008fa:	f5a9 1980 	sub.w	r9, r9, #1048576	; 0x100000
 80008fe:	454c      	cmp	r4, r9
 8000900:	f47f af7f 	bne.w	8000802 <HAL_GPIO_Init+0x5a>
 8000904:	688a      	ldr	r2, [r1, #8]
 8000906:	b1ea      	cbz	r2, 8000944 <HAL_GPIO_Init+0x19c>
 8000908:	2a01      	cmp	r2, #1
 800090a:	bf08      	it	eq
 800090c:	f8c0 8010 	streq.w	r8, [r0, #16]
 8000910:	f04f 0208 	mov.w	r2, #8
 8000914:	bf18      	it	ne
 8000916:	f8c0 8014 	strne.w	r8, [r0, #20]
 800091a:	e772      	b.n	8000802 <HAL_GPIO_Init+0x5a>
 800091c:	f8df 9054 	ldr.w	r9, [pc, #84]	; 8000974 <HAL_GPIO_Init+0x1cc>
 8000920:	454c      	cmp	r4, r9
 8000922:	d0ef      	beq.n	8000904 <HAL_GPIO_Init+0x15c>
 8000924:	f509 3980 	add.w	r9, r9, #65536	; 0x10000
 8000928:	e7e9      	b.n	80008fe <HAL_GPIO_Init+0x156>
 800092a:	68ca      	ldr	r2, [r1, #12]
 800092c:	e769      	b.n	8000802 <HAL_GPIO_Init+0x5a>
 800092e:	68ca      	ldr	r2, [r1, #12]
 8000930:	3204      	adds	r2, #4
 8000932:	e766      	b.n	8000802 <HAL_GPIO_Init+0x5a>
 8000934:	68ca      	ldr	r2, [r1, #12]
 8000936:	3208      	adds	r2, #8
 8000938:	e763      	b.n	8000802 <HAL_GPIO_Init+0x5a>
 800093a:	68ca      	ldr	r2, [r1, #12]
 800093c:	320c      	adds	r2, #12
 800093e:	e760      	b.n	8000802 <HAL_GPIO_Init+0x5a>
 8000940:	2200      	movs	r2, #0
 8000942:	e75e      	b.n	8000802 <HAL_GPIO_Init+0x5a>
 8000944:	2204      	movs	r2, #4
 8000946:	e75c      	b.n	8000802 <HAL_GPIO_Init+0x5a>
 8000948:	2400      	movs	r4, #0
 800094a:	e7a7      	b.n	800089c <HAL_GPIO_Init+0xf4>
 800094c:	2401      	movs	r4, #1
 800094e:	e7a5      	b.n	800089c <HAL_GPIO_Init+0xf4>
 8000950:	2402      	movs	r4, #2
 8000952:	e7a3      	b.n	800089c <HAL_GPIO_Init+0xf4>
 8000954:	2403      	movs	r4, #3
 8000956:	e7a1      	b.n	800089c <HAL_GPIO_Init+0xf4>
 8000958:	2404      	movs	r4, #4
 800095a:	e79f      	b.n	800089c <HAL_GPIO_Init+0xf4>
 800095c:	40021000 	.word	0x40021000
 8000960:	40010400 	.word	0x40010400
 8000964:	40011c00 	.word	0x40011c00
 8000968:	10220000 	.word	0x10220000
 800096c:	40010800 	.word	0x40010800
 8000970:	10120000 	.word	0x10120000
 8000974:	10310000 	.word	0x10310000

08000978 <HAL_RCC_OscConfig>:
 8000978:	e92d 41f3 	stmdb	sp!, {r0, r1, r4, r5, r6, r7, r8, lr}
 800097c:	4605      	mov	r5, r0
 800097e:	b338      	cbz	r0, 80009d0 <HAL_RCC_OscConfig+0x58>
 8000980:	6803      	ldr	r3, [r0, #0]
 8000982:	07db      	lsls	r3, r3, #31
 8000984:	d410      	bmi.n	80009a8 <HAL_RCC_OscConfig+0x30>
 8000986:	682b      	ldr	r3, [r5, #0]
 8000988:	079f      	lsls	r7, r3, #30
 800098a:	d45e      	bmi.n	8000a4a <HAL_RCC_OscConfig+0xd2>
 800098c:	682b      	ldr	r3, [r5, #0]
 800098e:	0719      	lsls	r1, r3, #28
 8000990:	f100 8095 	bmi.w	8000abe <HAL_RCC_OscConfig+0x146>
 8000994:	682b      	ldr	r3, [r5, #0]
 8000996:	075a      	lsls	r2, r3, #29
 8000998:	f100 80c1 	bmi.w	8000b1e <HAL_RCC_OscConfig+0x1a6>
 800099c:	69e8      	ldr	r0, [r5, #28]
 800099e:	2800      	cmp	r0, #0
 80009a0:	f040 812c 	bne.w	8000bfc <HAL_RCC_OscConfig+0x284>
 80009a4:	2000      	movs	r0, #0
 80009a6:	e029      	b.n	80009fc <HAL_RCC_OscConfig+0x84>
 80009a8:	4c90      	ldr	r4, [pc, #576]	; (8000bec <HAL_RCC_OscConfig+0x274>)
 80009aa:	6863      	ldr	r3, [r4, #4]
 80009ac:	f003 030c 	and.w	r3, r3, #12
 80009b0:	2b04      	cmp	r3, #4
 80009b2:	d007      	beq.n	80009c4 <HAL_RCC_OscConfig+0x4c>
 80009b4:	6863      	ldr	r3, [r4, #4]
 80009b6:	f003 030c 	and.w	r3, r3, #12
 80009ba:	2b08      	cmp	r3, #8
 80009bc:	d10a      	bne.n	80009d4 <HAL_RCC_OscConfig+0x5c>
 80009be:	6863      	ldr	r3, [r4, #4]
 80009c0:	03de      	lsls	r6, r3, #15
 80009c2:	d507      	bpl.n	80009d4 <HAL_RCC_OscConfig+0x5c>
 80009c4:	6823      	ldr	r3, [r4, #0]
 80009c6:	039c      	lsls	r4, r3, #14
 80009c8:	d5dd      	bpl.n	8000986 <HAL_RCC_OscConfig+0xe>
 80009ca:	686b      	ldr	r3, [r5, #4]
 80009cc:	2b00      	cmp	r3, #0
 80009ce:	d1da      	bne.n	8000986 <HAL_RCC_OscConfig+0xe>
 80009d0:	2001      	movs	r0, #1
 80009d2:	e013      	b.n	80009fc <HAL_RCC_OscConfig+0x84>
 80009d4:	686b      	ldr	r3, [r5, #4]
 80009d6:	f5b3 3f80 	cmp.w	r3, #65536	; 0x10000
 80009da:	d112      	bne.n	8000a02 <HAL_RCC_OscConfig+0x8a>
 80009dc:	6823      	ldr	r3, [r4, #0]
 80009de:	f443 3380 	orr.w	r3, r3, #65536	; 0x10000
 80009e2:	6023      	str	r3, [r4, #0]
 80009e4:	f7ff fe76 	bl	80006d4 <HAL_GetTick>
 80009e8:	4606      	mov	r6, r0
 80009ea:	6823      	ldr	r3, [r4, #0]
 80009ec:	0398      	lsls	r0, r3, #14
 80009ee:	d4ca      	bmi.n	8000986 <HAL_RCC_OscConfig+0xe>
 80009f0:	f7ff fe70 	bl	80006d4 <HAL_GetTick>
 80009f4:	1b80      	subs	r0, r0, r6
 80009f6:	2864      	cmp	r0, #100	; 0x64
 80009f8:	d9f7      	bls.n	80009ea <HAL_RCC_OscConfig+0x72>
 80009fa:	2003      	movs	r0, #3
 80009fc:	b002      	add	sp, #8
 80009fe:	e8bd 81f0 	ldmia.w	sp!, {r4, r5, r6, r7, r8, pc}
 8000a02:	b99b      	cbnz	r3, 8000a2c <HAL_RCC_OscConfig+0xb4>
 8000a04:	6823      	ldr	r3, [r4, #0]
 8000a06:	f423 3380 	bic.w	r3, r3, #65536	; 0x10000
 8000a0a:	6023      	str	r3, [r4, #0]
 8000a0c:	6823      	ldr	r3, [r4, #0]
 8000a0e:	f423 2380 	bic.w	r3, r3, #262144	; 0x40000
 8000a12:	6023      	str	r3, [r4, #0]
 8000a14:	f7ff fe5e 	bl	80006d4 <HAL_GetTick>
 8000a18:	4606      	mov	r6, r0
 8000a1a:	6823      	ldr	r3, [r4, #0]
 8000a1c:	0399      	lsls	r1, r3, #14
 8000a1e:	d5b2      	bpl.n	8000986 <HAL_RCC_OscConfig+0xe>
 8000a20:	f7ff fe58 	bl	80006d4 <HAL_GetTick>
 8000a24:	1b80      	subs	r0, r0, r6
 8000a26:	2864      	cmp	r0, #100	; 0x64
 8000a28:	d9f7      	bls.n	8000a1a <HAL_RCC_OscConfig+0xa2>
 8000a2a:	e7e6      	b.n	80009fa <HAL_RCC_OscConfig+0x82>
 8000a2c:	f5b3 2fa0 	cmp.w	r3, #327680	; 0x50000
 8000a30:	6823      	ldr	r3, [r4, #0]
 8000a32:	d103      	bne.n	8000a3c <HAL_RCC_OscConfig+0xc4>
 8000a34:	f443 2380 	orr.w	r3, r3, #262144	; 0x40000
 8000a38:	6023      	str	r3, [r4, #0]
 8000a3a:	e7cf      	b.n	80009dc <HAL_RCC_OscConfig+0x64>
 8000a3c:	f423 3380 	bic.w	r3, r3, #65536	; 0x10000
 8000a40:	6023      	str	r3, [r4, #0]
 8000a42:	6823      	ldr	r3, [r4, #0]
 8000a44:	f423 2380 	bic.w	r3, r3, #262144	; 0x40000
 8000a48:	e7cb      	b.n	80009e2 <HAL_RCC_OscConfig+0x6a>
 8000a4a:	4c68      	ldr	r4, [pc, #416]	; (8000bec <HAL_RCC_OscConfig+0x274>)
 8000a4c:	6863      	ldr	r3, [r4, #4]
 8000a4e:	f013 0f0c 	tst.w	r3, #12
 8000a52:	d007      	beq.n	8000a64 <HAL_RCC_OscConfig+0xec>
 8000a54:	6863      	ldr	r3, [r4, #4]
 8000a56:	f003 030c 	and.w	r3, r3, #12
 8000a5a:	2b08      	cmp	r3, #8
 8000a5c:	d110      	bne.n	8000a80 <HAL_RCC_OscConfig+0x108>
 8000a5e:	6863      	ldr	r3, [r4, #4]
 8000a60:	03da      	lsls	r2, r3, #15
 8000a62:	d40d      	bmi.n	8000a80 <HAL_RCC_OscConfig+0x108>
 8000a64:	6823      	ldr	r3, [r4, #0]
 8000a66:	079b      	lsls	r3, r3, #30
 8000a68:	d502      	bpl.n	8000a70 <HAL_RCC_OscConfig+0xf8>
 8000a6a:	692b      	ldr	r3, [r5, #16]
 8000a6c:	2b01      	cmp	r3, #1
 8000a6e:	d1af      	bne.n	80009d0 <HAL_RCC_OscConfig+0x58>
 8000a70:	6823      	ldr	r3, [r4, #0]
 8000a72:	696a      	ldr	r2, [r5, #20]
 8000a74:	f023 03f8 	bic.w	r3, r3, #248	; 0xf8
 8000a78:	ea43 03c2 	orr.w	r3, r3, r2, lsl #3
 8000a7c:	6023      	str	r3, [r4, #0]
 8000a7e:	e785      	b.n	800098c <HAL_RCC_OscConfig+0x14>
 8000a80:	692a      	ldr	r2, [r5, #16]
 8000a82:	4b5b      	ldr	r3, [pc, #364]	; (8000bf0 <HAL_RCC_OscConfig+0x278>)
 8000a84:	b16a      	cbz	r2, 8000aa2 <HAL_RCC_OscConfig+0x12a>
 8000a86:	2201      	movs	r2, #1
 8000a88:	601a      	str	r2, [r3, #0]
 8000a8a:	f7ff fe23 	bl	80006d4 <HAL_GetTick>
 8000a8e:	4606      	mov	r6, r0
 8000a90:	6823      	ldr	r3, [r4, #0]
 8000a92:	079f      	lsls	r7, r3, #30
 8000a94:	d4ec      	bmi.n	8000a70 <HAL_RCC_OscConfig+0xf8>
 8000a96:	f7ff fe1d 	bl	80006d4 <HAL_GetTick>
 8000a9a:	1b80      	subs	r0, r0, r6
 8000a9c:	2802      	cmp	r0, #2
 8000a9e:	d9f7      	bls.n	8000a90 <HAL_RCC_OscConfig+0x118>
 8000aa0:	e7ab      	b.n	80009fa <HAL_RCC_OscConfig+0x82>
 8000aa2:	601a      	str	r2, [r3, #0]
 8000aa4:	f7ff fe16 	bl	80006d4 <HAL_GetTick>
 8000aa8:	4606      	mov	r6, r0
 8000aaa:	6823      	ldr	r3, [r4, #0]
 8000aac:	0798      	lsls	r0, r3, #30
 8000aae:	f57f af6d 	bpl.w	800098c <HAL_RCC_OscConfig+0x14>
 8000ab2:	f7ff fe0f 	bl	80006d4 <HAL_GetTick>
 8000ab6:	1b80      	subs	r0, r0, r6
 8000ab8:	2802      	cmp	r0, #2
 8000aba:	d9f6      	bls.n	8000aaa <HAL_RCC_OscConfig+0x132>
 8000abc:	e79d      	b.n	80009fa <HAL_RCC_OscConfig+0x82>
 8000abe:	69aa      	ldr	r2, [r5, #24]
 8000ac0:	4e4a      	ldr	r6, [pc, #296]	; (8000bec <HAL_RCC_OscConfig+0x274>)
 8000ac2:	4b4b      	ldr	r3, [pc, #300]	; (8000bf0 <HAL_RCC_OscConfig+0x278>)
 8000ac4:	b1e2      	cbz	r2, 8000b00 <HAL_RCC_OscConfig+0x188>
 8000ac6:	2201      	movs	r2, #1
 8000ac8:	f8c3 2480 	str.w	r2, [r3, #1152]	; 0x480
 8000acc:	f7ff fe02 	bl	80006d4 <HAL_GetTick>
 8000ad0:	4604      	mov	r4, r0
 8000ad2:	6a73      	ldr	r3, [r6, #36]	; 0x24
 8000ad4:	079b      	lsls	r3, r3, #30
 8000ad6:	d50d      	bpl.n	8000af4 <HAL_RCC_OscConfig+0x17c>
 8000ad8:	f44f 52fa 	mov.w	r2, #8000	; 0x1f40
 8000adc:	4b45      	ldr	r3, [pc, #276]	; (8000bf4 <HAL_RCC_OscConfig+0x27c>)
 8000ade:	681b      	ldr	r3, [r3, #0]
 8000ae0:	fbb3 f3f2 	udiv	r3, r3, r2
 8000ae4:	9301      	str	r3, [sp, #4]
 8000ae6:	bf00      	nop
 8000ae8:	9b01      	ldr	r3, [sp, #4]
 8000aea:	1e5a      	subs	r2, r3, #1
 8000aec:	9201      	str	r2, [sp, #4]
 8000aee:	2b00      	cmp	r3, #0
 8000af0:	d1f9      	bne.n	8000ae6 <HAL_RCC_OscConfig+0x16e>
 8000af2:	e74f      	b.n	8000994 <HAL_RCC_OscConfig+0x1c>
 8000af4:	f7ff fdee 	bl	80006d4 <HAL_GetTick>
 8000af8:	1b00      	subs	r0, r0, r4
 8000afa:	2802      	cmp	r0, #2
 8000afc:	d9e9      	bls.n	8000ad2 <HAL_RCC_OscConfig+0x15a>
 8000afe:	e77c      	b.n	80009fa <HAL_RCC_OscConfig+0x82>
 8000b00:	f8c3 2480 	str.w	r2, [r3, #1152]	; 0x480
 8000b04:	f7ff fde6 	bl	80006d4 <HAL_GetTick>
 8000b08:	4604      	mov	r4, r0
 8000b0a:	6a73      	ldr	r3, [r6, #36]	; 0x24
 8000b0c:	079f      	lsls	r7, r3, #30
 8000b0e:	f57f af41 	bpl.w	8000994 <HAL_RCC_OscConfig+0x1c>
 8000b12:	f7ff fddf 	bl	80006d4 <HAL_GetTick>
 8000b16:	1b00      	subs	r0, r0, r4
 8000b18:	2802      	cmp	r0, #2
 8000b1a:	d9f6      	bls.n	8000b0a <HAL_RCC_OscConfig+0x192>
 8000b1c:	e76d      	b.n	80009fa <HAL_RCC_OscConfig+0x82>
 8000b1e:	4c33      	ldr	r4, [pc, #204]	; (8000bec <HAL_RCC_OscConfig+0x274>)
 8000b20:	69e3      	ldr	r3, [r4, #28]
 8000b22:	00d8      	lsls	r0, r3, #3
 8000b24:	d424      	bmi.n	8000b70 <HAL_RCC_OscConfig+0x1f8>
 8000b26:	2701      	movs	r7, #1
 8000b28:	69e3      	ldr	r3, [r4, #28]
 8000b2a:	f043 5380 	orr.w	r3, r3, #268435456	; 0x10000000
 8000b2e:	61e3      	str	r3, [r4, #28]
 8000b30:	69e3      	ldr	r3, [r4, #28]
 8000b32:	f003 5380 	and.w	r3, r3, #268435456	; 0x10000000
 8000b36:	9300      	str	r3, [sp, #0]
 8000b38:	9b00      	ldr	r3, [sp, #0]
 8000b3a:	4e2f      	ldr	r6, [pc, #188]	; (8000bf8 <HAL_RCC_OscConfig+0x280>)
 8000b3c:	6833      	ldr	r3, [r6, #0]
 8000b3e:	05d9      	lsls	r1, r3, #23
 8000b40:	d518      	bpl.n	8000b74 <HAL_RCC_OscConfig+0x1fc>
 8000b42:	68eb      	ldr	r3, [r5, #12]
 8000b44:	2b01      	cmp	r3, #1
 8000b46:	d126      	bne.n	8000b96 <HAL_RCC_OscConfig+0x21e>
 8000b48:	6a23      	ldr	r3, [r4, #32]
 8000b4a:	f043 0301 	orr.w	r3, r3, #1
 8000b4e:	6223      	str	r3, [r4, #32]
 8000b50:	f7ff fdc0 	bl	80006d4 <HAL_GetTick>
 8000b54:	f241 3888 	movw	r8, #5000	; 0x1388
 8000b58:	4606      	mov	r6, r0
 8000b5a:	6a23      	ldr	r3, [r4, #32]
 8000b5c:	079b      	lsls	r3, r3, #30
 8000b5e:	d53f      	bpl.n	8000be0 <HAL_RCC_OscConfig+0x268>
 8000b60:	2f00      	cmp	r7, #0
 8000b62:	f43f af1b 	beq.w	800099c <HAL_RCC_OscConfig+0x24>
 8000b66:	69e3      	ldr	r3, [r4, #28]
 8000b68:	f023 5380 	bic.w	r3, r3, #268435456	; 0x10000000
 8000b6c:	61e3      	str	r3, [r4, #28]
 8000b6e:	e715      	b.n	800099c <HAL_RCC_OscConfig+0x24>
 8000b70:	2700      	movs	r7, #0
 8000b72:	e7e2      	b.n	8000b3a <HAL_RCC_OscConfig+0x1c2>
 8000b74:	6833      	ldr	r3, [r6, #0]
 8000b76:	f443 7380 	orr.w	r3, r3, #256	; 0x100
 8000b7a:	6033      	str	r3, [r6, #0]
 8000b7c:	f7ff fdaa 	bl	80006d4 <HAL_GetTick>
 8000b80:	4680      	mov	r8, r0
 8000b82:	6833      	ldr	r3, [r6, #0]
 8000b84:	05da      	lsls	r2, r3, #23
 8000b86:	d4dc      	bmi.n	8000b42 <HAL_RCC_OscConfig+0x1ca>
 8000b88:	f7ff fda4 	bl	80006d4 <HAL_GetTick>
 8000b8c:	eba0 0008 	sub.w	r0, r0, r8
 8000b90:	2864      	cmp	r0, #100	; 0x64
 8000b92:	d9f6      	bls.n	8000b82 <HAL_RCC_OscConfig+0x20a>
 8000b94:	e731      	b.n	80009fa <HAL_RCC_OscConfig+0x82>
 8000b96:	b9ab      	cbnz	r3, 8000bc4 <HAL_RCC_OscConfig+0x24c>
 8000b98:	6a23      	ldr	r3, [r4, #32]
 8000b9a:	f241 3888 	movw	r8, #5000	; 0x1388
 8000b9e:	f023 0301 	bic.w	r3, r3, #1
 8000ba2:	6223      	str	r3, [r4, #32]
 8000ba4:	6a23      	ldr	r3, [r4, #32]
 8000ba6:	f023 0304 	bic.w	r3, r3, #4
 8000baa:	6223      	str	r3, [r4, #32]
 8000bac:	f7ff fd92 	bl	80006d4 <HAL_GetTick>
 8000bb0:	4606      	mov	r6, r0
 8000bb2:	6a23      	ldr	r3, [r4, #32]
 8000bb4:	0798      	lsls	r0, r3, #30
 8000bb6:	d5d3      	bpl.n	8000b60 <HAL_RCC_OscConfig+0x1e8>
 8000bb8:	f7ff fd8c 	bl	80006d4 <HAL_GetTick>
 8000bbc:	1b80      	subs	r0, r0, r6
 8000bbe:	4540      	cmp	r0, r8
 8000bc0:	d9f7      	bls.n	8000bb2 <HAL_RCC_OscConfig+0x23a>
 8000bc2:	e71a      	b.n	80009fa <HAL_RCC_OscConfig+0x82>
 8000bc4:	2b05      	cmp	r3, #5
 8000bc6:	6a23      	ldr	r3, [r4, #32]
 8000bc8:	d103      	bne.n	8000bd2 <HAL_RCC_OscConfig+0x25a>
 8000bca:	f043 0304 	orr.w	r3, r3, #4
 8000bce:	6223      	str	r3, [r4, #32]
 8000bd0:	e7ba      	b.n	8000b48 <HAL_RCC_OscConfig+0x1d0>
 8000bd2:	f023 0301 	bic.w	r3, r3, #1
 8000bd6:	6223      	str	r3, [r4, #32]
 8000bd8:	6a23      	ldr	r3, [r4, #32]
 8000bda:	f023 0304 	bic.w	r3, r3, #4
 8000bde:	e7b6      	b.n	8000b4e <HAL_RCC_OscConfig+0x1d6>
 8000be0:	f7ff fd78 	bl	80006d4 <HAL_GetTick>
 8000be4:	1b80      	subs	r0, r0, r6
 8000be6:	4540      	cmp	r0, r8
 8000be8:	d9b7      	bls.n	8000b5a <HAL_RCC_OscConfig+0x1e2>
 8000bea:	e706      	b.n	80009fa <HAL_RCC_OscConfig+0x82>
 8000bec:	40021000 	.word	0x40021000
 8000bf0:	42420000 	.word	0x42420000
 8000bf4:	20000000 	.word	0x20000000
 8000bf8:	40007000 	.word	0x40007000
 8000bfc:	4c2a      	ldr	r4, [pc, #168]	; (8000ca8 <HAL_RCC_OscConfig+0x330>)
 8000bfe:	6863      	ldr	r3, [r4, #4]
 8000c00:	f003 030c 	and.w	r3, r3, #12
 8000c04:	2b08      	cmp	r3, #8
 8000c06:	d03e      	beq.n	8000c86 <HAL_RCC_OscConfig+0x30e>
 8000c08:	2200      	movs	r2, #0
 8000c0a:	4b28      	ldr	r3, [pc, #160]	; (8000cac <HAL_RCC_OscConfig+0x334>)
 8000c0c:	2802      	cmp	r0, #2
 8000c0e:	661a      	str	r2, [r3, #96]	; 0x60
 8000c10:	d12c      	bne.n	8000c6c <HAL_RCC_OscConfig+0x2f4>
 8000c12:	f7ff fd5f 	bl	80006d4 <HAL_GetTick>
 8000c16:	4606      	mov	r6, r0
 8000c18:	6823      	ldr	r3, [r4, #0]
 8000c1a:	0199      	lsls	r1, r3, #6
 8000c1c:	d420      	bmi.n	8000c60 <HAL_RCC_OscConfig+0x2e8>
 8000c1e:	6a2b      	ldr	r3, [r5, #32]
 8000c20:	f5b3 3f80 	cmp.w	r3, #65536	; 0x10000
 8000c24:	d105      	bne.n	8000c32 <HAL_RCC_OscConfig+0x2ba>
 8000c26:	6862      	ldr	r2, [r4, #4]
 8000c28:	68a9      	ldr	r1, [r5, #8]
 8000c2a:	f422 3200 	bic.w	r2, r2, #131072	; 0x20000
 8000c2e:	430a      	orrs	r2, r1
 8000c30:	6062      	str	r2, [r4, #4]
 8000c32:	6a69      	ldr	r1, [r5, #36]	; 0x24
 8000c34:	6862      	ldr	r2, [r4, #4]
 8000c36:	430b      	orrs	r3, r1
 8000c38:	f422 1274 	bic.w	r2, r2, #3997696	; 0x3d0000
 8000c3c:	4313      	orrs	r3, r2
 8000c3e:	2201      	movs	r2, #1
 8000c40:	6063      	str	r3, [r4, #4]
 8000c42:	4b1a      	ldr	r3, [pc, #104]	; (8000cac <HAL_RCC_OscConfig+0x334>)
 8000c44:	661a      	str	r2, [r3, #96]	; 0x60
 8000c46:	f7ff fd45 	bl	80006d4 <HAL_GetTick>
 8000c4a:	4605      	mov	r5, r0
 8000c4c:	6823      	ldr	r3, [r4, #0]
 8000c4e:	019a      	lsls	r2, r3, #6
 8000c50:	f53f aea8 	bmi.w	80009a4 <HAL_RCC_OscConfig+0x2c>
 8000c54:	f7ff fd3e 	bl	80006d4 <HAL_GetTick>
 8000c58:	1b40      	subs	r0, r0, r5
 8000c5a:	2802      	cmp	r0, #2
 8000c5c:	d9f6      	bls.n	8000c4c <HAL_RCC_OscConfig+0x2d4>
 8000c5e:	e6cc      	b.n	80009fa <HAL_RCC_OscConfig+0x82>
 8000c60:	f7ff fd38 	bl	80006d4 <HAL_GetTick>
 8000c64:	1b80      	subs	r0, r0, r6
 8000c66:	2802      	cmp	r0, #2
 8000c68:	d9d6      	bls.n	8000c18 <HAL_RCC_OscConfig+0x2a0>
 8000c6a:	e6c6      	b.n	80009fa <HAL_RCC_OscConfig+0x82>
 8000c6c:	f7ff fd32 	bl	80006d4 <HAL_GetTick>
 8000c70:	4605      	mov	r5, r0
 8000c72:	6823      	ldr	r3, [r4, #0]
 8000c74:	019b      	lsls	r3, r3, #6
 8000c76:	f57f ae95 	bpl.w	80009a4 <HAL_RCC_OscConfig+0x2c>
 8000c7a:	f7ff fd2b 	bl	80006d4 <HAL_GetTick>
 8000c7e:	1b40      	subs	r0, r0, r5
 8000c80:	2802      	cmp	r0, #2
 8000c82:	d9f6      	bls.n	8000c72 <HAL_RCC_OscConfig+0x2fa>
 8000c84:	e6b9      	b.n	80009fa <HAL_RCC_OscConfig+0x82>
 8000c86:	2801      	cmp	r0, #1
 8000c88:	f43f aeb8 	beq.w	80009fc <HAL_RCC_OscConfig+0x84>
 8000c8c:	6863      	ldr	r3, [r4, #4]
 8000c8e:	6a2a      	ldr	r2, [r5, #32]
 8000c90:	f403 3180 	and.w	r1, r3, #65536	; 0x10000
 8000c94:	4291      	cmp	r1, r2
 8000c96:	f47f ae9b 	bne.w	80009d0 <HAL_RCC_OscConfig+0x58>
 8000c9a:	6a6a      	ldr	r2, [r5, #36]	; 0x24
 8000c9c:	f403 1370 	and.w	r3, r3, #3932160	; 0x3c0000
 8000ca0:	4293      	cmp	r3, r2
 8000ca2:	f43f ae7f 	beq.w	80009a4 <HAL_RCC_OscConfig+0x2c>
 8000ca6:	e693      	b.n	80009d0 <HAL_RCC_OscConfig+0x58>
 8000ca8:	40021000 	.word	0x40021000
 8000cac:	42420000 	.word	0x42420000

08000cb0 <HAL_RCC_GetSysClockFreq>:
 8000cb0:	b530      	push	{r4, r5, lr}
 8000cb2:	4b18      	ldr	r3, [pc, #96]	; (8000d14 <HAL_RCC_GetSysClockFreq+0x64>)
 8000cb4:	b087      	sub	sp, #28
 8000cb6:	ac02      	add	r4, sp, #8
 8000cb8:	f103 0510 	add.w	r5, r3, #16
 8000cbc:	4622      	mov	r2, r4
 8000cbe:	6818      	ldr	r0, [r3, #0]
 8000cc0:	6859      	ldr	r1, [r3, #4]
 8000cc2:	3308      	adds	r3, #8
 8000cc4:	c203      	stmia	r2!, {r0, r1}
 8000cc6:	42ab      	cmp	r3, r5
 8000cc8:	4614      	mov	r4, r2
 8000cca:	d1f7      	bne.n	8000cbc <HAL_RCC_GetSysClockFreq+0xc>
 8000ccc:	f240 2301 	movw	r3, #513	; 0x201
 8000cd0:	4911      	ldr	r1, [pc, #68]	; (8000d18 <HAL_RCC_GetSysClockFreq+0x68>)
 8000cd2:	f8ad 3004 	strh.w	r3, [sp, #4]
 8000cd6:	684b      	ldr	r3, [r1, #4]
 8000cd8:	f003 020c 	and.w	r2, r3, #12
 8000cdc:	2a08      	cmp	r2, #8
 8000cde:	d117      	bne.n	8000d10 <HAL_RCC_GetSysClockFreq+0x60>
 8000ce0:	f3c3 4283 	ubfx	r2, r3, #18, #4
 8000ce4:	3218      	adds	r2, #24
 8000ce6:	446a      	add	r2, sp
 8000ce8:	03db      	lsls	r3, r3, #15
 8000cea:	f812 0c10 	ldrb.w	r0, [r2, #-16]
 8000cee:	d50c      	bpl.n	8000d0a <HAL_RCC_GetSysClockFreq+0x5a>
 8000cf0:	684b      	ldr	r3, [r1, #4]
 8000cf2:	4a0a      	ldr	r2, [pc, #40]	; (8000d1c <HAL_RCC_GetSysClockFreq+0x6c>)
 8000cf4:	f3c3 4340 	ubfx	r3, r3, #17, #1
 8000cf8:	4350      	muls	r0, r2
 8000cfa:	3318      	adds	r3, #24
 8000cfc:	446b      	add	r3, sp
 8000cfe:	f813 3c14 	ldrb.w	r3, [r3, #-20]
 8000d02:	fbb0 f0f3 	udiv	r0, r0, r3
 8000d06:	b007      	add	sp, #28
 8000d08:	bd30      	pop	{r4, r5, pc}
 8000d0a:	4b05      	ldr	r3, [pc, #20]	; (8000d20 <HAL_RCC_GetSysClockFreq+0x70>)
 8000d0c:	4358      	muls	r0, r3
 8000d0e:	e7fa      	b.n	8000d06 <HAL_RCC_GetSysClockFreq+0x56>
 8000d10:	4802      	ldr	r0, [pc, #8]	; (8000d1c <HAL_RCC_GetSysClockFreq+0x6c>)
 8000d12:	e7f8      	b.n	8000d06 <HAL_RCC_GetSysClockFreq+0x56>
 8000d14:	08003638 	.word	0x08003638
 8000d18:	40021000 	.word	0x40021000
 8000d1c:	007a1200 	.word	0x007a1200
 8000d20:	003d0900 	.word	0x003d0900

08000d24 <HAL_RCC_ClockConfig>:
 8000d24:	e92d 41f0 	stmdb	sp!, {r4, r5, r6, r7, r8, lr}
 8000d28:	460d      	mov	r5, r1
 8000d2a:	4604      	mov	r4, r0
 8000d2c:	b910      	cbnz	r0, 8000d34 <HAL_RCC_ClockConfig+0x10>
 8000d2e:	2001      	movs	r0, #1
 8000d30:	e8bd 81f0 	ldmia.w	sp!, {r4, r5, r6, r7, r8, pc}
 8000d34:	4a44      	ldr	r2, [pc, #272]	; (8000e48 <HAL_RCC_ClockConfig+0x124>)
 8000d36:	6813      	ldr	r3, [r2, #0]
 8000d38:	f003 0307 	and.w	r3, r3, #7
 8000d3c:	428b      	cmp	r3, r1
 8000d3e:	d328      	bcc.n	8000d92 <HAL_RCC_ClockConfig+0x6e>
 8000d40:	6821      	ldr	r1, [r4, #0]
 8000d42:	078e      	lsls	r6, r1, #30
 8000d44:	d430      	bmi.n	8000da8 <HAL_RCC_ClockConfig+0x84>
 8000d46:	07ca      	lsls	r2, r1, #31
 8000d48:	d443      	bmi.n	8000dd2 <HAL_RCC_ClockConfig+0xae>
 8000d4a:	4a3f      	ldr	r2, [pc, #252]	; (8000e48 <HAL_RCC_ClockConfig+0x124>)
 8000d4c:	6813      	ldr	r3, [r2, #0]
 8000d4e:	f003 0307 	and.w	r3, r3, #7
 8000d52:	42ab      	cmp	r3, r5
 8000d54:	d865      	bhi.n	8000e22 <HAL_RCC_ClockConfig+0xfe>
 8000d56:	6822      	ldr	r2, [r4, #0]
 8000d58:	4d3c      	ldr	r5, [pc, #240]	; (8000e4c <HAL_RCC_ClockConfig+0x128>)
 8000d5a:	f012 0f04 	tst.w	r2, #4
 8000d5e:	d16c      	bne.n	8000e3a <HAL_RCC_ClockConfig+0x116>
 8000d60:	0713      	lsls	r3, r2, #28
 8000d62:	d506      	bpl.n	8000d72 <HAL_RCC_ClockConfig+0x4e>
 8000d64:	686b      	ldr	r3, [r5, #4]
 8000d66:	6922      	ldr	r2, [r4, #16]
 8000d68:	f423 5360 	bic.w	r3, r3, #14336	; 0x3800
 8000d6c:	ea43 03c2 	orr.w	r3, r3, r2, lsl #3
 8000d70:	606b      	str	r3, [r5, #4]
 8000d72:	f7ff ff9d 	bl	8000cb0 <HAL_RCC_GetSysClockFreq>
 8000d76:	686b      	ldr	r3, [r5, #4]
 8000d78:	4a35      	ldr	r2, [pc, #212]	; (8000e50 <HAL_RCC_ClockConfig+0x12c>)
 8000d7a:	f3c3 1303 	ubfx	r3, r3, #4, #4
 8000d7e:	5cd3      	ldrb	r3, [r2, r3]
 8000d80:	40d8      	lsrs	r0, r3
 8000d82:	4b34      	ldr	r3, [pc, #208]	; (8000e54 <HAL_RCC_ClockConfig+0x130>)
 8000d84:	6018      	str	r0, [r3, #0]
 8000d86:	4b34      	ldr	r3, [pc, #208]	; (8000e58 <HAL_RCC_ClockConfig+0x134>)
 8000d88:	6818      	ldr	r0, [r3, #0]
 8000d8a:	f7ff fbe3 	bl	8000554 <HAL_InitTick>
 8000d8e:	2000      	movs	r0, #0
 8000d90:	e7ce      	b.n	8000d30 <HAL_RCC_ClockConfig+0xc>
 8000d92:	6813      	ldr	r3, [r2, #0]
 8000d94:	f023 0307 	bic.w	r3, r3, #7
 8000d98:	430b      	orrs	r3, r1
 8000d9a:	6013      	str	r3, [r2, #0]
 8000d9c:	6813      	ldr	r3, [r2, #0]
 8000d9e:	f003 0307 	and.w	r3, r3, #7
 8000da2:	428b      	cmp	r3, r1
 8000da4:	d1c3      	bne.n	8000d2e <HAL_RCC_ClockConfig+0xa>
 8000da6:	e7cb      	b.n	8000d40 <HAL_RCC_ClockConfig+0x1c>
 8000da8:	4b28      	ldr	r3, [pc, #160]	; (8000e4c <HAL_RCC_ClockConfig+0x128>)
 8000daa:	f011 0f04 	tst.w	r1, #4
 8000dae:	bf1e      	ittt	ne
 8000db0:	685a      	ldrne	r2, [r3, #4]
 8000db2:	f442 62e0 	orrne.w	r2, r2, #1792	; 0x700
 8000db6:	605a      	strne	r2, [r3, #4]
 8000db8:	0708      	lsls	r0, r1, #28
 8000dba:	bf42      	ittt	mi
 8000dbc:	685a      	ldrmi	r2, [r3, #4]
 8000dbe:	f442 5260 	orrmi.w	r2, r2, #14336	; 0x3800
 8000dc2:	605a      	strmi	r2, [r3, #4]
 8000dc4:	685a      	ldr	r2, [r3, #4]
 8000dc6:	68a0      	ldr	r0, [r4, #8]
 8000dc8:	f022 02f0 	bic.w	r2, r2, #240	; 0xf0
 8000dcc:	4302      	orrs	r2, r0
 8000dce:	605a      	str	r2, [r3, #4]
 8000dd0:	e7b9      	b.n	8000d46 <HAL_RCC_ClockConfig+0x22>
 8000dd2:	6862      	ldr	r2, [r4, #4]
 8000dd4:	4e1d      	ldr	r6, [pc, #116]	; (8000e4c <HAL_RCC_ClockConfig+0x128>)
 8000dd6:	2a01      	cmp	r2, #1
 8000dd8:	6833      	ldr	r3, [r6, #0]
 8000dda:	d11a      	bne.n	8000e12 <HAL_RCC_ClockConfig+0xee>
 8000ddc:	f413 3f00 	tst.w	r3, #131072	; 0x20000
 8000de0:	d0a5      	beq.n	8000d2e <HAL_RCC_ClockConfig+0xa>
 8000de2:	6873      	ldr	r3, [r6, #4]
 8000de4:	f241 3888 	movw	r8, #5000	; 0x1388
 8000de8:	f023 0303 	bic.w	r3, r3, #3
 8000dec:	4313      	orrs	r3, r2
 8000dee:	6073      	str	r3, [r6, #4]
 8000df0:	f7ff fc70 	bl	80006d4 <HAL_GetTick>
 8000df4:	4607      	mov	r7, r0
 8000df6:	6873      	ldr	r3, [r6, #4]
 8000df8:	6862      	ldr	r2, [r4, #4]
 8000dfa:	f003 030c 	and.w	r3, r3, #12
 8000dfe:	ebb3 0f82 	cmp.w	r3, r2, lsl #2
 8000e02:	d0a2      	beq.n	8000d4a <HAL_RCC_ClockConfig+0x26>
 8000e04:	f7ff fc66 	bl	80006d4 <HAL_GetTick>
 8000e08:	1bc0      	subs	r0, r0, r7
 8000e0a:	4540      	cmp	r0, r8
 8000e0c:	d9f3      	bls.n	8000df6 <HAL_RCC_ClockConfig+0xd2>
 8000e0e:	2003      	movs	r0, #3
 8000e10:	e78e      	b.n	8000d30 <HAL_RCC_ClockConfig+0xc>
 8000e12:	2a02      	cmp	r2, #2
 8000e14:	d102      	bne.n	8000e1c <HAL_RCC_ClockConfig+0xf8>
 8000e16:	f013 7f00 	tst.w	r3, #33554432	; 0x2000000
 8000e1a:	e7e1      	b.n	8000de0 <HAL_RCC_ClockConfig+0xbc>
 8000e1c:	f013 0f02 	tst.w	r3, #2
 8000e20:	e7de      	b.n	8000de0 <HAL_RCC_ClockConfig+0xbc>
 8000e22:	6813      	ldr	r3, [r2, #0]
 8000e24:	f023 0307 	bic.w	r3, r3, #7
 8000e28:	432b      	orrs	r3, r5
 8000e2a:	6013      	str	r3, [r2, #0]
 8000e2c:	6813      	ldr	r3, [r2, #0]
 8000e2e:	f003 0307 	and.w	r3, r3, #7
 8000e32:	42ab      	cmp	r3, r5
 8000e34:	f47f af7b 	bne.w	8000d2e <HAL_RCC_ClockConfig+0xa>
 8000e38:	e78d      	b.n	8000d56 <HAL_RCC_ClockConfig+0x32>
 8000e3a:	686b      	ldr	r3, [r5, #4]
 8000e3c:	68e1      	ldr	r1, [r4, #12]
 8000e3e:	f423 63e0 	bic.w	r3, r3, #1792	; 0x700
 8000e42:	430b      	orrs	r3, r1
 8000e44:	606b      	str	r3, [r5, #4]
 8000e46:	e78b      	b.n	8000d60 <HAL_RCC_ClockConfig+0x3c>
 8000e48:	40022000 	.word	0x40022000
 8000e4c:	40021000 	.word	0x40021000
 8000e50:	08003620 	.word	0x08003620
 8000e54:	20000000 	.word	0x20000000
 8000e58:	20000008 	.word	0x20000008

08000e5c <HAL_RCC_GetPCLK1Freq>:
 8000e5c:	4b04      	ldr	r3, [pc, #16]	; (8000e70 <HAL_RCC_GetPCLK1Freq+0x14>)
 8000e5e:	4a05      	ldr	r2, [pc, #20]	; (8000e74 <HAL_RCC_GetPCLK1Freq+0x18>)
 8000e60:	685b      	ldr	r3, [r3, #4]
 8000e62:	f3c3 2302 	ubfx	r3, r3, #8, #3
 8000e66:	5cd3      	ldrb	r3, [r2, r3]
 8000e68:	4a03      	ldr	r2, [pc, #12]	; (8000e78 <HAL_RCC_GetPCLK1Freq+0x1c>)
 8000e6a:	6810      	ldr	r0, [r2, #0]
 8000e6c:	40d8      	lsrs	r0, r3
 8000e6e:	4770      	bx	lr
 8000e70:	40021000 	.word	0x40021000
 8000e74:	08003630 	.word	0x08003630
 8000e78:	20000000 	.word	0x20000000

08000e7c <HAL_RCC_GetPCLK2Freq>:
 8000e7c:	4b04      	ldr	r3, [pc, #16]	; (8000e90 <HAL_RCC_GetPCLK2Freq+0x14>)
 8000e7e:	4a05      	ldr	r2, [pc, #20]	; (8000e94 <HAL_RCC_GetPCLK2Freq+0x18>)
 8000e80:	685b      	ldr	r3, [r3, #4]
 8000e82:	f3c3 23c2 	ubfx	r3, r3, #11, #3
 8000e86:	5cd3      	ldrb	r3, [r2, r3]
 8000e88:	4a03      	ldr	r2, [pc, #12]	; (8000e98 <HAL_RCC_GetPCLK2Freq+0x1c>)
 8000e8a:	6810      	ldr	r0, [r2, #0]
 8000e8c:	40d8      	lsrs	r0, r3
 8000e8e:	4770      	bx	lr
 8000e90:	40021000 	.word	0x40021000
 8000e94:	08003630 	.word	0x08003630
 8000e98:	20000000 	.word	0x20000000

08000e9c <HAL_RCC_GetClockConfig>:
 8000e9c:	230f      	movs	r3, #15
 8000e9e:	6003      	str	r3, [r0, #0]
 8000ea0:	4b0b      	ldr	r3, [pc, #44]	; (8000ed0 <HAL_RCC_GetClockConfig+0x34>)
 8000ea2:	685a      	ldr	r2, [r3, #4]
 8000ea4:	f002 0203 	and.w	r2, r2, #3
 8000ea8:	6042      	str	r2, [r0, #4]
 8000eaa:	685a      	ldr	r2, [r3, #4]
 8000eac:	f002 02f0 	and.w	r2, r2, #240	; 0xf0
 8000eb0:	6082      	str	r2, [r0, #8]
 8000eb2:	685a      	ldr	r2, [r3, #4]
 8000eb4:	f402 62e0 	and.w	r2, r2, #1792	; 0x700
 8000eb8:	60c2      	str	r2, [r0, #12]
 8000eba:	685b      	ldr	r3, [r3, #4]
 8000ebc:	08db      	lsrs	r3, r3, #3
 8000ebe:	f403 63e0 	and.w	r3, r3, #1792	; 0x700
 8000ec2:	6103      	str	r3, [r0, #16]
 8000ec4:	4b03      	ldr	r3, [pc, #12]	; (8000ed4 <HAL_RCC_GetClockConfig+0x38>)
 8000ec6:	681b      	ldr	r3, [r3, #0]
 8000ec8:	f003 0307 	and.w	r3, r3, #7
 8000ecc:	600b      	str	r3, [r1, #0]
 8000ece:	4770      	bx	lr
 8000ed0:	40021000 	.word	0x40021000
 8000ed4:	40022000 	.word	0x40022000

08000ed8 <HAL_TIM_Base_MspInit>:
 8000ed8:	4770      	bx	lr
	...

08000edc <HAL_TIM_Base_Start_IT>:
 8000edc:	f890 303d 	ldrb.w	r3, [r0, #61]	; 0x3d
 8000ee0:	2b01      	cmp	r3, #1
 8000ee2:	d128      	bne.n	8000f36 <HAL_TIM_Base_Start_IT+0x5a>
 8000ee4:	2302      	movs	r3, #2
 8000ee6:	f880 303d 	strb.w	r3, [r0, #61]	; 0x3d
 8000eea:	6803      	ldr	r3, [r0, #0]
 8000eec:	68da      	ldr	r2, [r3, #12]
 8000eee:	f042 0201 	orr.w	r2, r2, #1
 8000ef2:	60da      	str	r2, [r3, #12]
 8000ef4:	4a11      	ldr	r2, [pc, #68]	; (8000f3c <HAL_TIM_Base_Start_IT+0x60>)
 8000ef6:	4293      	cmp	r3, r2
 8000ef8:	d012      	beq.n	8000f20 <HAL_TIM_Base_Start_IT+0x44>
 8000efa:	f502 6200 	add.w	r2, r2, #2048	; 0x800
 8000efe:	4293      	cmp	r3, r2
 8000f00:	d00e      	beq.n	8000f20 <HAL_TIM_Base_Start_IT+0x44>
 8000f02:	f1b3 4f80 	cmp.w	r3, #1073741824	; 0x40000000
 8000f06:	d00b      	beq.n	8000f20 <HAL_TIM_Base_Start_IT+0x44>
 8000f08:	f5a2 3298 	sub.w	r2, r2, #77824	; 0x13000
 8000f0c:	4293      	cmp	r3, r2
 8000f0e:	d007      	beq.n	8000f20 <HAL_TIM_Base_Start_IT+0x44>
 8000f10:	f502 6280 	add.w	r2, r2, #1024	; 0x400
 8000f14:	4293      	cmp	r3, r2
 8000f16:	d003      	beq.n	8000f20 <HAL_TIM_Base_Start_IT+0x44>
 8000f18:	f502 6280 	add.w	r2, r2, #1024	; 0x400
 8000f1c:	4293      	cmp	r3, r2
 8000f1e:	d104      	bne.n	8000f2a <HAL_TIM_Base_Start_IT+0x4e>
 8000f20:	689a      	ldr	r2, [r3, #8]
 8000f22:	f002 0207 	and.w	r2, r2, #7
 8000f26:	2a06      	cmp	r2, #6
 8000f28:	d003      	beq.n	8000f32 <HAL_TIM_Base_Start_IT+0x56>
 8000f2a:	681a      	ldr	r2, [r3, #0]
 8000f2c:	f042 0201 	orr.w	r2, r2, #1
 8000f30:	601a      	str	r2, [r3, #0]
 8000f32:	2000      	movs	r0, #0
 8000f34:	4770      	bx	lr
 8000f36:	2001      	movs	r0, #1
 8000f38:	4770      	bx	lr
 8000f3a:	bf00      	nop
 8000f3c:	40012c00 	.word	0x40012c00

08000f40 <HAL_TIM_OC_DelayElapsedCallback>:
 8000f40:	4770      	bx	lr

08000f42 <HAL_TIM_IC_CaptureCallback>:
 8000f42:	4770      	bx	lr

08000f44 <HAL_TIM_PWM_PulseFinishedCallback>:
 8000f44:	4770      	bx	lr

08000f46 <HAL_TIM_TriggerCallback>:
 8000f46:	4770      	bx	lr

08000f48 <HAL_TIM_IRQHandler>:
 8000f48:	6803      	ldr	r3, [r0, #0]
 8000f4a:	b510      	push	{r4, lr}
 8000f4c:	691a      	ldr	r2, [r3, #16]
 8000f4e:	4604      	mov	r4, r0
 8000f50:	0791      	lsls	r1, r2, #30
 8000f52:	d50e      	bpl.n	8000f72 <HAL_TIM_IRQHandler+0x2a>
 8000f54:	68da      	ldr	r2, [r3, #12]
 8000f56:	0792      	lsls	r2, r2, #30
 8000f58:	d50b      	bpl.n	8000f72 <HAL_TIM_IRQHandler+0x2a>
 8000f5a:	f06f 0202 	mvn.w	r2, #2
 8000f5e:	611a      	str	r2, [r3, #16]
 8000f60:	2201      	movs	r2, #1
 8000f62:	7702      	strb	r2, [r0, #28]
 8000f64:	699b      	ldr	r3, [r3, #24]
 8000f66:	079b      	lsls	r3, r3, #30
 8000f68:	d077      	beq.n	800105a <HAL_TIM_IRQHandler+0x112>
 8000f6a:	f7ff ffea 	bl	8000f42 <HAL_TIM_IC_CaptureCallback>
 8000f6e:	2300      	movs	r3, #0
 8000f70:	7723      	strb	r3, [r4, #28]
 8000f72:	6823      	ldr	r3, [r4, #0]
 8000f74:	691a      	ldr	r2, [r3, #16]
 8000f76:	0750      	lsls	r0, r2, #29
 8000f78:	d510      	bpl.n	8000f9c <HAL_TIM_IRQHandler+0x54>
 8000f7a:	68da      	ldr	r2, [r3, #12]
 8000f7c:	0751      	lsls	r1, r2, #29
 8000f7e:	d50d      	bpl.n	8000f9c <HAL_TIM_IRQHandler+0x54>
 8000f80:	f06f 0204 	mvn.w	r2, #4
 8000f84:	611a      	str	r2, [r3, #16]
 8000f86:	2202      	movs	r2, #2
 8000f88:	7722      	strb	r2, [r4, #28]
 8000f8a:	699b      	ldr	r3, [r3, #24]
 8000f8c:	4620      	mov	r0, r4
 8000f8e:	f413 7f40 	tst.w	r3, #768	; 0x300
 8000f92:	d068      	beq.n	8001066 <HAL_TIM_IRQHandler+0x11e>
 8000f94:	f7ff ffd5 	bl	8000f42 <HAL_TIM_IC_CaptureCallback>
 8000f98:	2300      	movs	r3, #0
 8000f9a:	7723      	strb	r3, [r4, #28]
 8000f9c:	6823      	ldr	r3, [r4, #0]
 8000f9e:	691a      	ldr	r2, [r3, #16]
 8000fa0:	0712      	lsls	r2, r2, #28
 8000fa2:	d50f      	bpl.n	8000fc4 <HAL_TIM_IRQHandler+0x7c>
 8000fa4:	68da      	ldr	r2, [r3, #12]
 8000fa6:	0710      	lsls	r0, r2, #28
 8000fa8:	d50c      	bpl.n	8000fc4 <HAL_TIM_IRQHandler+0x7c>
 8000faa:	f06f 0208 	mvn.w	r2, #8
 8000fae:	611a      	str	r2, [r3, #16]
 8000fb0:	2204      	movs	r2, #4
 8000fb2:	7722      	strb	r2, [r4, #28]
 8000fb4:	69db      	ldr	r3, [r3, #28]
 8000fb6:	4620      	mov	r0, r4
 8000fb8:	0799      	lsls	r1, r3, #30
 8000fba:	d05a      	beq.n	8001072 <HAL_TIM_IRQHandler+0x12a>
 8000fbc:	f7ff ffc1 	bl	8000f42 <HAL_TIM_IC_CaptureCallback>
 8000fc0:	2300      	movs	r3, #0
 8000fc2:	7723      	strb	r3, [r4, #28]
 8000fc4:	6823      	ldr	r3, [r4, #0]
 8000fc6:	691a      	ldr	r2, [r3, #16]
 8000fc8:	06d2      	lsls	r2, r2, #27
 8000fca:	d510      	bpl.n	8000fee <HAL_TIM_IRQHandler+0xa6>
 8000fcc:	68da      	ldr	r2, [r3, #12]
 8000fce:	06d0      	lsls	r0, r2, #27
 8000fd0:	d50d      	bpl.n	8000fee <HAL_TIM_IRQHandler+0xa6>
 8000fd2:	f06f 0210 	mvn.w	r2, #16
 8000fd6:	611a      	str	r2, [r3, #16]
 8000fd8:	2208      	movs	r2, #8
 8000fda:	7722      	strb	r2, [r4, #28]
 8000fdc:	69db      	ldr	r3, [r3, #28]
 8000fde:	4620      	mov	r0, r4
 8000fe0:	f413 7f40 	tst.w	r3, #768	; 0x300
 8000fe4:	d04b      	beq.n	800107e <HAL_TIM_IRQHandler+0x136>
 8000fe6:	f7ff ffac 	bl	8000f42 <HAL_TIM_IC_CaptureCallback>
 8000fea:	2300      	movs	r3, #0
 8000fec:	7723      	strb	r3, [r4, #28]
 8000fee:	6823      	ldr	r3, [r4, #0]
 8000ff0:	691a      	ldr	r2, [r3, #16]
 8000ff2:	07d1      	lsls	r1, r2, #31
 8000ff4:	d508      	bpl.n	8001008 <HAL_TIM_IRQHandler+0xc0>
 8000ff6:	68da      	ldr	r2, [r3, #12]
 8000ff8:	07d2      	lsls	r2, r2, #31
 8000ffa:	d505      	bpl.n	8001008 <HAL_TIM_IRQHandler+0xc0>
 8000ffc:	f06f 0201 	mvn.w	r2, #1
 8001000:	4620      	mov	r0, r4
 8001002:	611a      	str	r2, [r3, #16]
 8001004:	f7ff fa38 	bl	8000478 <HAL_TIM_PeriodElapsedCallback>
 8001008:	6823      	ldr	r3, [r4, #0]
 800100a:	691a      	ldr	r2, [r3, #16]
 800100c:	0610      	lsls	r0, r2, #24
 800100e:	d508      	bpl.n	8001022 <HAL_TIM_IRQHandler+0xda>
 8001010:	68da      	ldr	r2, [r3, #12]
 8001012:	0611      	lsls	r1, r2, #24
 8001014:	d505      	bpl.n	8001022 <HAL_TIM_IRQHandler+0xda>
 8001016:	f06f 0280 	mvn.w	r2, #128	; 0x80
 800101a:	4620      	mov	r0, r4
 800101c:	611a      	str	r2, [r3, #16]
 800101e:	f000 f8ae 	bl	800117e <HAL_TIMEx_BreakCallback>
 8001022:	6823      	ldr	r3, [r4, #0]
 8001024:	691a      	ldr	r2, [r3, #16]
 8001026:	0652      	lsls	r2, r2, #25
 8001028:	d508      	bpl.n	800103c <HAL_TIM_IRQHandler+0xf4>
 800102a:	68da      	ldr	r2, [r3, #12]
 800102c:	0650      	lsls	r0, r2, #25
 800102e:	d505      	bpl.n	800103c <HAL_TIM_IRQHandler+0xf4>
 8001030:	f06f 0240 	mvn.w	r2, #64	; 0x40
 8001034:	4620      	mov	r0, r4
 8001036:	611a      	str	r2, [r3, #16]
 8001038:	f7ff ff85 	bl	8000f46 <HAL_TIM_TriggerCallback>
 800103c:	6823      	ldr	r3, [r4, #0]
 800103e:	691a      	ldr	r2, [r3, #16]
 8001040:	0691      	lsls	r1, r2, #26
 8001042:	d522      	bpl.n	800108a <HAL_TIM_IRQHandler+0x142>
 8001044:	68da      	ldr	r2, [r3, #12]
 8001046:	0692      	lsls	r2, r2, #26
 8001048:	d51f      	bpl.n	800108a <HAL_TIM_IRQHandler+0x142>
 800104a:	f06f 0220 	mvn.w	r2, #32
 800104e:	4620      	mov	r0, r4
 8001050:	e8bd 4010 	ldmia.w	sp!, {r4, lr}
 8001054:	611a      	str	r2, [r3, #16]
 8001056:	f000 b891 	b.w	800117c <HAL_TIMEx_CommutCallback>
 800105a:	f7ff ff71 	bl	8000f40 <HAL_TIM_OC_DelayElapsedCallback>
 800105e:	4620      	mov	r0, r4
 8001060:	f7ff ff70 	bl	8000f44 <HAL_TIM_PWM_PulseFinishedCallback>
 8001064:	e783      	b.n	8000f6e <HAL_TIM_IRQHandler+0x26>
 8001066:	f7ff ff6b 	bl	8000f40 <HAL_TIM_OC_DelayElapsedCallback>
 800106a:	4620      	mov	r0, r4
 800106c:	f7ff ff6a 	bl	8000f44 <HAL_TIM_PWM_PulseFinishedCallback>
 8001070:	e792      	b.n	8000f98 <HAL_TIM_IRQHandler+0x50>
 8001072:	f7ff ff65 	bl	8000f40 <HAL_TIM_OC_DelayElapsedCallback>
 8001076:	4620      	mov	r0, r4
 8001078:	f7ff ff64 	bl	8000f44 <HAL_TIM_PWM_PulseFinishedCallback>
 800107c:	e7a0      	b.n	8000fc0 <HAL_TIM_IRQHandler+0x78>
 800107e:	f7ff ff5f 	bl	8000f40 <HAL_TIM_OC_DelayElapsedCallback>
 8001082:	4620      	mov	r0, r4
 8001084:	f7ff ff5e 	bl	8000f44 <HAL_TIM_PWM_PulseFinishedCallback>
 8001088:	e7af      	b.n	8000fea <HAL_TIM_IRQHandler+0xa2>
 800108a:	bd10      	pop	{r4, pc}

0800108c <TIM_Base_SetConfig>:
 800108c:	4a24      	ldr	r2, [pc, #144]	; (8001120 <TIM_Base_SetConfig+0x94>)
 800108e:	6803      	ldr	r3, [r0, #0]
 8001090:	4290      	cmp	r0, r2
 8001092:	d012      	beq.n	80010ba <TIM_Base_SetConfig+0x2e>
 8001094:	f502 6200 	add.w	r2, r2, #2048	; 0x800
 8001098:	4290      	cmp	r0, r2
 800109a:	d00e      	beq.n	80010ba <TIM_Base_SetConfig+0x2e>
 800109c:	f1b0 4f80 	cmp.w	r0, #1073741824	; 0x40000000
 80010a0:	d00b      	beq.n	80010ba <TIM_Base_SetConfig+0x2e>
 80010a2:	f5a2 3298 	sub.w	r2, r2, #77824	; 0x13000
 80010a6:	4290      	cmp	r0, r2
 80010a8:	d007      	beq.n	80010ba <TIM_Base_SetConfig+0x2e>
 80010aa:	f502 6280 	add.w	r2, r2, #1024	; 0x400
 80010ae:	4290      	cmp	r0, r2
 80010b0:	d003      	beq.n	80010ba <TIM_Base_SetConfig+0x2e>
 80010b2:	f502 6280 	add.w	r2, r2, #1024	; 0x400
 80010b6:	4290      	cmp	r0, r2
 80010b8:	d11d      	bne.n	80010f6 <TIM_Base_SetConfig+0x6a>
 80010ba:	684a      	ldr	r2, [r1, #4]
 80010bc:	f023 0370 	bic.w	r3, r3, #112	; 0x70
 80010c0:	4313      	orrs	r3, r2
 80010c2:	4a17      	ldr	r2, [pc, #92]	; (8001120 <TIM_Base_SetConfig+0x94>)
 80010c4:	4290      	cmp	r0, r2
 80010c6:	d012      	beq.n	80010ee <TIM_Base_SetConfig+0x62>
 80010c8:	f502 6200 	add.w	r2, r2, #2048	; 0x800
 80010cc:	4290      	cmp	r0, r2
 80010ce:	d00e      	beq.n	80010ee <TIM_Base_SetConfig+0x62>
 80010d0:	f1b0 4f80 	cmp.w	r0, #1073741824	; 0x40000000
 80010d4:	d00b      	beq.n	80010ee <TIM_Base_SetConfig+0x62>
 80010d6:	f5a2 3298 	sub.w	r2, r2, #77824	; 0x13000
 80010da:	4290      	cmp	r0, r2
 80010dc:	d007      	beq.n	80010ee <TIM_Base_SetConfig+0x62>
 80010de:	f502 6280 	add.w	r2, r2, #1024	; 0x400
 80010e2:	4290      	cmp	r0, r2
 80010e4:	d003      	beq.n	80010ee <TIM_Base_SetConfig+0x62>
 80010e6:	f502 6280 	add.w	r2, r2, #1024	; 0x400
 80010ea:	4290      	cmp	r0, r2
 80010ec:	d103      	bne.n	80010f6 <TIM_Base_SetConfig+0x6a>
 80010ee:	68ca      	ldr	r2, [r1, #12]
 80010f0:	f423 7340 	bic.w	r3, r3, #768	; 0x300
 80010f4:	4313      	orrs	r3, r2
 80010f6:	694a      	ldr	r2, [r1, #20]
 80010f8:	f023 0380 	bic.w	r3, r3, #128	; 0x80
 80010fc:	4313      	orrs	r3, r2
 80010fe:	6003      	str	r3, [r0, #0]
 8001100:	688b      	ldr	r3, [r1, #8]
 8001102:	62c3      	str	r3, [r0, #44]	; 0x2c
 8001104:	680b      	ldr	r3, [r1, #0]
 8001106:	6283      	str	r3, [r0, #40]	; 0x28
 8001108:	4b05      	ldr	r3, [pc, #20]	; (8001120 <TIM_Base_SetConfig+0x94>)
 800110a:	4298      	cmp	r0, r3
 800110c:	d003      	beq.n	8001116 <TIM_Base_SetConfig+0x8a>
 800110e:	f503 6300 	add.w	r3, r3, #2048	; 0x800
 8001112:	4298      	cmp	r0, r3
 8001114:	d101      	bne.n	800111a <TIM_Base_SetConfig+0x8e>
 8001116:	690b      	ldr	r3, [r1, #16]
 8001118:	6303      	str	r3, [r0, #48]	; 0x30
 800111a:	2301      	movs	r3, #1
 800111c:	6143      	str	r3, [r0, #20]
 800111e:	4770      	bx	lr
 8001120:	40012c00 	.word	0x40012c00

08001124 <HAL_TIM_Base_Init>:
 8001124:	b510      	push	{r4, lr}
 8001126:	4604      	mov	r4, r0
 8001128:	b330      	cbz	r0, 8001178 <HAL_TIM_Base_Init+0x54>
 800112a:	f890 303d 	ldrb.w	r3, [r0, #61]	; 0x3d
 800112e:	f003 02ff 	and.w	r2, r3, #255	; 0xff
 8001132:	b91b      	cbnz	r3, 800113c <HAL_TIM_Base_Init+0x18>
 8001134:	f880 203c 	strb.w	r2, [r0, #60]	; 0x3c
 8001138:	f7ff fece 	bl	8000ed8 <HAL_TIM_Base_MspInit>
 800113c:	2302      	movs	r3, #2
 800113e:	6820      	ldr	r0, [r4, #0]
 8001140:	f884 303d 	strb.w	r3, [r4, #61]	; 0x3d
 8001144:	1d21      	adds	r1, r4, #4
 8001146:	f7ff ffa1 	bl	800108c <TIM_Base_SetConfig>
 800114a:	2301      	movs	r3, #1
 800114c:	2000      	movs	r0, #0
 800114e:	f884 3046 	strb.w	r3, [r4, #70]	; 0x46
 8001152:	f884 303e 	strb.w	r3, [r4, #62]	; 0x3e
 8001156:	f884 303f 	strb.w	r3, [r4, #63]	; 0x3f
 800115a:	f884 3040 	strb.w	r3, [r4, #64]	; 0x40
 800115e:	f884 3041 	strb.w	r3, [r4, #65]	; 0x41
 8001162:	f884 3042 	strb.w	r3, [r4, #66]	; 0x42
 8001166:	f884 3043 	strb.w	r3, [r4, #67]	; 0x43
 800116a:	f884 3044 	strb.w	r3, [r4, #68]	; 0x44
 800116e:	f884 3045 	strb.w	r3, [r4, #69]	; 0x45
 8001172:	f884 303d 	strb.w	r3, [r4, #61]	; 0x3d
 8001176:	bd10      	pop	{r4, pc}
 8001178:	2001      	movs	r0, #1
 800117a:	e7fc      	b.n	8001176 <HAL_TIM_Base_Init+0x52>

0800117c <HAL_TIMEx_CommutCallback>:
 800117c:	4770      	bx	lr

0800117e <HAL_TIMEx_BreakCallback>:
 800117e:	4770      	bx	lr

08001180 <UART_SetConfig>:
 8001180:	b510      	push	{r4, lr}
 8001182:	4604      	mov	r4, r0
 8001184:	6803      	ldr	r3, [r0, #0]
 8001186:	68c1      	ldr	r1, [r0, #12]
 8001188:	691a      	ldr	r2, [r3, #16]
 800118a:	f422 5240 	bic.w	r2, r2, #12288	; 0x3000
 800118e:	430a      	orrs	r2, r1
 8001190:	611a      	str	r2, [r3, #16]
 8001192:	6882      	ldr	r2, [r0, #8]
 8001194:	6900      	ldr	r0, [r0, #16]
 8001196:	68d9      	ldr	r1, [r3, #12]
 8001198:	4302      	orrs	r2, r0
 800119a:	6960      	ldr	r0, [r4, #20]
 800119c:	f421 51b0 	bic.w	r1, r1, #5632	; 0x1600
 80011a0:	f021 010c 	bic.w	r1, r1, #12
 80011a4:	4302      	orrs	r2, r0
 80011a6:	430a      	orrs	r2, r1
 80011a8:	60da      	str	r2, [r3, #12]
 80011aa:	695a      	ldr	r2, [r3, #20]
 80011ac:	69a1      	ldr	r1, [r4, #24]
 80011ae:	f422 7240 	bic.w	r2, r2, #768	; 0x300
 80011b2:	430a      	orrs	r2, r1
 80011b4:	615a      	str	r2, [r3, #20]
 80011b6:	4a0e      	ldr	r2, [pc, #56]	; (80011f0 <UART_SetConfig+0x70>)
 80011b8:	4293      	cmp	r3, r2
 80011ba:	d115      	bne.n	80011e8 <UART_SetConfig+0x68>
 80011bc:	f7ff fe5e 	bl	8000e7c <HAL_RCC_GetPCLK2Freq>
 80011c0:	2319      	movs	r3, #25
 80011c2:	4343      	muls	r3, r0
 80011c4:	6862      	ldr	r2, [r4, #4]
 80011c6:	6820      	ldr	r0, [r4, #0]
 80011c8:	0092      	lsls	r2, r2, #2
 80011ca:	fbb3 f3f2 	udiv	r3, r3, r2
 80011ce:	2264      	movs	r2, #100	; 0x64
 80011d0:	fbb3 f1f2 	udiv	r1, r3, r2
 80011d4:	fb02 3311 	mls	r3, r2, r1, r3
 80011d8:	011b      	lsls	r3, r3, #4
 80011da:	3332      	adds	r3, #50	; 0x32
 80011dc:	fbb3 f3f2 	udiv	r3, r3, r2
 80011e0:	eb03 1301 	add.w	r3, r3, r1, lsl #4
 80011e4:	6083      	str	r3, [r0, #8]
 80011e6:	bd10      	pop	{r4, pc}
 80011e8:	f7ff fe38 	bl	8000e5c <HAL_RCC_GetPCLK1Freq>
 80011ec:	e7e8      	b.n	80011c0 <UART_SetConfig+0x40>
 80011ee:	bf00      	nop
 80011f0:	40013800 	.word	0x40013800

080011f4 <UART_WaitOnFlagUntilTimeout.constprop.0>:
 80011f4:	b5f8      	push	{r3, r4, r5, r6, r7, lr}
 80011f6:	4604      	mov	r4, r0
 80011f8:	460e      	mov	r6, r1
 80011fa:	4617      	mov	r7, r2
 80011fc:	461d      	mov	r5, r3
 80011fe:	6822      	ldr	r2, [r4, #0]
 8001200:	6813      	ldr	r3, [r2, #0]
 8001202:	ea36 0303 	bics.w	r3, r6, r3
 8001206:	d101      	bne.n	800120c <UART_WaitOnFlagUntilTimeout.constprop.0+0x18>
 8001208:	2000      	movs	r0, #0
 800120a:	e014      	b.n	8001236 <UART_WaitOnFlagUntilTimeout.constprop.0+0x42>
 800120c:	1c6b      	adds	r3, r5, #1
 800120e:	d0f7      	beq.n	8001200 <UART_WaitOnFlagUntilTimeout.constprop.0+0xc>
 8001210:	b995      	cbnz	r5, 8001238 <UART_WaitOnFlagUntilTimeout.constprop.0+0x44>
 8001212:	6823      	ldr	r3, [r4, #0]
 8001214:	2003      	movs	r0, #3
 8001216:	68da      	ldr	r2, [r3, #12]
 8001218:	f422 72d0 	bic.w	r2, r2, #416	; 0x1a0
 800121c:	60da      	str	r2, [r3, #12]
 800121e:	695a      	ldr	r2, [r3, #20]
 8001220:	f022 0201 	bic.w	r2, r2, #1
 8001224:	615a      	str	r2, [r3, #20]
 8001226:	2320      	movs	r3, #32
 8001228:	f884 303d 	strb.w	r3, [r4, #61]	; 0x3d
 800122c:	f884 303e 	strb.w	r3, [r4, #62]	; 0x3e
 8001230:	2300      	movs	r3, #0
 8001232:	f884 303c 	strb.w	r3, [r4, #60]	; 0x3c
 8001236:	bdf8      	pop	{r3, r4, r5, r6, r7, pc}
 8001238:	f7ff fa4c 	bl	80006d4 <HAL_GetTick>
 800123c:	1bc0      	subs	r0, r0, r7
 800123e:	4285      	cmp	r5, r0
 8001240:	d2dd      	bcs.n	80011fe <UART_WaitOnFlagUntilTimeout.constprop.0+0xa>
 8001242:	e7e6      	b.n	8001212 <UART_WaitOnFlagUntilTimeout.constprop.0+0x1e>

08001244 <HAL_UART_Init>:
 8001244:	b510      	push	{r4, lr}
 8001246:	4604      	mov	r4, r0
 8001248:	b340      	cbz	r0, 800129c <HAL_UART_Init+0x58>
 800124a:	f890 303d 	ldrb.w	r3, [r0, #61]	; 0x3d
 800124e:	f003 02ff 	and.w	r2, r3, #255	; 0xff
 8001252:	b91b      	cbnz	r3, 800125c <HAL_UART_Init+0x18>
 8001254:	f880 203c 	strb.w	r2, [r0, #60]	; 0x3c
 8001258:	f7ff f940 	bl	80004dc <HAL_UART_MspInit>
 800125c:	2324      	movs	r3, #36	; 0x24
 800125e:	6822      	ldr	r2, [r4, #0]
 8001260:	f884 303d 	strb.w	r3, [r4, #61]	; 0x3d
 8001264:	68d3      	ldr	r3, [r2, #12]
 8001266:	4620      	mov	r0, r4
 8001268:	f423 5300 	bic.w	r3, r3, #8192	; 0x2000
 800126c:	60d3      	str	r3, [r2, #12]
 800126e:	f7ff ff87 	bl	8001180 <UART_SetConfig>
 8001272:	6823      	ldr	r3, [r4, #0]
 8001274:	2000      	movs	r0, #0
 8001276:	691a      	ldr	r2, [r3, #16]
 8001278:	f422 4290 	bic.w	r2, r2, #18432	; 0x4800
 800127c:	611a      	str	r2, [r3, #16]
 800127e:	695a      	ldr	r2, [r3, #20]
 8001280:	f022 022a 	bic.w	r2, r2, #42	; 0x2a
 8001284:	615a      	str	r2, [r3, #20]
 8001286:	68da      	ldr	r2, [r3, #12]
 8001288:	f442 5200 	orr.w	r2, r2, #8192	; 0x2000
 800128c:	60da      	str	r2, [r3, #12]
 800128e:	2320      	movs	r3, #32
 8001290:	6420      	str	r0, [r4, #64]	; 0x40
 8001292:	f884 303d 	strb.w	r3, [r4, #61]	; 0x3d
 8001296:	f884 303e 	strb.w	r3, [r4, #62]	; 0x3e
 800129a:	bd10      	pop	{r4, pc}
 800129c:	2001      	movs	r0, #1
 800129e:	e7fc      	b.n	800129a <HAL_UART_Init+0x56>

080012a0 <HAL_UART_Transmit>:
 80012a0:	e92d 43f8 	stmdb	sp!, {r3, r4, r5, r6, r7, r8, r9, lr}
 80012a4:	4699      	mov	r9, r3
 80012a6:	f890 303d 	ldrb.w	r3, [r0, #61]	; 0x3d
 80012aa:	4604      	mov	r4, r0
 80012ac:	2b20      	cmp	r3, #32
 80012ae:	460e      	mov	r6, r1
 80012b0:	4617      	mov	r7, r2
 80012b2:	d148      	bne.n	8001346 <HAL_UART_Transmit+0xa6>
 80012b4:	2900      	cmp	r1, #0
 80012b6:	d044      	beq.n	8001342 <HAL_UART_Transmit+0xa2>
 80012b8:	2a00      	cmp	r2, #0
 80012ba:	d042      	beq.n	8001342 <HAL_UART_Transmit+0xa2>
 80012bc:	f890 303c 	ldrb.w	r3, [r0, #60]	; 0x3c
 80012c0:	2b01      	cmp	r3, #1
 80012c2:	d040      	beq.n	8001346 <HAL_UART_Transmit+0xa6>
 80012c4:	2301      	movs	r3, #1
 80012c6:	2500      	movs	r5, #0
 80012c8:	f880 303c 	strb.w	r3, [r0, #60]	; 0x3c
 80012cc:	2321      	movs	r3, #33	; 0x21
 80012ce:	6405      	str	r5, [r0, #64]	; 0x40
 80012d0:	f880 303d 	strb.w	r3, [r0, #61]	; 0x3d
 80012d4:	f7ff f9fe 	bl	80006d4 <HAL_GetTick>
 80012d8:	68a3      	ldr	r3, [r4, #8]
 80012da:	4680      	mov	r8, r0
 80012dc:	f5b3 5f80 	cmp.w	r3, #4096	; 0x1000
 80012e0:	84a7      	strh	r7, [r4, #36]	; 0x24
 80012e2:	84e7      	strh	r7, [r4, #38]	; 0x26
 80012e4:	d103      	bne.n	80012ee <HAL_UART_Transmit+0x4e>
 80012e6:	6923      	ldr	r3, [r4, #16]
 80012e8:	b90b      	cbnz	r3, 80012ee <HAL_UART_Transmit+0x4e>
 80012ea:	4635      	mov	r5, r6
 80012ec:	461e      	mov	r6, r3
 80012ee:	2300      	movs	r3, #0
 80012f0:	f884 303c 	strb.w	r3, [r4, #60]	; 0x3c
 80012f4:	8ce3      	ldrh	r3, [r4, #38]	; 0x26
 80012f6:	b29b      	uxth	r3, r3
 80012f8:	b953      	cbnz	r3, 8001310 <HAL_UART_Transmit+0x70>
 80012fa:	464b      	mov	r3, r9
 80012fc:	4642      	mov	r2, r8
 80012fe:	2140      	movs	r1, #64	; 0x40
 8001300:	4620      	mov	r0, r4
 8001302:	f7ff ff77 	bl	80011f4 <UART_WaitOnFlagUntilTimeout.constprop.0>
 8001306:	b950      	cbnz	r0, 800131e <HAL_UART_Transmit+0x7e>
 8001308:	2320      	movs	r3, #32
 800130a:	f884 303d 	strb.w	r3, [r4, #61]	; 0x3d
 800130e:	e007      	b.n	8001320 <HAL_UART_Transmit+0x80>
 8001310:	464b      	mov	r3, r9
 8001312:	4642      	mov	r2, r8
 8001314:	2180      	movs	r1, #128	; 0x80
 8001316:	4620      	mov	r0, r4
 8001318:	f7ff ff6c 	bl	80011f4 <UART_WaitOnFlagUntilTimeout.constprop.0>
 800131c:	b110      	cbz	r0, 8001324 <HAL_UART_Transmit+0x84>
 800131e:	2003      	movs	r0, #3
 8001320:	e8bd 83f8 	ldmia.w	sp!, {r3, r4, r5, r6, r7, r8, r9, pc}
 8001324:	6822      	ldr	r2, [r4, #0]
 8001326:	b94e      	cbnz	r6, 800133c <HAL_UART_Transmit+0x9c>
 8001328:	f835 3b02 	ldrh.w	r3, [r5], #2
 800132c:	f3c3 0308 	ubfx	r3, r3, #0, #9
 8001330:	6053      	str	r3, [r2, #4]
 8001332:	8ce1      	ldrh	r1, [r4, #38]	; 0x26
 8001334:	3901      	subs	r1, #1
 8001336:	b289      	uxth	r1, r1
 8001338:	84e1      	strh	r1, [r4, #38]	; 0x26
 800133a:	e7db      	b.n	80012f4 <HAL_UART_Transmit+0x54>
 800133c:	f816 3b01 	ldrb.w	r3, [r6], #1
 8001340:	e7f6      	b.n	8001330 <HAL_UART_Transmit+0x90>
 8001342:	2001      	movs	r0, #1
 8001344:	e7ec      	b.n	8001320 <HAL_UART_Transmit+0x80>
 8001346:	2002      	movs	r0, #2
 8001348:	e7ea      	b.n	8001320 <HAL_UART_Transmit+0x80>

0800134a <osKernelStart>:
 800134a:	b508      	push	{r3, lr}
 800134c:	f000 ff1a 	bl	8002184 <vTaskStartScheduler>
 8001350:	2000      	movs	r0, #0
 8001352:	bd08      	pop	{r3, pc}

08001354 <osThreadCreate>:
 8001354:	b570      	push	{r4, r5, r6, lr}
 8001356:	4605      	mov	r5, r0
 8001358:	6946      	ldr	r6, [r0, #20]
 800135a:	460b      	mov	r3, r1
 800135c:	e9d0 1000 	ldrd	r1, r0, [r0]
 8001360:	692a      	ldr	r2, [r5, #16]
 8001362:	f9b5 4008 	ldrsh.w	r4, [r5, #8]
 8001366:	b086      	sub	sp, #24
 8001368:	b176      	cbz	r6, 8001388 <osThreadCreate+0x34>
 800136a:	69ad      	ldr	r5, [r5, #24]
 800136c:	b165      	cbz	r5, 8001388 <osThreadCreate+0x34>
 800136e:	2c84      	cmp	r4, #132	; 0x84
 8001370:	bf0c      	ite	eq
 8001372:	2400      	moveq	r4, #0
 8001374:	3403      	addne	r4, #3
 8001376:	e9cd 6501 	strd	r6, r5, [sp, #4]
 800137a:	9400      	str	r4, [sp, #0]
 800137c:	f000 fe9e 	bl	80020bc <xTaskCreateStatic>
 8001380:	9005      	str	r0, [sp, #20]
 8001382:	9805      	ldr	r0, [sp, #20]
 8001384:	b006      	add	sp, #24
 8001386:	bd70      	pop	{r4, r5, r6, pc}
 8001388:	2c84      	cmp	r4, #132	; 0x84
 800138a:	bf0c      	ite	eq
 800138c:	2400      	moveq	r4, #0
 800138e:	3403      	addne	r4, #3
 8001390:	ad05      	add	r5, sp, #20
 8001392:	e9cd 4500 	strd	r4, r5, [sp]
 8001396:	b292      	uxth	r2, r2
 8001398:	f000 fec7 	bl	800212a <xTaskCreate>
 800139c:	2801      	cmp	r0, #1
 800139e:	d0f0      	beq.n	8001382 <osThreadCreate+0x2e>
 80013a0:	2000      	movs	r0, #0
 80013a2:	e7ef      	b.n	8001384 <osThreadCreate+0x30>

080013a4 <osSemaphoreCreate>:
 80013a4:	4603      	mov	r3, r0
 80013a6:	b537      	push	{r0, r1, r2, r4, r5, lr}
 80013a8:	685d      	ldr	r5, [r3, #4]
 80013aa:	4608      	mov	r0, r1
 80013ac:	b195      	cbz	r5, 80013d4 <osSemaphoreCreate+0x30>
 80013ae:	2901      	cmp	r1, #1
 80013b0:	d10a      	bne.n	80013c8 <osSemaphoreCreate+0x24>
 80013b2:	2303      	movs	r3, #3
 80013b4:	2200      	movs	r2, #0
 80013b6:	9300      	str	r3, [sp, #0]
 80013b8:	4611      	mov	r1, r2
 80013ba:	462b      	mov	r3, r5
 80013bc:	f000 fa58 	bl	8001870 <xQueueGenericCreateStatic>
 80013c0:	4604      	mov	r4, r0
 80013c2:	4620      	mov	r0, r4
 80013c4:	b003      	add	sp, #12
 80013c6:	bd30      	pop	{r4, r5, pc}
 80013c8:	462a      	mov	r2, r5
 80013ca:	b003      	add	sp, #12
 80013cc:	e8bd 4030 	ldmia.w	sp!, {r4, r5, lr}
 80013d0:	f000 babb 	b.w	800194a <xQueueCreateCountingSemaphoreStatic>
 80013d4:	2901      	cmp	r1, #1
 80013d6:	d10c      	bne.n	80013f2 <osSemaphoreCreate+0x4e>
 80013d8:	2203      	movs	r2, #3
 80013da:	4629      	mov	r1, r5
 80013dc:	f000 fa91 	bl	8001902 <xQueueGenericCreate>
 80013e0:	4604      	mov	r4, r0
 80013e2:	2800      	cmp	r0, #0
 80013e4:	d0ed      	beq.n	80013c2 <osSemaphoreCreate+0x1e>
 80013e6:	462b      	mov	r3, r5
 80013e8:	462a      	mov	r2, r5
 80013ea:	4629      	mov	r1, r5
 80013ec:	f000 faed 	bl	80019ca <xQueueGenericSend>
 80013f0:	e7e7      	b.n	80013c2 <osSemaphoreCreate+0x1e>
 80013f2:	b003      	add	sp, #12
 80013f4:	e8bd 4030 	ldmia.w	sp!, {r4, r5, lr}
 80013f8:	f000 bac9 	b.w	800198e <xQueueCreateCountingSemaphore>

080013fc <osPoolCreate>:
 80013fc:	e92d 41f0 	stmdb	sp!, {r4, r5, r6, r7, r8, lr}
 8001400:	6847      	ldr	r7, [r0, #4]
 8001402:	4606      	mov	r6, r0
 8001404:	2014      	movs	r0, #20
 8001406:	f001 fae3 	bl	80029d0 <pvPortMalloc>
 800140a:	4604      	mov	r4, r0
 800140c:	b308      	cbz	r0, 8001452 <osPoolCreate+0x56>
 800140e:	2500      	movs	r5, #0
 8001410:	6830      	ldr	r0, [r6, #0]
 8001412:	3703      	adds	r7, #3
 8001414:	f027 0703 	bic.w	r7, r7, #3
 8001418:	60a0      	str	r0, [r4, #8]
 800141a:	60e7      	str	r7, [r4, #12]
 800141c:	6125      	str	r5, [r4, #16]
 800141e:	f001 fad7 	bl	80029d0 <pvPortMalloc>
 8001422:	4680      	mov	r8, r0
 8001424:	6060      	str	r0, [r4, #4]
 8001426:	b1d0      	cbz	r0, 800145e <osPoolCreate+0x62>
 8001428:	6830      	ldr	r0, [r6, #0]
 800142a:	4378      	muls	r0, r7
 800142c:	f001 fad0 	bl	80029d0 <pvPortMalloc>
 8001430:	4607      	mov	r7, r0
 8001432:	6020      	str	r0, [r4, #0]
 8001434:	b980      	cbnz	r0, 8001458 <osPoolCreate+0x5c>
 8001436:	6860      	ldr	r0, [r4, #4]
 8001438:	f001 fb5a 	bl	8002af0 <vPortFree>
 800143c:	4620      	mov	r0, r4
 800143e:	f001 fb57 	bl	8002af0 <vPortFree>
 8001442:	463c      	mov	r4, r7
 8001444:	e005      	b.n	8001452 <osPoolCreate+0x56>
 8001446:	6862      	ldr	r2, [r4, #4]
 8001448:	54d1      	strb	r1, [r2, r3]
 800144a:	3301      	adds	r3, #1
 800144c:	6832      	ldr	r2, [r6, #0]
 800144e:	429a      	cmp	r2, r3
 8001450:	d8f9      	bhi.n	8001446 <osPoolCreate+0x4a>
 8001452:	4620      	mov	r0, r4
 8001454:	e8bd 81f0 	ldmia.w	sp!, {r4, r5, r6, r7, r8, pc}
 8001458:	462b      	mov	r3, r5
 800145a:	4629      	mov	r1, r5
 800145c:	e7f6      	b.n	800144c <osPoolCreate+0x50>
 800145e:	4620      	mov	r0, r4
 8001460:	f001 fb46 	bl	8002af0 <vPortFree>
 8001464:	4644      	mov	r4, r8
 8001466:	e7f4      	b.n	8001452 <osPoolCreate+0x56>

08001468 <osPoolAlloc>:
 8001468:	b570      	push	{r4, r5, r6, lr}
 800146a:	4604      	mov	r4, r0
 800146c:	f3ef 8605 	mrs	r6, IPSR
 8001470:	b186      	cbz	r6, 8001494 <osPoolAlloc+0x2c>
 8001472:	f3ef 8511 	mrs	r5, BASEPRI
 8001476:	f04f 0350 	mov.w	r3, #80	; 0x50
 800147a:	f383 8811 	msr	BASEPRI, r3
 800147e:	f3bf 8f6f 	isb	sy
 8001482:	f3bf 8f4f 	dsb	sy
 8001486:	462e      	mov	r6, r5
 8001488:	2200      	movs	r2, #0
 800148a:	68a1      	ldr	r1, [r4, #8]
 800148c:	4291      	cmp	r1, r2
 800148e:	d104      	bne.n	800149a <osPoolAlloc+0x32>
 8001490:	2500      	movs	r5, #0
 8001492:	e013      	b.n	80014bc <osPoolAlloc+0x54>
 8001494:	f001 f96e 	bl	8002774 <vPortEnterCritical>
 8001498:	e7f6      	b.n	8001488 <osPoolAlloc+0x20>
 800149a:	6923      	ldr	r3, [r4, #16]
 800149c:	4413      	add	r3, r2
 800149e:	fbb3 f0f1 	udiv	r0, r3, r1
 80014a2:	fb01 3310 	mls	r3, r1, r0, r3
 80014a6:	6860      	ldr	r0, [r4, #4]
 80014a8:	18c5      	adds	r5, r0, r3
 80014aa:	5cc0      	ldrb	r0, [r0, r3]
 80014ac:	b968      	cbnz	r0, 80014ca <osPoolAlloc+0x62>
 80014ae:	2201      	movs	r2, #1
 80014b0:	702a      	strb	r2, [r5, #0]
 80014b2:	68e0      	ldr	r0, [r4, #12]
 80014b4:	6825      	ldr	r5, [r4, #0]
 80014b6:	6123      	str	r3, [r4, #16]
 80014b8:	fb00 5503 	mla	r5, r0, r3, r5
 80014bc:	f3ef 8305 	mrs	r3, IPSR
 80014c0:	b12b      	cbz	r3, 80014ce <osPoolAlloc+0x66>
 80014c2:	f386 8811 	msr	BASEPRI, r6
 80014c6:	4628      	mov	r0, r5
 80014c8:	bd70      	pop	{r4, r5, r6, pc}
 80014ca:	3201      	adds	r2, #1
 80014cc:	e7de      	b.n	800148c <osPoolAlloc+0x24>
 80014ce:	f001 f971 	bl	80027b4 <vPortExitCritical>
 80014d2:	e7f8      	b.n	80014c6 <osPoolAlloc+0x5e>

080014d4 <osPoolFree>:
 80014d4:	4603      	mov	r3, r0
 80014d6:	b180      	cbz	r0, 80014fa <osPoolFree+0x26>
 80014d8:	b179      	cbz	r1, 80014fa <osPoolFree+0x26>
 80014da:	6800      	ldr	r0, [r0, #0]
 80014dc:	4288      	cmp	r0, r1
 80014de:	d80c      	bhi.n	80014fa <osPoolFree+0x26>
 80014e0:	1a09      	subs	r1, r1, r0
 80014e2:	68d8      	ldr	r0, [r3, #12]
 80014e4:	fbb1 f2f0 	udiv	r2, r1, r0
 80014e8:	fb00 1012 	mls	r0, r0, r2, r1
 80014ec:	b928      	cbnz	r0, 80014fa <osPoolFree+0x26>
 80014ee:	6899      	ldr	r1, [r3, #8]
 80014f0:	4291      	cmp	r1, r2
 80014f2:	d902      	bls.n	80014fa <osPoolFree+0x26>
 80014f4:	685b      	ldr	r3, [r3, #4]
 80014f6:	5498      	strb	r0, [r3, r2]
 80014f8:	4770      	bx	lr
 80014fa:	2080      	movs	r0, #128	; 0x80
 80014fc:	4770      	bx	lr

080014fe <osMessageCreate>:
 80014fe:	4603      	mov	r3, r0
 8001500:	b513      	push	{r0, r1, r4, lr}
 8001502:	c807      	ldmia	r0, {r0, r1, r2}
 8001504:	b10a      	cbz	r2, 800150a <osMessageCreate+0xc>
 8001506:	68db      	ldr	r3, [r3, #12]
 8001508:	b92b      	cbnz	r3, 8001516 <osMessageCreate+0x18>
 800150a:	2200      	movs	r2, #0
 800150c:	b002      	add	sp, #8
 800150e:	e8bd 4010 	ldmia.w	sp!, {r4, lr}
 8001512:	f000 b9f6 	b.w	8001902 <xQueueGenericCreate>
 8001516:	2400      	movs	r4, #0
 8001518:	9400      	str	r4, [sp, #0]
 800151a:	f000 f9a9 	bl	8001870 <xQueueGenericCreateStatic>
 800151e:	b002      	add	sp, #8
 8001520:	bd10      	pop	{r4, pc}

08001522 <osMailCreate>:
 8001522:	b57f      	push	{r0, r1, r2, r3, r4, r5, r6, lr}
 8001524:	2600      	movs	r6, #0
 8001526:	6803      	ldr	r3, [r0, #0]
 8001528:	6884      	ldr	r4, [r0, #8]
 800152a:	9301      	str	r3, [sp, #4]
 800152c:	6843      	ldr	r3, [r0, #4]
 800152e:	4605      	mov	r5, r0
 8001530:	200c      	movs	r0, #12
 8001532:	9302      	str	r3, [sp, #8]
 8001534:	9603      	str	r6, [sp, #12]
 8001536:	f001 fa4b 	bl	80029d0 <pvPortMalloc>
 800153a:	68ab      	ldr	r3, [r5, #8]
 800153c:	6020      	str	r0, [r4, #0]
 800153e:	681c      	ldr	r4, [r3, #0]
 8001540:	b16c      	cbz	r4, 800155e <osMailCreate+0x3c>
 8001542:	4632      	mov	r2, r6
 8001544:	6025      	str	r5, [r4, #0]
 8001546:	2104      	movs	r1, #4
 8001548:	6828      	ldr	r0, [r5, #0]
 800154a:	f000 f9da 	bl	8001902 <xQueueGenericCreate>
 800154e:	68ab      	ldr	r3, [r5, #8]
 8001550:	6060      	str	r0, [r4, #4]
 8001552:	681e      	ldr	r6, [r3, #0]
 8001554:	6874      	ldr	r4, [r6, #4]
 8001556:	b92c      	cbnz	r4, 8001564 <osMailCreate+0x42>
 8001558:	4630      	mov	r0, r6
 800155a:	f001 fac9 	bl	8002af0 <vPortFree>
 800155e:	4620      	mov	r0, r4
 8001560:	b004      	add	sp, #16
 8001562:	bd70      	pop	{r4, r5, r6, pc}
 8001564:	a801      	add	r0, sp, #4
 8001566:	f7ff ff49 	bl	80013fc <osPoolCreate>
 800156a:	68ab      	ldr	r3, [r5, #8]
 800156c:	60b0      	str	r0, [r6, #8]
 800156e:	681c      	ldr	r4, [r3, #0]
 8001570:	68a5      	ldr	r5, [r4, #8]
 8001572:	2d00      	cmp	r5, #0
 8001574:	d1f3      	bne.n	800155e <osMailCreate+0x3c>
 8001576:	4620      	mov	r0, r4
 8001578:	f001 faba 	bl	8002af0 <vPortFree>
 800157c:	462c      	mov	r4, r5
 800157e:	e7ee      	b.n	800155e <osMailCreate+0x3c>

08001580 <osMailAlloc>:
 8001580:	b110      	cbz	r0, 8001588 <osMailAlloc+0x8>
 8001582:	6880      	ldr	r0, [r0, #8]
 8001584:	f7ff bf70 	b.w	8001468 <osPoolAlloc>
 8001588:	4770      	bx	lr

0800158a <osMailPut>:
 800158a:	b51f      	push	{r0, r1, r2, r3, r4, lr}
 800158c:	9101      	str	r1, [sp, #4]
 800158e:	b320      	cbz	r0, 80015da <osMailPut+0x50>
 8001590:	2400      	movs	r4, #0
 8001592:	9403      	str	r4, [sp, #12]
 8001594:	f3ef 8305 	mrs	r3, IPSR
 8001598:	6840      	ldr	r0, [r0, #4]
 800159a:	b1bb      	cbz	r3, 80015cc <osMailPut+0x42>
 800159c:	4623      	mov	r3, r4
 800159e:	aa03      	add	r2, sp, #12
 80015a0:	a901      	add	r1, sp, #4
 80015a2:	f000 fac5 	bl	8001b30 <xQueueGenericSendFromISR>
 80015a6:	2801      	cmp	r0, #1
 80015a8:	d002      	beq.n	80015b0 <osMailPut+0x26>
 80015aa:	20ff      	movs	r0, #255	; 0xff
 80015ac:	b004      	add	sp, #16
 80015ae:	bd10      	pop	{r4, pc}
 80015b0:	9b03      	ldr	r3, [sp, #12]
 80015b2:	b14b      	cbz	r3, 80015c8 <osMailPut+0x3e>
 80015b4:	f04f 23e0 	mov.w	r3, #3758153728	; 0xe000e000
 80015b8:	f04f 5280 	mov.w	r2, #268435456	; 0x10000000
 80015bc:	f8c3 2d04 	str.w	r2, [r3, #3332]	; 0xd04
 80015c0:	f3bf 8f4f 	dsb	sy
 80015c4:	f3bf 8f6f 	isb	sy
 80015c8:	2000      	movs	r0, #0
 80015ca:	e7ef      	b.n	80015ac <osMailPut+0x22>
 80015cc:	461a      	mov	r2, r3
 80015ce:	a901      	add	r1, sp, #4
 80015d0:	f000 f9fb 	bl	80019ca <xQueueGenericSend>
 80015d4:	2801      	cmp	r0, #1
 80015d6:	d0f7      	beq.n	80015c8 <osMailPut+0x3e>
 80015d8:	e7e7      	b.n	80015aa <osMailPut+0x20>
 80015da:	2080      	movs	r0, #128	; 0x80
 80015dc:	e7e6      	b.n	80015ac <osMailPut+0x22>

080015de <osMailGet>:
 80015de:	b57f      	push	{r0, r1, r2, r3, r4, r5, r6, lr}
 80015e0:	4604      	mov	r4, r0
 80015e2:	4616      	mov	r6, r2
 80015e4:	9103      	str	r1, [sp, #12]
 80015e6:	ad01      	add	r5, sp, #4
 80015e8:	b911      	cbnz	r1, 80015f0 <osMailGet+0x12>
 80015ea:	2380      	movs	r3, #128	; 0x80
 80015ec:	9301      	str	r3, [sp, #4]
 80015ee:	e01a      	b.n	8001626 <osMailGet+0x48>
 80015f0:	2300      	movs	r3, #0
 80015f2:	9300      	str	r3, [sp, #0]
 80015f4:	f3ef 8305 	mrs	r3, IPSR
 80015f8:	6848      	ldr	r0, [r1, #4]
 80015fa:	b1db      	cbz	r3, 8001634 <osMailGet+0x56>
 80015fc:	466a      	mov	r2, sp
 80015fe:	a902      	add	r1, sp, #8
 8001600:	f000 fb96 	bl	8001d30 <xQueueReceiveFromISR>
 8001604:	2801      	cmp	r0, #1
 8001606:	bf0c      	ite	eq
 8001608:	2320      	moveq	r3, #32
 800160a:	2300      	movne	r3, #0
 800160c:	9301      	str	r3, [sp, #4]
 800160e:	9b00      	ldr	r3, [sp, #0]
 8001610:	b14b      	cbz	r3, 8001626 <osMailGet+0x48>
 8001612:	f04f 23e0 	mov.w	r3, #3758153728	; 0xe000e000
 8001616:	f04f 5280 	mov.w	r2, #268435456	; 0x10000000
 800161a:	f8c3 2d04 	str.w	r2, [r3, #3332]	; 0xd04
 800161e:	f3bf 8f4f 	dsb	sy
 8001622:	f3bf 8f6f 	isb	sy
 8001626:	e895 0007 	ldmia.w	r5, {r0, r1, r2}
 800162a:	e884 0007 	stmia.w	r4, {r0, r1, r2}
 800162e:	4620      	mov	r0, r4
 8001630:	b004      	add	sp, #16
 8001632:	bd70      	pop	{r4, r5, r6, pc}
 8001634:	a902      	add	r1, sp, #8
 8001636:	f000 fadc 	bl	8001bf2 <xQueueReceive>
 800163a:	2801      	cmp	r0, #1
 800163c:	d101      	bne.n	8001642 <osMailGet+0x64>
 800163e:	2320      	movs	r3, #32
 8001640:	e7d4      	b.n	80015ec <osMailGet+0xe>
 8001642:	2e00      	cmp	r6, #0
 8001644:	bf18      	it	ne
 8001646:	2640      	movne	r6, #64	; 0x40
 8001648:	9601      	str	r6, [sp, #4]
 800164a:	e7ec      	b.n	8001626 <osMailGet+0x48>

0800164c <osMailFree>:
 800164c:	b110      	cbz	r0, 8001654 <osMailFree+0x8>
 800164e:	6880      	ldr	r0, [r0, #8]
 8001650:	f7ff bf40 	b.w	80014d4 <osPoolFree>
 8001654:	2080      	movs	r0, #128	; 0x80
 8001656:	4770      	bx	lr

08001658 <vListInitialise>:
 8001658:	f04f 32ff 	mov.w	r2, #4294967295
 800165c:	f100 0308 	add.w	r3, r0, #8
 8001660:	e9c0 2302 	strd	r2, r3, [r0, #8]
 8001664:	6043      	str	r3, [r0, #4]
 8001666:	6103      	str	r3, [r0, #16]
 8001668:	2300      	movs	r3, #0
 800166a:	6003      	str	r3, [r0, #0]
 800166c:	4770      	bx	lr

0800166e <vListInitialiseItem>:
 800166e:	2300      	movs	r3, #0
 8001670:	6103      	str	r3, [r0, #16]
 8001672:	4770      	bx	lr

08001674 <vListInsertEnd>:
 8001674:	6843      	ldr	r3, [r0, #4]
 8001676:	689a      	ldr	r2, [r3, #8]
 8001678:	604b      	str	r3, [r1, #4]
 800167a:	608a      	str	r2, [r1, #8]
 800167c:	689a      	ldr	r2, [r3, #8]
 800167e:	6051      	str	r1, [r2, #4]
 8001680:	6099      	str	r1, [r3, #8]
 8001682:	6803      	ldr	r3, [r0, #0]
 8001684:	6108      	str	r0, [r1, #16]
 8001686:	3301      	adds	r3, #1
 8001688:	6003      	str	r3, [r0, #0]
 800168a:	4770      	bx	lr

0800168c <vListInsert>:
 800168c:	b530      	push	{r4, r5, lr}
 800168e:	680c      	ldr	r4, [r1, #0]
 8001690:	1c63      	adds	r3, r4, #1
 8001692:	d10a      	bne.n	80016aa <vListInsert+0x1e>
 8001694:	6903      	ldr	r3, [r0, #16]
 8001696:	685a      	ldr	r2, [r3, #4]
 8001698:	604a      	str	r2, [r1, #4]
 800169a:	6091      	str	r1, [r2, #8]
 800169c:	608b      	str	r3, [r1, #8]
 800169e:	6059      	str	r1, [r3, #4]
 80016a0:	6803      	ldr	r3, [r0, #0]
 80016a2:	6108      	str	r0, [r1, #16]
 80016a4:	3301      	adds	r3, #1
 80016a6:	6003      	str	r3, [r0, #0]
 80016a8:	bd30      	pop	{r4, r5, pc}
 80016aa:	f100 0208 	add.w	r2, r0, #8
 80016ae:	4613      	mov	r3, r2
 80016b0:	6852      	ldr	r2, [r2, #4]
 80016b2:	6815      	ldr	r5, [r2, #0]
 80016b4:	42a5      	cmp	r5, r4
 80016b6:	d9fa      	bls.n	80016ae <vListInsert+0x22>
 80016b8:	e7ed      	b.n	8001696 <vListInsert+0xa>

080016ba <uxListRemove>:
 80016ba:	6903      	ldr	r3, [r0, #16]
 80016bc:	e9d0 1201 	ldrd	r1, r2, [r0, #4]
 80016c0:	608a      	str	r2, [r1, #8]
 80016c2:	6051      	str	r1, [r2, #4]
 80016c4:	6859      	ldr	r1, [r3, #4]
 80016c6:	4281      	cmp	r1, r0
 80016c8:	bf08      	it	eq
 80016ca:	605a      	streq	r2, [r3, #4]
 80016cc:	2200      	movs	r2, #0
 80016ce:	6102      	str	r2, [r0, #16]
 80016d0:	681a      	ldr	r2, [r3, #0]
 80016d2:	3a01      	subs	r2, #1
 80016d4:	601a      	str	r2, [r3, #0]
 80016d6:	6818      	ldr	r0, [r3, #0]
 80016d8:	4770      	bx	lr

080016da <prvIsQueueEmpty>:
 80016da:	b510      	push	{r4, lr}
 80016dc:	4604      	mov	r4, r0
 80016de:	f001 f849 	bl	8002774 <vPortEnterCritical>
 80016e2:	6ba4      	ldr	r4, [r4, #56]	; 0x38
 80016e4:	f001 f866 	bl	80027b4 <vPortExitCritical>
 80016e8:	fab4 f084 	clz	r0, r4
 80016ec:	0940      	lsrs	r0, r0, #5
 80016ee:	bd10      	pop	{r4, pc}

080016f0 <prvCopyDataToQueue>:
 80016f0:	b5f8      	push	{r3, r4, r5, r6, r7, lr}
 80016f2:	4615      	mov	r5, r2
 80016f4:	6c02      	ldr	r2, [r0, #64]	; 0x40
 80016f6:	4604      	mov	r4, r0
 80016f8:	6b86      	ldr	r6, [r0, #56]	; 0x38
 80016fa:	b952      	cbnz	r2, 8001712 <prvCopyDataToQueue+0x22>
 80016fc:	6807      	ldr	r7, [r0, #0]
 80016fe:	bb47      	cbnz	r7, 8001752 <prvCopyDataToQueue+0x62>
 8001700:	6840      	ldr	r0, [r0, #4]
 8001702:	f000 ff8d 	bl	8002620 <xTaskPriorityDisinherit>
 8001706:	4605      	mov	r5, r0
 8001708:	6067      	str	r7, [r4, #4]
 800170a:	3601      	adds	r6, #1
 800170c:	4628      	mov	r0, r5
 800170e:	63a6      	str	r6, [r4, #56]	; 0x38
 8001710:	bdf8      	pop	{r3, r4, r5, r6, r7, pc}
 8001712:	b965      	cbnz	r5, 800172e <prvCopyDataToQueue+0x3e>
 8001714:	6880      	ldr	r0, [r0, #8]
 8001716:	f001 fa4f 	bl	8002bb8 <memcpy>
 800171a:	68a3      	ldr	r3, [r4, #8]
 800171c:	6c22      	ldr	r2, [r4, #64]	; 0x40
 800171e:	4413      	add	r3, r2
 8001720:	6862      	ldr	r2, [r4, #4]
 8001722:	60a3      	str	r3, [r4, #8]
 8001724:	4293      	cmp	r3, r2
 8001726:	d3f0      	bcc.n	800170a <prvCopyDataToQueue+0x1a>
 8001728:	6823      	ldr	r3, [r4, #0]
 800172a:	60a3      	str	r3, [r4, #8]
 800172c:	e7ed      	b.n	800170a <prvCopyDataToQueue+0x1a>
 800172e:	68c0      	ldr	r0, [r0, #12]
 8001730:	f001 fa42 	bl	8002bb8 <memcpy>
 8001734:	6c22      	ldr	r2, [r4, #64]	; 0x40
 8001736:	68e3      	ldr	r3, [r4, #12]
 8001738:	4251      	negs	r1, r2
 800173a:	1a9b      	subs	r3, r3, r2
 800173c:	6822      	ldr	r2, [r4, #0]
 800173e:	60e3      	str	r3, [r4, #12]
 8001740:	4293      	cmp	r3, r2
 8001742:	bf3e      	ittt	cc
 8001744:	6863      	ldrcc	r3, [r4, #4]
 8001746:	185b      	addcc	r3, r3, r1
 8001748:	60e3      	strcc	r3, [r4, #12]
 800174a:	2d02      	cmp	r5, #2
 800174c:	d101      	bne.n	8001752 <prvCopyDataToQueue+0x62>
 800174e:	b116      	cbz	r6, 8001756 <prvCopyDataToQueue+0x66>
 8001750:	3e01      	subs	r6, #1
 8001752:	2500      	movs	r5, #0
 8001754:	e7d9      	b.n	800170a <prvCopyDataToQueue+0x1a>
 8001756:	4635      	mov	r5, r6
 8001758:	e7d7      	b.n	800170a <prvCopyDataToQueue+0x1a>

0800175a <prvCopyDataFromQueue>:
 800175a:	4603      	mov	r3, r0
 800175c:	6c1a      	ldr	r2, [r3, #64]	; 0x40
 800175e:	4608      	mov	r0, r1
 8001760:	b410      	push	{r4}
 8001762:	b162      	cbz	r2, 800177e <prvCopyDataFromQueue+0x24>
 8001764:	68dc      	ldr	r4, [r3, #12]
 8001766:	6859      	ldr	r1, [r3, #4]
 8001768:	4414      	add	r4, r2
 800176a:	428c      	cmp	r4, r1
 800176c:	bf28      	it	cs
 800176e:	6819      	ldrcs	r1, [r3, #0]
 8001770:	60dc      	str	r4, [r3, #12]
 8001772:	bf28      	it	cs
 8001774:	60d9      	strcs	r1, [r3, #12]
 8001776:	68d9      	ldr	r1, [r3, #12]
 8001778:	bc10      	pop	{r4}
 800177a:	f001 ba1d 	b.w	8002bb8 <memcpy>
 800177e:	bc10      	pop	{r4}
 8001780:	4770      	bx	lr

08001782 <prvUnlockQueue>:
 8001782:	b570      	push	{r4, r5, r6, lr}
 8001784:	4604      	mov	r4, r0
 8001786:	f000 fff5 	bl	8002774 <vPortEnterCritical>
 800178a:	f894 5045 	ldrb.w	r5, [r4, #69]	; 0x45
 800178e:	f104 0624 	add.w	r6, r4, #36	; 0x24
 8001792:	b26d      	sxtb	r5, r5
 8001794:	2d00      	cmp	r5, #0
 8001796:	dc14      	bgt.n	80017c2 <prvUnlockQueue+0x40>
 8001798:	23ff      	movs	r3, #255	; 0xff
 800179a:	f884 3045 	strb.w	r3, [r4, #69]	; 0x45
 800179e:	f001 f809 	bl	80027b4 <vPortExitCritical>
 80017a2:	f000 ffe7 	bl	8002774 <vPortEnterCritical>
 80017a6:	f894 5044 	ldrb.w	r5, [r4, #68]	; 0x44
 80017aa:	f104 0610 	add.w	r6, r4, #16
 80017ae:	b26d      	sxtb	r5, r5
 80017b0:	2d00      	cmp	r5, #0
 80017b2:	dc12      	bgt.n	80017da <prvUnlockQueue+0x58>
 80017b4:	23ff      	movs	r3, #255	; 0xff
 80017b6:	f884 3044 	strb.w	r3, [r4, #68]	; 0x44
 80017ba:	e8bd 4070 	ldmia.w	sp!, {r4, r5, r6, lr}
 80017be:	f000 bff9 	b.w	80027b4 <vPortExitCritical>
 80017c2:	6a63      	ldr	r3, [r4, #36]	; 0x24
 80017c4:	2b00      	cmp	r3, #0
 80017c6:	d0e7      	beq.n	8001798 <prvUnlockQueue+0x16>
 80017c8:	4630      	mov	r0, r6
 80017ca:	f000 fe89 	bl	80024e0 <xTaskRemoveFromEventList>
 80017ce:	b108      	cbz	r0, 80017d4 <prvUnlockQueue+0x52>
 80017d0:	f000 ff10 	bl	80025f4 <vTaskMissedYield>
 80017d4:	3d01      	subs	r5, #1
 80017d6:	b26d      	sxtb	r5, r5
 80017d8:	e7dc      	b.n	8001794 <prvUnlockQueue+0x12>
 80017da:	6923      	ldr	r3, [r4, #16]
 80017dc:	2b00      	cmp	r3, #0
 80017de:	d0e9      	beq.n	80017b4 <prvUnlockQueue+0x32>
 80017e0:	4630      	mov	r0, r6
 80017e2:	f000 fe7d 	bl	80024e0 <xTaskRemoveFromEventList>
 80017e6:	b108      	cbz	r0, 80017ec <prvUnlockQueue+0x6a>
 80017e8:	f000 ff04 	bl	80025f4 <vTaskMissedYield>
 80017ec:	3d01      	subs	r5, #1
 80017ee:	b26d      	sxtb	r5, r5
 80017f0:	e7de      	b.n	80017b0 <prvUnlockQueue+0x2e>

080017f2 <xQueueGenericReset>:
 80017f2:	b538      	push	{r3, r4, r5, lr}
 80017f4:	460d      	mov	r5, r1
 80017f6:	4604      	mov	r4, r0
 80017f8:	b940      	cbnz	r0, 800180c <xQueueGenericReset+0x1a>
 80017fa:	f04f 0350 	mov.w	r3, #80	; 0x50
 80017fe:	f383 8811 	msr	BASEPRI, r3
 8001802:	f3bf 8f6f 	isb	sy
 8001806:	f3bf 8f4f 	dsb	sy
 800180a:	e7fe      	b.n	800180a <xQueueGenericReset+0x18>
 800180c:	f000 ffb2 	bl	8002774 <vPortEnterCritical>
 8001810:	e9d4 310f 	ldrd	r3, r1, [r4, #60]	; 0x3c
 8001814:	434b      	muls	r3, r1
 8001816:	6822      	ldr	r2, [r4, #0]
 8001818:	18d0      	adds	r0, r2, r3
 800181a:	1a5b      	subs	r3, r3, r1
 800181c:	4413      	add	r3, r2
 800181e:	6060      	str	r0, [r4, #4]
 8001820:	60e3      	str	r3, [r4, #12]
 8001822:	2000      	movs	r0, #0
 8001824:	23ff      	movs	r3, #255	; 0xff
 8001826:	63a0      	str	r0, [r4, #56]	; 0x38
 8001828:	60a2      	str	r2, [r4, #8]
 800182a:	f884 3044 	strb.w	r3, [r4, #68]	; 0x44
 800182e:	f884 3045 	strb.w	r3, [r4, #69]	; 0x45
 8001832:	b9a5      	cbnz	r5, 800185e <xQueueGenericReset+0x6c>
 8001834:	6923      	ldr	r3, [r4, #16]
 8001836:	b173      	cbz	r3, 8001856 <xQueueGenericReset+0x64>
 8001838:	f104 0010 	add.w	r0, r4, #16
 800183c:	f000 fe50 	bl	80024e0 <xTaskRemoveFromEventList>
 8001840:	b148      	cbz	r0, 8001856 <xQueueGenericReset+0x64>
 8001842:	f04f 23e0 	mov.w	r3, #3758153728	; 0xe000e000
 8001846:	f04f 5280 	mov.w	r2, #268435456	; 0x10000000
 800184a:	f8c3 2d04 	str.w	r2, [r3, #3332]	; 0xd04
 800184e:	f3bf 8f4f 	dsb	sy
 8001852:	f3bf 8f6f 	isb	sy
 8001856:	f000 ffad 	bl	80027b4 <vPortExitCritical>
 800185a:	2001      	movs	r0, #1
 800185c:	bd38      	pop	{r3, r4, r5, pc}
 800185e:	f104 0010 	add.w	r0, r4, #16
 8001862:	f7ff fef9 	bl	8001658 <vListInitialise>
 8001866:	f104 0024 	add.w	r0, r4, #36	; 0x24
 800186a:	f7ff fef5 	bl	8001658 <vListInitialise>
 800186e:	e7f2      	b.n	8001856 <xQueueGenericReset+0x64>

08001870 <xQueueGenericCreateStatic>:
 8001870:	b537      	push	{r0, r1, r2, r4, r5, lr}
 8001872:	460d      	mov	r5, r1
 8001874:	461c      	mov	r4, r3
 8001876:	b940      	cbnz	r0, 800188a <xQueueGenericCreateStatic+0x1a>
 8001878:	f04f 0350 	mov.w	r3, #80	; 0x50
 800187c:	f383 8811 	msr	BASEPRI, r3
 8001880:	f3bf 8f6f 	isb	sy
 8001884:	f3bf 8f4f 	dsb	sy
 8001888:	e7fe      	b.n	8001888 <xQueueGenericCreateStatic+0x18>
 800188a:	b943      	cbnz	r3, 800189e <xQueueGenericCreateStatic+0x2e>
 800188c:	f04f 0350 	mov.w	r3, #80	; 0x50
 8001890:	f383 8811 	msr	BASEPRI, r3
 8001894:	f3bf 8f6f 	isb	sy
 8001898:	f3bf 8f4f 	dsb	sy
 800189c:	e7fe      	b.n	800189c <xQueueGenericCreateStatic+0x2c>
 800189e:	b14a      	cbz	r2, 80018b4 <xQueueGenericCreateStatic+0x44>
 80018a0:	b991      	cbnz	r1, 80018c8 <xQueueGenericCreateStatic+0x58>
 80018a2:	f04f 0350 	mov.w	r3, #80	; 0x50
 80018a6:	f383 8811 	msr	BASEPRI, r3
 80018aa:	f3bf 8f6f 	isb	sy
 80018ae:	f3bf 8f4f 	dsb	sy
 80018b2:	e7fe      	b.n	80018b2 <xQueueGenericCreateStatic+0x42>
 80018b4:	b141      	cbz	r1, 80018c8 <xQueueGenericCreateStatic+0x58>
 80018b6:	f04f 0350 	mov.w	r3, #80	; 0x50
 80018ba:	f383 8811 	msr	BASEPRI, r3
 80018be:	f3bf 8f6f 	isb	sy
 80018c2:	f3bf 8f4f 	dsb	sy
 80018c6:	e7fe      	b.n	80018c6 <xQueueGenericCreateStatic+0x56>
 80018c8:	2348      	movs	r3, #72	; 0x48
 80018ca:	9301      	str	r3, [sp, #4]
 80018cc:	9b01      	ldr	r3, [sp, #4]
 80018ce:	2b48      	cmp	r3, #72	; 0x48
 80018d0:	d008      	beq.n	80018e4 <xQueueGenericCreateStatic+0x74>
 80018d2:	f04f 0350 	mov.w	r3, #80	; 0x50
 80018d6:	f383 8811 	msr	BASEPRI, r3
 80018da:	f3bf 8f6f 	isb	sy
 80018de:	f3bf 8f4f 	dsb	sy
 80018e2:	e7fe      	b.n	80018e2 <xQueueGenericCreateStatic+0x72>
 80018e4:	2101      	movs	r1, #1
 80018e6:	2d00      	cmp	r5, #0
 80018e8:	bf08      	it	eq
 80018ea:	4622      	moveq	r2, r4
 80018ec:	e9c4 050f 	strd	r0, r5, [r4, #60]	; 0x3c
 80018f0:	f884 1046 	strb.w	r1, [r4, #70]	; 0x46
 80018f4:	4620      	mov	r0, r4
 80018f6:	6022      	str	r2, [r4, #0]
 80018f8:	f7ff ff7b 	bl	80017f2 <xQueueGenericReset>
 80018fc:	4620      	mov	r0, r4
 80018fe:	b003      	add	sp, #12
 8001900:	bd30      	pop	{r4, r5, pc}

08001902 <xQueueGenericCreate>:
 8001902:	b570      	push	{r4, r5, r6, lr}
 8001904:	460d      	mov	r5, r1
 8001906:	4606      	mov	r6, r0
 8001908:	b940      	cbnz	r0, 800191c <xQueueGenericCreate+0x1a>
 800190a:	f04f 0350 	mov.w	r3, #80	; 0x50
 800190e:	f383 8811 	msr	BASEPRI, r3
 8001912:	f3bf 8f6f 	isb	sy
 8001916:	f3bf 8f4f 	dsb	sy
 800191a:	e7fe      	b.n	800191a <xQueueGenericCreate+0x18>
 800191c:	4348      	muls	r0, r1
 800191e:	3048      	adds	r0, #72	; 0x48
 8001920:	f001 f856 	bl	80029d0 <pvPortMalloc>
 8001924:	4604      	mov	r4, r0
 8001926:	b160      	cbz	r0, 8001942 <xQueueGenericCreate+0x40>
 8001928:	2300      	movs	r3, #0
 800192a:	f880 3046 	strb.w	r3, [r0, #70]	; 0x46
 800192e:	b155      	cbz	r5, 8001946 <xQueueGenericCreate+0x44>
 8001930:	f100 0348 	add.w	r3, r0, #72	; 0x48
 8001934:	2101      	movs	r1, #1
 8001936:	4620      	mov	r0, r4
 8001938:	e9c4 650f 	strd	r6, r5, [r4, #60]	; 0x3c
 800193c:	6023      	str	r3, [r4, #0]
 800193e:	f7ff ff58 	bl	80017f2 <xQueueGenericReset>
 8001942:	4620      	mov	r0, r4
 8001944:	bd70      	pop	{r4, r5, r6, pc}
 8001946:	4603      	mov	r3, r0
 8001948:	e7f4      	b.n	8001934 <xQueueGenericCreate+0x32>

0800194a <xQueueCreateCountingSemaphoreStatic>:
 800194a:	b513      	push	{r0, r1, r4, lr}
 800194c:	4613      	mov	r3, r2
 800194e:	460c      	mov	r4, r1
 8001950:	b940      	cbnz	r0, 8001964 <xQueueCreateCountingSemaphoreStatic+0x1a>
 8001952:	f04f 0350 	mov.w	r3, #80	; 0x50
 8001956:	f383 8811 	msr	BASEPRI, r3
 800195a:	f3bf 8f6f 	isb	sy
 800195e:	f3bf 8f4f 	dsb	sy
 8001962:	e7fe      	b.n	8001962 <xQueueCreateCountingSemaphoreStatic+0x18>
 8001964:	4288      	cmp	r0, r1
 8001966:	d208      	bcs.n	800197a <xQueueCreateCountingSemaphoreStatic+0x30>
 8001968:	f04f 0350 	mov.w	r3, #80	; 0x50
 800196c:	f383 8811 	msr	BASEPRI, r3
 8001970:	f3bf 8f6f 	isb	sy
 8001974:	f3bf 8f4f 	dsb	sy
 8001978:	e7fe      	b.n	8001978 <xQueueCreateCountingSemaphoreStatic+0x2e>
 800197a:	2202      	movs	r2, #2
 800197c:	9200      	str	r2, [sp, #0]
 800197e:	2200      	movs	r2, #0
 8001980:	4611      	mov	r1, r2
 8001982:	f7ff ff75 	bl	8001870 <xQueueGenericCreateStatic>
 8001986:	b100      	cbz	r0, 800198a <xQueueCreateCountingSemaphoreStatic+0x40>
 8001988:	6384      	str	r4, [r0, #56]	; 0x38
 800198a:	b002      	add	sp, #8
 800198c:	bd10      	pop	{r4, pc}

0800198e <xQueueCreateCountingSemaphore>:
 800198e:	b510      	push	{r4, lr}
 8001990:	460c      	mov	r4, r1
 8001992:	b940      	cbnz	r0, 80019a6 <xQueueCreateCountingSemaphore+0x18>
 8001994:	f04f 0350 	mov.w	r3, #80	; 0x50
 8001998:	f383 8811 	msr	BASEPRI, r3
 800199c:	f3bf 8f6f 	isb	sy
 80019a0:	f3bf 8f4f 	dsb	sy
 80019a4:	e7fe      	b.n	80019a4 <xQueueCreateCountingSemaphore+0x16>
 80019a6:	4288      	cmp	r0, r1
 80019a8:	d208      	bcs.n	80019bc <xQueueCreateCountingSemaphore+0x2e>
 80019aa:	f04f 0350 	mov.w	r3, #80	; 0x50
 80019ae:	f383 8811 	msr	BASEPRI, r3
 80019b2:	f3bf 8f6f 	isb	sy
 80019b6:	f3bf 8f4f 	dsb	sy
 80019ba:	e7fe      	b.n	80019ba <xQueueCreateCountingSemaphore+0x2c>
 80019bc:	2202      	movs	r2, #2
 80019be:	2100      	movs	r1, #0
 80019c0:	f7ff ff9f 	bl	8001902 <xQueueGenericCreate>
 80019c4:	b100      	cbz	r0, 80019c8 <xQueueCreateCountingSemaphore+0x3a>
 80019c6:	6384      	str	r4, [r0, #56]	; 0x38
 80019c8:	bd10      	pop	{r4, pc}

080019ca <xQueueGenericSend>:
 80019ca:	e92d 43f0 	stmdb	sp!, {r4, r5, r6, r7, r8, r9, lr}
 80019ce:	b085      	sub	sp, #20
 80019d0:	4688      	mov	r8, r1
 80019d2:	461f      	mov	r7, r3
 80019d4:	4604      	mov	r4, r0
 80019d6:	9201      	str	r2, [sp, #4]
 80019d8:	b940      	cbnz	r0, 80019ec <xQueueGenericSend+0x22>
 80019da:	f04f 0350 	mov.w	r3, #80	; 0x50
 80019de:	f383 8811 	msr	BASEPRI, r3
 80019e2:	f3bf 8f6f 	isb	sy
 80019e6:	f3bf 8f4f 	dsb	sy
 80019ea:	e7fe      	b.n	80019ea <xQueueGenericSend+0x20>
 80019ec:	b951      	cbnz	r1, 8001a04 <xQueueGenericSend+0x3a>
 80019ee:	6c03      	ldr	r3, [r0, #64]	; 0x40
 80019f0:	b143      	cbz	r3, 8001a04 <xQueueGenericSend+0x3a>
 80019f2:	f04f 0350 	mov.w	r3, #80	; 0x50
 80019f6:	f383 8811 	msr	BASEPRI, r3
 80019fa:	f3bf 8f6f 	isb	sy
 80019fe:	f3bf 8f4f 	dsb	sy
 8001a02:	e7fe      	b.n	8001a02 <xQueueGenericSend+0x38>
 8001a04:	2f02      	cmp	r7, #2
 8001a06:	d10b      	bne.n	8001a20 <xQueueGenericSend+0x56>
 8001a08:	6be3      	ldr	r3, [r4, #60]	; 0x3c
 8001a0a:	2b01      	cmp	r3, #1
 8001a0c:	d008      	beq.n	8001a20 <xQueueGenericSend+0x56>
 8001a0e:	f04f 0350 	mov.w	r3, #80	; 0x50
 8001a12:	f383 8811 	msr	BASEPRI, r3
 8001a16:	f3bf 8f6f 	isb	sy
 8001a1a:	f3bf 8f4f 	dsb	sy
 8001a1e:	e7fe      	b.n	8001a1e <xQueueGenericSend+0x54>
 8001a20:	f000 fdee 	bl	8002600 <xTaskGetSchedulerState>
 8001a24:	4606      	mov	r6, r0
 8001a26:	b950      	cbnz	r0, 8001a3e <xQueueGenericSend+0x74>
 8001a28:	9b01      	ldr	r3, [sp, #4]
 8001a2a:	b14b      	cbz	r3, 8001a40 <xQueueGenericSend+0x76>
 8001a2c:	f04f 0350 	mov.w	r3, #80	; 0x50
 8001a30:	f383 8811 	msr	BASEPRI, r3
 8001a34:	f3bf 8f6f 	isb	sy
 8001a38:	f3bf 8f4f 	dsb	sy
 8001a3c:	e7fe      	b.n	8001a3c <xQueueGenericSend+0x72>
 8001a3e:	2600      	movs	r6, #0
 8001a40:	f04f 0900 	mov.w	r9, #0
 8001a44:	e037      	b.n	8001ab6 <xQueueGenericSend+0xec>
 8001a46:	9d01      	ldr	r5, [sp, #4]
 8001a48:	b91d      	cbnz	r5, 8001a52 <xQueueGenericSend+0x88>
 8001a4a:	f000 feb3 	bl	80027b4 <vPortExitCritical>
 8001a4e:	2000      	movs	r0, #0
 8001a50:	e052      	b.n	8001af8 <xQueueGenericSend+0x12e>
 8001a52:	b916      	cbnz	r6, 8001a5a <xQueueGenericSend+0x90>
 8001a54:	a802      	add	r0, sp, #8
 8001a56:	f000 fd85 	bl	8002564 <vTaskInternalSetTimeOutState>
 8001a5a:	f000 feab 	bl	80027b4 <vPortExitCritical>
 8001a5e:	f000 fbd3 	bl	8002208 <vTaskSuspendAll>
 8001a62:	f000 fe87 	bl	8002774 <vPortEnterCritical>
 8001a66:	f894 3044 	ldrb.w	r3, [r4, #68]	; 0x44
 8001a6a:	2bff      	cmp	r3, #255	; 0xff
 8001a6c:	bf08      	it	eq
 8001a6e:	f884 9044 	strbeq.w	r9, [r4, #68]	; 0x44
 8001a72:	f894 3045 	ldrb.w	r3, [r4, #69]	; 0x45
 8001a76:	2bff      	cmp	r3, #255	; 0xff
 8001a78:	bf08      	it	eq
 8001a7a:	f884 9045 	strbeq.w	r9, [r4, #69]	; 0x45
 8001a7e:	f000 fe99 	bl	80027b4 <vPortExitCritical>
 8001a82:	a901      	add	r1, sp, #4
 8001a84:	a802      	add	r0, sp, #8
 8001a86:	f000 fd79 	bl	800257c <xTaskCheckForTimeOut>
 8001a8a:	2800      	cmp	r0, #0
 8001a8c:	d14a      	bne.n	8001b24 <xQueueGenericSend+0x15a>
 8001a8e:	f000 fe71 	bl	8002774 <vPortEnterCritical>
 8001a92:	6ba2      	ldr	r2, [r4, #56]	; 0x38
 8001a94:	6be3      	ldr	r3, [r4, #60]	; 0x3c
 8001a96:	429a      	cmp	r2, r3
 8001a98:	d131      	bne.n	8001afe <xQueueGenericSend+0x134>
 8001a9a:	f000 fe8b 	bl	80027b4 <vPortExitCritical>
 8001a9e:	9901      	ldr	r1, [sp, #4]
 8001aa0:	f104 0010 	add.w	r0, r4, #16
 8001aa4:	f000 fd02 	bl	80024ac <vTaskPlaceOnEventList>
 8001aa8:	4620      	mov	r0, r4
 8001aaa:	f7ff fe6a 	bl	8001782 <prvUnlockQueue>
 8001aae:	f000 fc45 	bl	800233c <xTaskResumeAll>
 8001ab2:	b360      	cbz	r0, 8001b0e <xQueueGenericSend+0x144>
 8001ab4:	2601      	movs	r6, #1
 8001ab6:	f000 fe5d 	bl	8002774 <vPortEnterCritical>
 8001aba:	6ba2      	ldr	r2, [r4, #56]	; 0x38
 8001abc:	6be3      	ldr	r3, [r4, #60]	; 0x3c
 8001abe:	429a      	cmp	r2, r3
 8001ac0:	d301      	bcc.n	8001ac6 <xQueueGenericSend+0xfc>
 8001ac2:	2f02      	cmp	r7, #2
 8001ac4:	d1bf      	bne.n	8001a46 <xQueueGenericSend+0x7c>
 8001ac6:	463a      	mov	r2, r7
 8001ac8:	4641      	mov	r1, r8
 8001aca:	4620      	mov	r0, r4
 8001acc:	f7ff fe10 	bl	80016f0 <prvCopyDataToQueue>
 8001ad0:	6a63      	ldr	r3, [r4, #36]	; 0x24
 8001ad2:	b11b      	cbz	r3, 8001adc <xQueueGenericSend+0x112>
 8001ad4:	f104 0024 	add.w	r0, r4, #36	; 0x24
 8001ad8:	f000 fd02 	bl	80024e0 <xTaskRemoveFromEventList>
 8001adc:	b148      	cbz	r0, 8001af2 <xQueueGenericSend+0x128>
 8001ade:	f04f 23e0 	mov.w	r3, #3758153728	; 0xe000e000
 8001ae2:	f04f 5280 	mov.w	r2, #268435456	; 0x10000000
 8001ae6:	f8c3 2d04 	str.w	r2, [r3, #3332]	; 0xd04
 8001aea:	f3bf 8f4f 	dsb	sy
 8001aee:	f3bf 8f6f 	isb	sy
 8001af2:	f000 fe5f 	bl	80027b4 <vPortExitCritical>
 8001af6:	2001      	movs	r0, #1
 8001af8:	b005      	add	sp, #20
 8001afa:	e8bd 83f0 	ldmia.w	sp!, {r4, r5, r6, r7, r8, r9, pc}
 8001afe:	f000 fe59 	bl	80027b4 <vPortExitCritical>
 8001b02:	4620      	mov	r0, r4
 8001b04:	f7ff fe3d 	bl	8001782 <prvUnlockQueue>
 8001b08:	f000 fc18 	bl	800233c <xTaskResumeAll>
 8001b0c:	e7d2      	b.n	8001ab4 <xQueueGenericSend+0xea>
 8001b0e:	f04f 23e0 	mov.w	r3, #3758153728	; 0xe000e000
 8001b12:	f04f 5280 	mov.w	r2, #268435456	; 0x10000000
 8001b16:	f8c3 2d04 	str.w	r2, [r3, #3332]	; 0xd04
 8001b1a:	f3bf 8f4f 	dsb	sy
 8001b1e:	f3bf 8f6f 	isb	sy
 8001b22:	e7c7      	b.n	8001ab4 <xQueueGenericSend+0xea>
 8001b24:	4620      	mov	r0, r4
 8001b26:	f7ff fe2c 	bl	8001782 <prvUnlockQueue>
 8001b2a:	f000 fc07 	bl	800233c <xTaskResumeAll>
 8001b2e:	e78e      	b.n	8001a4e <xQueueGenericSend+0x84>

08001b30 <xQueueGenericSendFromISR>:
 8001b30:	e92d 43f8 	stmdb	sp!, {r3, r4, r5, r6, r7, r8, r9, lr}
 8001b34:	4689      	mov	r9, r1
 8001b36:	4690      	mov	r8, r2
 8001b38:	461f      	mov	r7, r3
 8001b3a:	4604      	mov	r4, r0
 8001b3c:	b940      	cbnz	r0, 8001b50 <xQueueGenericSendFromISR+0x20>
 8001b3e:	f04f 0350 	mov.w	r3, #80	; 0x50
 8001b42:	f383 8811 	msr	BASEPRI, r3
 8001b46:	f3bf 8f6f 	isb	sy
 8001b4a:	f3bf 8f4f 	dsb	sy
 8001b4e:	e7fe      	b.n	8001b4e <xQueueGenericSendFromISR+0x1e>
 8001b50:	b951      	cbnz	r1, 8001b68 <xQueueGenericSendFromISR+0x38>
 8001b52:	6c03      	ldr	r3, [r0, #64]	; 0x40
 8001b54:	b143      	cbz	r3, 8001b68 <xQueueGenericSendFromISR+0x38>
 8001b56:	f04f 0350 	mov.w	r3, #80	; 0x50
 8001b5a:	f383 8811 	msr	BASEPRI, r3
 8001b5e:	f3bf 8f6f 	isb	sy
 8001b62:	f3bf 8f4f 	dsb	sy
 8001b66:	e7fe      	b.n	8001b66 <xQueueGenericSendFromISR+0x36>
 8001b68:	2f02      	cmp	r7, #2
 8001b6a:	d10b      	bne.n	8001b84 <xQueueGenericSendFromISR+0x54>
 8001b6c:	6be3      	ldr	r3, [r4, #60]	; 0x3c
 8001b6e:	2b01      	cmp	r3, #1
 8001b70:	d008      	beq.n	8001b84 <xQueueGenericSendFromISR+0x54>
 8001b72:	f04f 0350 	mov.w	r3, #80	; 0x50
 8001b76:	f383 8811 	msr	BASEPRI, r3
 8001b7a:	f3bf 8f6f 	isb	sy
 8001b7e:	f3bf 8f4f 	dsb	sy
 8001b82:	e7fe      	b.n	8001b82 <xQueueGenericSendFromISR+0x52>
 8001b84:	f000 fed2 	bl	800292c <vPortValidateInterruptPriority>
 8001b88:	f3ef 8611 	mrs	r6, BASEPRI
 8001b8c:	f04f 0350 	mov.w	r3, #80	; 0x50
 8001b90:	f383 8811 	msr	BASEPRI, r3
 8001b94:	f3bf 8f6f 	isb	sy
 8001b98:	f3bf 8f4f 	dsb	sy
 8001b9c:	6ba2      	ldr	r2, [r4, #56]	; 0x38
 8001b9e:	6be3      	ldr	r3, [r4, #60]	; 0x3c
 8001ba0:	429a      	cmp	r2, r3
 8001ba2:	d301      	bcc.n	8001ba8 <xQueueGenericSendFromISR+0x78>
 8001ba4:	2f02      	cmp	r7, #2
 8001ba6:	d122      	bne.n	8001bee <xQueueGenericSendFromISR+0xbe>
 8001ba8:	f894 5045 	ldrb.w	r5, [r4, #69]	; 0x45
 8001bac:	463a      	mov	r2, r7
 8001bae:	4649      	mov	r1, r9
 8001bb0:	4620      	mov	r0, r4
 8001bb2:	b26d      	sxtb	r5, r5
 8001bb4:	f7ff fd9c 	bl	80016f0 <prvCopyDataToQueue>
 8001bb8:	1c6b      	adds	r3, r5, #1
 8001bba:	d113      	bne.n	8001be4 <xQueueGenericSendFromISR+0xb4>
 8001bbc:	6a63      	ldr	r3, [r4, #36]	; 0x24
 8001bbe:	b90b      	cbnz	r3, 8001bc4 <xQueueGenericSendFromISR+0x94>
 8001bc0:	2001      	movs	r0, #1
 8001bc2:	e00b      	b.n	8001bdc <xQueueGenericSendFromISR+0xac>
 8001bc4:	f104 0024 	add.w	r0, r4, #36	; 0x24
 8001bc8:	f000 fc8a 	bl	80024e0 <xTaskRemoveFromEventList>
 8001bcc:	2800      	cmp	r0, #0
 8001bce:	d0f7      	beq.n	8001bc0 <xQueueGenericSendFromISR+0x90>
 8001bd0:	f1b8 0f00 	cmp.w	r8, #0
 8001bd4:	d0f4      	beq.n	8001bc0 <xQueueGenericSendFromISR+0x90>
 8001bd6:	2001      	movs	r0, #1
 8001bd8:	f8c8 0000 	str.w	r0, [r8]
 8001bdc:	f386 8811 	msr	BASEPRI, r6
 8001be0:	e8bd 83f8 	ldmia.w	sp!, {r3, r4, r5, r6, r7, r8, r9, pc}
 8001be4:	3501      	adds	r5, #1
 8001be6:	b26d      	sxtb	r5, r5
 8001be8:	f884 5045 	strb.w	r5, [r4, #69]	; 0x45
 8001bec:	e7e8      	b.n	8001bc0 <xQueueGenericSendFromISR+0x90>
 8001bee:	2000      	movs	r0, #0
 8001bf0:	e7f4      	b.n	8001bdc <xQueueGenericSendFromISR+0xac>

08001bf2 <xQueueReceive>:
 8001bf2:	e92d 41ff 	stmdb	sp!, {r0, r1, r2, r3, r4, r5, r6, r7, r8, lr}
 8001bf6:	460f      	mov	r7, r1
 8001bf8:	4604      	mov	r4, r0
 8001bfa:	9201      	str	r2, [sp, #4]
 8001bfc:	b940      	cbnz	r0, 8001c10 <xQueueReceive+0x1e>
 8001bfe:	f04f 0350 	mov.w	r3, #80	; 0x50
 8001c02:	f383 8811 	msr	BASEPRI, r3
 8001c06:	f3bf 8f6f 	isb	sy
 8001c0a:	f3bf 8f4f 	dsb	sy
 8001c0e:	e7fe      	b.n	8001c0e <xQueueReceive+0x1c>
 8001c10:	b951      	cbnz	r1, 8001c28 <xQueueReceive+0x36>
 8001c12:	6c03      	ldr	r3, [r0, #64]	; 0x40
 8001c14:	b143      	cbz	r3, 8001c28 <xQueueReceive+0x36>
 8001c16:	f04f 0350 	mov.w	r3, #80	; 0x50
 8001c1a:	f383 8811 	msr	BASEPRI, r3
 8001c1e:	f3bf 8f6f 	isb	sy
 8001c22:	f3bf 8f4f 	dsb	sy
 8001c26:	e7fe      	b.n	8001c26 <xQueueReceive+0x34>
 8001c28:	f000 fcea 	bl	8002600 <xTaskGetSchedulerState>
 8001c2c:	4606      	mov	r6, r0
 8001c2e:	b950      	cbnz	r0, 8001c46 <xQueueReceive+0x54>
 8001c30:	9b01      	ldr	r3, [sp, #4]
 8001c32:	b14b      	cbz	r3, 8001c48 <xQueueReceive+0x56>
 8001c34:	f04f 0350 	mov.w	r3, #80	; 0x50
 8001c38:	f383 8811 	msr	BASEPRI, r3
 8001c3c:	f3bf 8f6f 	isb	sy
 8001c40:	f3bf 8f4f 	dsb	sy
 8001c44:	e7fe      	b.n	8001c44 <xQueueReceive+0x52>
 8001c46:	2600      	movs	r6, #0
 8001c48:	f04f 0800 	mov.w	r8, #0
 8001c4c:	e03d      	b.n	8001cca <xQueueReceive+0xd8>
 8001c4e:	9d01      	ldr	r5, [sp, #4]
 8001c50:	b91d      	cbnz	r5, 8001c5a <xQueueReceive+0x68>
 8001c52:	f000 fdaf 	bl	80027b4 <vPortExitCritical>
 8001c56:	2000      	movs	r0, #0
 8001c58:	e056      	b.n	8001d08 <xQueueReceive+0x116>
 8001c5a:	b916      	cbnz	r6, 8001c62 <xQueueReceive+0x70>
 8001c5c:	a802      	add	r0, sp, #8
 8001c5e:	f000 fc81 	bl	8002564 <vTaskInternalSetTimeOutState>
 8001c62:	f000 fda7 	bl	80027b4 <vPortExitCritical>
 8001c66:	f000 facf 	bl	8002208 <vTaskSuspendAll>
 8001c6a:	f000 fd83 	bl	8002774 <vPortEnterCritical>
 8001c6e:	f894 3044 	ldrb.w	r3, [r4, #68]	; 0x44
 8001c72:	2bff      	cmp	r3, #255	; 0xff
 8001c74:	bf08      	it	eq
 8001c76:	f884 8044 	strbeq.w	r8, [r4, #68]	; 0x44
 8001c7a:	f894 3045 	ldrb.w	r3, [r4, #69]	; 0x45
 8001c7e:	2bff      	cmp	r3, #255	; 0xff
 8001c80:	bf08      	it	eq
 8001c82:	f884 8045 	strbeq.w	r8, [r4, #69]	; 0x45
 8001c86:	f000 fd95 	bl	80027b4 <vPortExitCritical>
 8001c8a:	a901      	add	r1, sp, #4
 8001c8c:	a802      	add	r0, sp, #8
 8001c8e:	f000 fc75 	bl	800257c <xTaskCheckForTimeOut>
 8001c92:	2800      	cmp	r0, #0
 8001c94:	d141      	bne.n	8001d1a <xQueueReceive+0x128>
 8001c96:	4620      	mov	r0, r4
 8001c98:	f7ff fd1f 	bl	80016da <prvIsQueueEmpty>
 8001c9c:	b3b8      	cbz	r0, 8001d0e <xQueueReceive+0x11c>
 8001c9e:	9901      	ldr	r1, [sp, #4]
 8001ca0:	f104 0024 	add.w	r0, r4, #36	; 0x24
 8001ca4:	f000 fc02 	bl	80024ac <vTaskPlaceOnEventList>
 8001ca8:	4620      	mov	r0, r4
 8001caa:	f7ff fd6a 	bl	8001782 <prvUnlockQueue>
 8001cae:	f000 fb45 	bl	800233c <xTaskResumeAll>
 8001cb2:	b948      	cbnz	r0, 8001cc8 <xQueueReceive+0xd6>
 8001cb4:	f04f 23e0 	mov.w	r3, #3758153728	; 0xe000e000
 8001cb8:	f04f 5280 	mov.w	r2, #268435456	; 0x10000000
 8001cbc:	f8c3 2d04 	str.w	r2, [r3, #3332]	; 0xd04
 8001cc0:	f3bf 8f4f 	dsb	sy
 8001cc4:	f3bf 8f6f 	isb	sy
 8001cc8:	2601      	movs	r6, #1
 8001cca:	f000 fd53 	bl	8002774 <vPortEnterCritical>
 8001cce:	6ba5      	ldr	r5, [r4, #56]	; 0x38
 8001cd0:	2d00      	cmp	r5, #0
 8001cd2:	d0bc      	beq.n	8001c4e <xQueueReceive+0x5c>
 8001cd4:	4639      	mov	r1, r7
 8001cd6:	4620      	mov	r0, r4
 8001cd8:	3d01      	subs	r5, #1
 8001cda:	f7ff fd3e 	bl	800175a <prvCopyDataFromQueue>
 8001cde:	63a5      	str	r5, [r4, #56]	; 0x38
 8001ce0:	6923      	ldr	r3, [r4, #16]
 8001ce2:	b173      	cbz	r3, 8001d02 <xQueueReceive+0x110>
 8001ce4:	f104 0010 	add.w	r0, r4, #16
 8001ce8:	f000 fbfa 	bl	80024e0 <xTaskRemoveFromEventList>
 8001cec:	b148      	cbz	r0, 8001d02 <xQueueReceive+0x110>
 8001cee:	f04f 23e0 	mov.w	r3, #3758153728	; 0xe000e000
 8001cf2:	f04f 5280 	mov.w	r2, #268435456	; 0x10000000
 8001cf6:	f8c3 2d04 	str.w	r2, [r3, #3332]	; 0xd04
 8001cfa:	f3bf 8f4f 	dsb	sy
 8001cfe:	f3bf 8f6f 	isb	sy
 8001d02:	f000 fd57 	bl	80027b4 <vPortExitCritical>
 8001d06:	2001      	movs	r0, #1
 8001d08:	b004      	add	sp, #16
 8001d0a:	e8bd 81f0 	ldmia.w	sp!, {r4, r5, r6, r7, r8, pc}
 8001d0e:	4620      	mov	r0, r4
 8001d10:	f7ff fd37 	bl	8001782 <prvUnlockQueue>
 8001d14:	f000 fb12 	bl	800233c <xTaskResumeAll>
 8001d18:	e7d6      	b.n	8001cc8 <xQueueReceive+0xd6>
 8001d1a:	4620      	mov	r0, r4
 8001d1c:	f7ff fd31 	bl	8001782 <prvUnlockQueue>
 8001d20:	f000 fb0c 	bl	800233c <xTaskResumeAll>
 8001d24:	4620      	mov	r0, r4
 8001d26:	f7ff fcd8 	bl	80016da <prvIsQueueEmpty>
 8001d2a:	2800      	cmp	r0, #0
 8001d2c:	d0cc      	beq.n	8001cc8 <xQueueReceive+0xd6>
 8001d2e:	e792      	b.n	8001c56 <xQueueReceive+0x64>

08001d30 <xQueueReceiveFromISR>:
 8001d30:	e92d 43f8 	stmdb	sp!, {r3, r4, r5, r6, r7, r8, r9, lr}
 8001d34:	4689      	mov	r9, r1
 8001d36:	4690      	mov	r8, r2
 8001d38:	4605      	mov	r5, r0
 8001d3a:	b940      	cbnz	r0, 8001d4e <xQueueReceiveFromISR+0x1e>
 8001d3c:	f04f 0350 	mov.w	r3, #80	; 0x50
 8001d40:	f383 8811 	msr	BASEPRI, r3
 8001d44:	f3bf 8f6f 	isb	sy
 8001d48:	f3bf 8f4f 	dsb	sy
 8001d4c:	e7fe      	b.n	8001d4c <xQueueReceiveFromISR+0x1c>
 8001d4e:	b951      	cbnz	r1, 8001d66 <xQueueReceiveFromISR+0x36>
 8001d50:	6c03      	ldr	r3, [r0, #64]	; 0x40
 8001d52:	b143      	cbz	r3, 8001d66 <xQueueReceiveFromISR+0x36>
 8001d54:	f04f 0350 	mov.w	r3, #80	; 0x50
 8001d58:	f383 8811 	msr	BASEPRI, r3
 8001d5c:	f3bf 8f6f 	isb	sy
 8001d60:	f3bf 8f4f 	dsb	sy
 8001d64:	e7fe      	b.n	8001d64 <xQueueReceiveFromISR+0x34>
 8001d66:	f000 fde1 	bl	800292c <vPortValidateInterruptPriority>
 8001d6a:	f3ef 8711 	mrs	r7, BASEPRI
 8001d6e:	f04f 0350 	mov.w	r3, #80	; 0x50
 8001d72:	f383 8811 	msr	BASEPRI, r3
 8001d76:	f3bf 8f6f 	isb	sy
 8001d7a:	f3bf 8f4f 	dsb	sy
 8001d7e:	6bac      	ldr	r4, [r5, #56]	; 0x38
 8001d80:	b31c      	cbz	r4, 8001dca <xQueueReceiveFromISR+0x9a>
 8001d82:	f895 6044 	ldrb.w	r6, [r5, #68]	; 0x44
 8001d86:	4649      	mov	r1, r9
 8001d88:	4628      	mov	r0, r5
 8001d8a:	b276      	sxtb	r6, r6
 8001d8c:	f7ff fce5 	bl	800175a <prvCopyDataFromQueue>
 8001d90:	3c01      	subs	r4, #1
 8001d92:	1c73      	adds	r3, r6, #1
 8001d94:	63ac      	str	r4, [r5, #56]	; 0x38
 8001d96:	d113      	bne.n	8001dc0 <xQueueReceiveFromISR+0x90>
 8001d98:	692b      	ldr	r3, [r5, #16]
 8001d9a:	b90b      	cbnz	r3, 8001da0 <xQueueReceiveFromISR+0x70>
 8001d9c:	2001      	movs	r0, #1
 8001d9e:	e00b      	b.n	8001db8 <xQueueReceiveFromISR+0x88>
 8001da0:	f105 0010 	add.w	r0, r5, #16
 8001da4:	f000 fb9c 	bl	80024e0 <xTaskRemoveFromEventList>
 8001da8:	2800      	cmp	r0, #0
 8001daa:	d0f7      	beq.n	8001d9c <xQueueReceiveFromISR+0x6c>
 8001dac:	f1b8 0f00 	cmp.w	r8, #0
 8001db0:	d0f4      	beq.n	8001d9c <xQueueReceiveFromISR+0x6c>
 8001db2:	2001      	movs	r0, #1
 8001db4:	f8c8 0000 	str.w	r0, [r8]
 8001db8:	f387 8811 	msr	BASEPRI, r7
 8001dbc:	e8bd 83f8 	ldmia.w	sp!, {r3, r4, r5, r6, r7, r8, r9, pc}
 8001dc0:	3601      	adds	r6, #1
 8001dc2:	b276      	sxtb	r6, r6
 8001dc4:	f885 6044 	strb.w	r6, [r5, #68]	; 0x44
 8001dc8:	e7e8      	b.n	8001d9c <xQueueReceiveFromISR+0x6c>
 8001dca:	4620      	mov	r0, r4
 8001dcc:	e7f4      	b.n	8001db8 <xQueueReceiveFromISR+0x88>
	...

08001dd0 <prvAddNewTaskToReadyList>:
 8001dd0:	e92d 41f0 	stmdb	sp!, {r4, r5, r6, r7, r8, lr}
 8001dd4:	4604      	mov	r4, r0
 8001dd6:	f000 fccd 	bl	8002774 <vPortEnterCritical>
 8001dda:	4b2f      	ldr	r3, [pc, #188]	; (8001e98 <prvAddNewTaskToReadyList+0xc8>)
 8001ddc:	4e2f      	ldr	r6, [pc, #188]	; (8001e9c <prvAddNewTaskToReadyList+0xcc>)
 8001dde:	681a      	ldr	r2, [r3, #0]
 8001de0:	4f2f      	ldr	r7, [pc, #188]	; (8001ea0 <prvAddNewTaskToReadyList+0xd0>)
 8001de2:	3201      	adds	r2, #1
 8001de4:	601a      	str	r2, [r3, #0]
 8001de6:	6835      	ldr	r5, [r6, #0]
 8001de8:	2d00      	cmp	r5, #0
 8001dea:	d14a      	bne.n	8001e82 <prvAddNewTaskToReadyList+0xb2>
 8001dec:	6034      	str	r4, [r6, #0]
 8001dee:	681b      	ldr	r3, [r3, #0]
 8001df0:	2b01      	cmp	r3, #1
 8001df2:	d11f      	bne.n	8001e34 <prvAddNewTaskToReadyList+0x64>
 8001df4:	46b8      	mov	r8, r7
 8001df6:	4640      	mov	r0, r8
 8001df8:	3501      	adds	r5, #1
 8001dfa:	f7ff fc2d 	bl	8001658 <vListInitialise>
 8001dfe:	2d07      	cmp	r5, #7
 8001e00:	f108 0814 	add.w	r8, r8, #20
 8001e04:	d1f7      	bne.n	8001df6 <prvAddNewTaskToReadyList+0x26>
 8001e06:	f8df 809c 	ldr.w	r8, [pc, #156]	; 8001ea4 <prvAddNewTaskToReadyList+0xd4>
 8001e0a:	4d27      	ldr	r5, [pc, #156]	; (8001ea8 <prvAddNewTaskToReadyList+0xd8>)
 8001e0c:	4640      	mov	r0, r8
 8001e0e:	f7ff fc23 	bl	8001658 <vListInitialise>
 8001e12:	4628      	mov	r0, r5
 8001e14:	f7ff fc20 	bl	8001658 <vListInitialise>
 8001e18:	4824      	ldr	r0, [pc, #144]	; (8001eac <prvAddNewTaskToReadyList+0xdc>)
 8001e1a:	f7ff fc1d 	bl	8001658 <vListInitialise>
 8001e1e:	4824      	ldr	r0, [pc, #144]	; (8001eb0 <prvAddNewTaskToReadyList+0xe0>)
 8001e20:	f7ff fc1a 	bl	8001658 <vListInitialise>
 8001e24:	4823      	ldr	r0, [pc, #140]	; (8001eb4 <prvAddNewTaskToReadyList+0xe4>)
 8001e26:	f7ff fc17 	bl	8001658 <vListInitialise>
 8001e2a:	4b23      	ldr	r3, [pc, #140]	; (8001eb8 <prvAddNewTaskToReadyList+0xe8>)
 8001e2c:	f8c3 8000 	str.w	r8, [r3]
 8001e30:	4b22      	ldr	r3, [pc, #136]	; (8001ebc <prvAddNewTaskToReadyList+0xec>)
 8001e32:	601d      	str	r5, [r3, #0]
 8001e34:	4a22      	ldr	r2, [pc, #136]	; (8001ec0 <prvAddNewTaskToReadyList+0xf0>)
 8001e36:	4923      	ldr	r1, [pc, #140]	; (8001ec4 <prvAddNewTaskToReadyList+0xf4>)
 8001e38:	6813      	ldr	r3, [r2, #0]
 8001e3a:	6808      	ldr	r0, [r1, #0]
 8001e3c:	3301      	adds	r3, #1
 8001e3e:	6013      	str	r3, [r2, #0]
 8001e40:	2301      	movs	r3, #1
 8001e42:	6ae2      	ldr	r2, [r4, #44]	; 0x2c
 8001e44:	4093      	lsls	r3, r2
 8001e46:	4303      	orrs	r3, r0
 8001e48:	2014      	movs	r0, #20
 8001e4a:	600b      	str	r3, [r1, #0]
 8001e4c:	fb00 7002 	mla	r0, r0, r2, r7
 8001e50:	1d21      	adds	r1, r4, #4
 8001e52:	f7ff fc0f 	bl	8001674 <vListInsertEnd>
 8001e56:	f000 fcad 	bl	80027b4 <vPortExitCritical>
 8001e5a:	4b1b      	ldr	r3, [pc, #108]	; (8001ec8 <prvAddNewTaskToReadyList+0xf8>)
 8001e5c:	681b      	ldr	r3, [r3, #0]
 8001e5e:	b173      	cbz	r3, 8001e7e <prvAddNewTaskToReadyList+0xae>
 8001e60:	6833      	ldr	r3, [r6, #0]
 8001e62:	6ada      	ldr	r2, [r3, #44]	; 0x2c
 8001e64:	6ae3      	ldr	r3, [r4, #44]	; 0x2c
 8001e66:	429a      	cmp	r2, r3
 8001e68:	d209      	bcs.n	8001e7e <prvAddNewTaskToReadyList+0xae>
 8001e6a:	f04f 23e0 	mov.w	r3, #3758153728	; 0xe000e000
 8001e6e:	f04f 5280 	mov.w	r2, #268435456	; 0x10000000
 8001e72:	f8c3 2d04 	str.w	r2, [r3, #3332]	; 0xd04
 8001e76:	f3bf 8f4f 	dsb	sy
 8001e7a:	f3bf 8f6f 	isb	sy
 8001e7e:	e8bd 81f0 	ldmia.w	sp!, {r4, r5, r6, r7, r8, pc}
 8001e82:	4b11      	ldr	r3, [pc, #68]	; (8001ec8 <prvAddNewTaskToReadyList+0xf8>)
 8001e84:	681b      	ldr	r3, [r3, #0]
 8001e86:	2b00      	cmp	r3, #0
 8001e88:	d1d4      	bne.n	8001e34 <prvAddNewTaskToReadyList+0x64>
 8001e8a:	6833      	ldr	r3, [r6, #0]
 8001e8c:	6ada      	ldr	r2, [r3, #44]	; 0x2c
 8001e8e:	6ae3      	ldr	r3, [r4, #44]	; 0x2c
 8001e90:	429a      	cmp	r2, r3
 8001e92:	bf98      	it	ls
 8001e94:	6034      	strls	r4, [r6, #0]
 8001e96:	e7cd      	b.n	8001e34 <prvAddNewTaskToReadyList+0x64>
 8001e98:	20000488 	.word	0x20000488
 8001e9c:	200003f0 	.word	0x200003f0
 8001ea0:	200003fc 	.word	0x200003fc
 8001ea4:	200004a0 	.word	0x200004a0
 8001ea8:	200004b4 	.word	0x200004b4
 8001eac:	200004d0 	.word	0x200004d0
 8001eb0:	200004fc 	.word	0x200004fc
 8001eb4:	200004e8 	.word	0x200004e8
 8001eb8:	200003f4 	.word	0x200003f4
 8001ebc:	200003f8 	.word	0x200003f8
 8001ec0:	20000498 	.word	0x20000498
 8001ec4:	2000049c 	.word	0x2000049c
 8001ec8:	200004e4 	.word	0x200004e4

08001ecc <prvAddCurrentTaskToDelayedList>:
 8001ecc:	b5f8      	push	{r3, r4, r5, r6, r7, lr}
 8001ece:	4b1a      	ldr	r3, [pc, #104]	; (8001f38 <prvAddCurrentTaskToDelayedList+0x6c>)
 8001ed0:	4d1a      	ldr	r5, [pc, #104]	; (8001f3c <prvAddCurrentTaskToDelayedList+0x70>)
 8001ed2:	4606      	mov	r6, r0
 8001ed4:	681c      	ldr	r4, [r3, #0]
 8001ed6:	6828      	ldr	r0, [r5, #0]
 8001ed8:	460f      	mov	r7, r1
 8001eda:	3004      	adds	r0, #4
 8001edc:	f7ff fbed 	bl	80016ba <uxListRemove>
 8001ee0:	b940      	cbnz	r0, 8001ef4 <prvAddCurrentTaskToDelayedList+0x28>
 8001ee2:	682a      	ldr	r2, [r5, #0]
 8001ee4:	4916      	ldr	r1, [pc, #88]	; (8001f40 <prvAddCurrentTaskToDelayedList+0x74>)
 8001ee6:	6ad0      	ldr	r0, [r2, #44]	; 0x2c
 8001ee8:	2201      	movs	r2, #1
 8001eea:	680b      	ldr	r3, [r1, #0]
 8001eec:	4082      	lsls	r2, r0
 8001eee:	ea23 0302 	bic.w	r3, r3, r2
 8001ef2:	600b      	str	r3, [r1, #0]
 8001ef4:	1c73      	adds	r3, r6, #1
 8001ef6:	d107      	bne.n	8001f08 <prvAddCurrentTaskToDelayedList+0x3c>
 8001ef8:	b137      	cbz	r7, 8001f08 <prvAddCurrentTaskToDelayedList+0x3c>
 8001efa:	6829      	ldr	r1, [r5, #0]
 8001efc:	4811      	ldr	r0, [pc, #68]	; (8001f44 <prvAddCurrentTaskToDelayedList+0x78>)
 8001efe:	3104      	adds	r1, #4
 8001f00:	e8bd 40f8 	ldmia.w	sp!, {r3, r4, r5, r6, r7, lr}
 8001f04:	f7ff bbb6 	b.w	8001674 <vListInsertEnd>
 8001f08:	682b      	ldr	r3, [r5, #0]
 8001f0a:	19a4      	adds	r4, r4, r6
 8001f0c:	605c      	str	r4, [r3, #4]
 8001f0e:	d307      	bcc.n	8001f20 <prvAddCurrentTaskToDelayedList+0x54>
 8001f10:	4b0d      	ldr	r3, [pc, #52]	; (8001f48 <prvAddCurrentTaskToDelayedList+0x7c>)
 8001f12:	6818      	ldr	r0, [r3, #0]
 8001f14:	6829      	ldr	r1, [r5, #0]
 8001f16:	e8bd 40f8 	ldmia.w	sp!, {r3, r4, r5, r6, r7, lr}
 8001f1a:	3104      	adds	r1, #4
 8001f1c:	f7ff bbb6 	b.w	800168c <vListInsert>
 8001f20:	4b0a      	ldr	r3, [pc, #40]	; (8001f4c <prvAddCurrentTaskToDelayedList+0x80>)
 8001f22:	6818      	ldr	r0, [r3, #0]
 8001f24:	6829      	ldr	r1, [r5, #0]
 8001f26:	3104      	adds	r1, #4
 8001f28:	f7ff fbb0 	bl	800168c <vListInsert>
 8001f2c:	4b08      	ldr	r3, [pc, #32]	; (8001f50 <prvAddCurrentTaskToDelayedList+0x84>)
 8001f2e:	681a      	ldr	r2, [r3, #0]
 8001f30:	42a2      	cmp	r2, r4
 8001f32:	bf88      	it	hi
 8001f34:	601c      	strhi	r4, [r3, #0]
 8001f36:	bdf8      	pop	{r3, r4, r5, r6, r7, pc}
 8001f38:	20000510 	.word	0x20000510
 8001f3c:	200003f0 	.word	0x200003f0
 8001f40:	2000049c 	.word	0x2000049c
 8001f44:	200004e8 	.word	0x200004e8
 8001f48:	200003f8 	.word	0x200003f8
 8001f4c:	200003f4 	.word	0x200003f4
 8001f50:	200004c8 	.word	0x200004c8

08001f54 <prvResetNextTaskUnblockTime>:
 8001f54:	4a06      	ldr	r2, [pc, #24]	; (8001f70 <prvResetNextTaskUnblockTime+0x1c>)
 8001f56:	6813      	ldr	r3, [r2, #0]
 8001f58:	6819      	ldr	r1, [r3, #0]
 8001f5a:	4b06      	ldr	r3, [pc, #24]	; (8001f74 <prvResetNextTaskUnblockTime+0x20>)
 8001f5c:	b919      	cbnz	r1, 8001f66 <prvResetNextTaskUnblockTime+0x12>
 8001f5e:	f04f 32ff 	mov.w	r2, #4294967295
 8001f62:	601a      	str	r2, [r3, #0]
 8001f64:	4770      	bx	lr
 8001f66:	6812      	ldr	r2, [r2, #0]
 8001f68:	68d2      	ldr	r2, [r2, #12]
 8001f6a:	68d2      	ldr	r2, [r2, #12]
 8001f6c:	6852      	ldr	r2, [r2, #4]
 8001f6e:	e7f8      	b.n	8001f62 <prvResetNextTaskUnblockTime+0xe>
 8001f70:	200003f4 	.word	0x200003f4
 8001f74:	200004c8 	.word	0x200004c8

08001f78 <prvDeleteTCB>:
 8001f78:	b510      	push	{r4, lr}
 8001f7a:	4604      	mov	r4, r0
 8001f7c:	304c      	adds	r0, #76	; 0x4c
 8001f7e:	f000 fed3 	bl	8002d28 <_reclaim_reent>
 8001f82:	f894 30b1 	ldrb.w	r3, [r4, #177]	; 0xb1
 8001f86:	b93b      	cbnz	r3, 8001f98 <prvDeleteTCB+0x20>
 8001f88:	6b20      	ldr	r0, [r4, #48]	; 0x30
 8001f8a:	f000 fdb1 	bl	8002af0 <vPortFree>
 8001f8e:	4620      	mov	r0, r4
 8001f90:	e8bd 4010 	ldmia.w	sp!, {r4, lr}
 8001f94:	f000 bdac 	b.w	8002af0 <vPortFree>
 8001f98:	2b01      	cmp	r3, #1
 8001f9a:	d0f8      	beq.n	8001f8e <prvDeleteTCB+0x16>
 8001f9c:	2b02      	cmp	r3, #2
 8001f9e:	d008      	beq.n	8001fb2 <prvDeleteTCB+0x3a>
 8001fa0:	f04f 0350 	mov.w	r3, #80	; 0x50
 8001fa4:	f383 8811 	msr	BASEPRI, r3
 8001fa8:	f3bf 8f6f 	isb	sy
 8001fac:	f3bf 8f4f 	dsb	sy
 8001fb0:	e7fe      	b.n	8001fb0 <prvDeleteTCB+0x38>
 8001fb2:	bd10      	pop	{r4, pc}

08001fb4 <prvIdleTask>:
 8001fb4:	b580      	push	{r7, lr}
 8001fb6:	4c13      	ldr	r4, [pc, #76]	; (8002004 <prvIdleTask+0x50>)
 8001fb8:	4f13      	ldr	r7, [pc, #76]	; (8002008 <prvIdleTask+0x54>)
 8001fba:	4d14      	ldr	r5, [pc, #80]	; (800200c <prvIdleTask+0x58>)
 8001fbc:	6823      	ldr	r3, [r4, #0]
 8001fbe:	b973      	cbnz	r3, 8001fde <prvIdleTask+0x2a>
 8001fc0:	4b13      	ldr	r3, [pc, #76]	; (8002010 <prvIdleTask+0x5c>)
 8001fc2:	681b      	ldr	r3, [r3, #0]
 8001fc4:	2b01      	cmp	r3, #1
 8001fc6:	d9f8      	bls.n	8001fba <prvIdleTask+0x6>
 8001fc8:	f04f 23e0 	mov.w	r3, #3758153728	; 0xe000e000
 8001fcc:	f04f 5280 	mov.w	r2, #268435456	; 0x10000000
 8001fd0:	f8c3 2d04 	str.w	r2, [r3, #3332]	; 0xd04
 8001fd4:	f3bf 8f4f 	dsb	sy
 8001fd8:	f3bf 8f6f 	isb	sy
 8001fdc:	e7ed      	b.n	8001fba <prvIdleTask+0x6>
 8001fde:	f000 fbc9 	bl	8002774 <vPortEnterCritical>
 8001fe2:	68fb      	ldr	r3, [r7, #12]
 8001fe4:	68de      	ldr	r6, [r3, #12]
 8001fe6:	1d30      	adds	r0, r6, #4
 8001fe8:	f7ff fb67 	bl	80016ba <uxListRemove>
 8001fec:	682b      	ldr	r3, [r5, #0]
 8001fee:	3b01      	subs	r3, #1
 8001ff0:	602b      	str	r3, [r5, #0]
 8001ff2:	6823      	ldr	r3, [r4, #0]
 8001ff4:	3b01      	subs	r3, #1
 8001ff6:	6023      	str	r3, [r4, #0]
 8001ff8:	f000 fbdc 	bl	80027b4 <vPortExitCritical>
 8001ffc:	4630      	mov	r0, r6
 8001ffe:	f7ff ffbb 	bl	8001f78 <prvDeleteTCB>
 8002002:	e7db      	b.n	8001fbc <prvIdleTask+0x8>
 8002004:	2000048c 	.word	0x2000048c
 8002008:	200004fc 	.word	0x200004fc
 800200c:	20000488 	.word	0x20000488
 8002010:	200003fc 	.word	0x200003fc

08002014 <prvInitialiseNewTask.constprop.0>:
 8002014:	e92d 47f0 	stmdb	sp!, {r4, r5, r6, r7, r8, r9, sl, lr}
 8002018:	4607      	mov	r7, r0
 800201a:	e9dd 8409 	ldrd	r8, r4, [sp, #36]	; 0x24
 800201e:	f102 4280 	add.w	r2, r2, #1073741824	; 0x40000000
 8002022:	6b26      	ldr	r6, [r4, #48]	; 0x30
 8002024:	3a01      	subs	r2, #1
 8002026:	eb06 0682 	add.w	r6, r6, r2, lsl #2
 800202a:	4699      	mov	r9, r3
 800202c:	f026 0607 	bic.w	r6, r6, #7
 8002030:	1e4b      	subs	r3, r1, #1
 8002032:	f104 0234 	add.w	r2, r4, #52	; 0x34
 8002036:	310f      	adds	r1, #15
 8002038:	f813 0f01 	ldrb.w	r0, [r3, #1]!
 800203c:	f802 0b01 	strb.w	r0, [r2], #1
 8002040:	b108      	cbz	r0, 8002046 <prvInitialiseNewTask.constprop.0+0x32>
 8002042:	428b      	cmp	r3, r1
 8002044:	d1f8      	bne.n	8002038 <prvInitialiseNewTask.constprop.0+0x24>
 8002046:	9d08      	ldr	r5, [sp, #32]
 8002048:	f04f 0a00 	mov.w	sl, #0
 800204c:	2d06      	cmp	r5, #6
 800204e:	bf28      	it	cs
 8002050:	2506      	movcs	r5, #6
 8002052:	1d20      	adds	r0, r4, #4
 8002054:	e9c4 5a11 	strd	r5, sl, [r4, #68]	; 0x44
 8002058:	62e5      	str	r5, [r4, #44]	; 0x2c
 800205a:	f884 a043 	strb.w	sl, [r4, #67]	; 0x43
 800205e:	f7ff fb06 	bl	800166e <vListInitialiseItem>
 8002062:	f1c5 0507 	rsb	r5, r5, #7
 8002066:	f104 0018 	add.w	r0, r4, #24
 800206a:	f7ff fb00 	bl	800166e <vListInitialiseItem>
 800206e:	2260      	movs	r2, #96	; 0x60
 8002070:	4651      	mov	r1, sl
 8002072:	f8c4 a0ac 	str.w	sl, [r4, #172]	; 0xac
 8002076:	6124      	str	r4, [r4, #16]
 8002078:	61a5      	str	r5, [r4, #24]
 800207a:	6264      	str	r4, [r4, #36]	; 0x24
 800207c:	f884 a0b0 	strb.w	sl, [r4, #176]	; 0xb0
 8002080:	f104 004c 	add.w	r0, r4, #76	; 0x4c
 8002084:	f000 fda6 	bl	8002bd4 <memset>
 8002088:	4b09      	ldr	r3, [pc, #36]	; (80020b0 <prvInitialiseNewTask.constprop.0+0x9c>)
 800208a:	464a      	mov	r2, r9
 800208c:	6523      	str	r3, [r4, #80]	; 0x50
 800208e:	4b09      	ldr	r3, [pc, #36]	; (80020b4 <prvInitialiseNewTask.constprop.0+0xa0>)
 8002090:	4639      	mov	r1, r7
 8002092:	6563      	str	r3, [r4, #84]	; 0x54
 8002094:	4b08      	ldr	r3, [pc, #32]	; (80020b8 <prvInitialiseNewTask.constprop.0+0xa4>)
 8002096:	4630      	mov	r0, r6
 8002098:	65a3      	str	r3, [r4, #88]	; 0x58
 800209a:	f000 fb41 	bl	8002720 <pxPortInitialiseStack>
 800209e:	6020      	str	r0, [r4, #0]
 80020a0:	f1b8 0f00 	cmp.w	r8, #0
 80020a4:	d001      	beq.n	80020aa <prvInitialiseNewTask.constprop.0+0x96>
 80020a6:	f8c8 4000 	str.w	r4, [r8]
 80020aa:	e8bd 87f0 	ldmia.w	sp!, {r4, r5, r6, r7, r8, r9, sl, pc}
 80020ae:	bf00      	nop
 80020b0:	08003670 	.word	0x08003670
 80020b4:	08003690 	.word	0x08003690
 80020b8:	08003650 	.word	0x08003650

080020bc <xTaskCreateStatic>:
 80020bc:	b570      	push	{r4, r5, r6, lr}
 80020be:	b086      	sub	sp, #24
 80020c0:	e9dd 540b 	ldrd	r5, r4, [sp, #44]	; 0x2c
 80020c4:	b945      	cbnz	r5, 80020d8 <xTaskCreateStatic+0x1c>
 80020c6:	f04f 0350 	mov.w	r3, #80	; 0x50
 80020ca:	f383 8811 	msr	BASEPRI, r3
 80020ce:	f3bf 8f6f 	isb	sy
 80020d2:	f3bf 8f4f 	dsb	sy
 80020d6:	e7fe      	b.n	80020d6 <xTaskCreateStatic+0x1a>
 80020d8:	b944      	cbnz	r4, 80020ec <xTaskCreateStatic+0x30>
 80020da:	f04f 0350 	mov.w	r3, #80	; 0x50
 80020de:	f383 8811 	msr	BASEPRI, r3
 80020e2:	f3bf 8f6f 	isb	sy
 80020e6:	f3bf 8f4f 	dsb	sy
 80020ea:	e7fe      	b.n	80020ea <xTaskCreateStatic+0x2e>
 80020ec:	26b4      	movs	r6, #180	; 0xb4
 80020ee:	9605      	str	r6, [sp, #20]
 80020f0:	9e05      	ldr	r6, [sp, #20]
 80020f2:	2eb4      	cmp	r6, #180	; 0xb4
 80020f4:	d008      	beq.n	8002108 <xTaskCreateStatic+0x4c>
 80020f6:	f04f 0350 	mov.w	r3, #80	; 0x50
 80020fa:	f383 8811 	msr	BASEPRI, r3
 80020fe:	f3bf 8f6f 	isb	sy
 8002102:	f3bf 8f4f 	dsb	sy
 8002106:	e7fe      	b.n	8002106 <xTaskCreateStatic+0x4a>
 8002108:	6325      	str	r5, [r4, #48]	; 0x30
 800210a:	2502      	movs	r5, #2
 800210c:	f884 50b1 	strb.w	r5, [r4, #177]	; 0xb1
 8002110:	ad04      	add	r5, sp, #16
 8002112:	9501      	str	r5, [sp, #4]
 8002114:	9d0a      	ldr	r5, [sp, #40]	; 0x28
 8002116:	9402      	str	r4, [sp, #8]
 8002118:	9500      	str	r5, [sp, #0]
 800211a:	f7ff ff7b 	bl	8002014 <prvInitialiseNewTask.constprop.0>
 800211e:	4620      	mov	r0, r4
 8002120:	f7ff fe56 	bl	8001dd0 <prvAddNewTaskToReadyList>
 8002124:	9804      	ldr	r0, [sp, #16]
 8002126:	b006      	add	sp, #24
 8002128:	bd70      	pop	{r4, r5, r6, pc}

0800212a <xTaskCreate>:
 800212a:	e92d 43f0 	stmdb	sp!, {r4, r5, r6, r7, r8, r9, lr}
 800212e:	4607      	mov	r7, r0
 8002130:	b085      	sub	sp, #20
 8002132:	0090      	lsls	r0, r2, #2
 8002134:	4688      	mov	r8, r1
 8002136:	4616      	mov	r6, r2
 8002138:	4699      	mov	r9, r3
 800213a:	f000 fc49 	bl	80029d0 <pvPortMalloc>
 800213e:	4605      	mov	r5, r0
 8002140:	b1e8      	cbz	r0, 800217e <xTaskCreate+0x54>
 8002142:	20b4      	movs	r0, #180	; 0xb4
 8002144:	f000 fc44 	bl	80029d0 <pvPortMalloc>
 8002148:	4604      	mov	r4, r0
 800214a:	b1a8      	cbz	r0, 8002178 <xTaskCreate+0x4e>
 800214c:	2300      	movs	r3, #0
 800214e:	f880 30b1 	strb.w	r3, [r0, #177]	; 0xb1
 8002152:	9b0d      	ldr	r3, [sp, #52]	; 0x34
 8002154:	6305      	str	r5, [r0, #48]	; 0x30
 8002156:	9301      	str	r3, [sp, #4]
 8002158:	9b0c      	ldr	r3, [sp, #48]	; 0x30
 800215a:	4632      	mov	r2, r6
 800215c:	4641      	mov	r1, r8
 800215e:	9002      	str	r0, [sp, #8]
 8002160:	9300      	str	r3, [sp, #0]
 8002162:	4638      	mov	r0, r7
 8002164:	464b      	mov	r3, r9
 8002166:	f7ff ff55 	bl	8002014 <prvInitialiseNewTask.constprop.0>
 800216a:	4620      	mov	r0, r4
 800216c:	f7ff fe30 	bl	8001dd0 <prvAddNewTaskToReadyList>
 8002170:	2001      	movs	r0, #1
 8002172:	b005      	add	sp, #20
 8002174:	e8bd 83f0 	ldmia.w	sp!, {r4, r5, r6, r7, r8, r9, pc}
 8002178:	4628      	mov	r0, r5
 800217a:	f000 fcb9 	bl	8002af0 <vPortFree>
 800217e:	f04f 30ff 	mov.w	r0, #4294967295
 8002182:	e7f6      	b.n	8002172 <xTaskCreate+0x48>

08002184 <vTaskStartScheduler>:
 8002184:	b510      	push	{r4, lr}
 8002186:	2400      	movs	r4, #0
 8002188:	b088      	sub	sp, #32
 800218a:	aa07      	add	r2, sp, #28
 800218c:	a906      	add	r1, sp, #24
 800218e:	a805      	add	r0, sp, #20
 8002190:	e9cd 4405 	strd	r4, r4, [sp, #20]
 8002194:	f7fe f854 	bl	8000240 <vApplicationGetIdleTaskMemory>
 8002198:	9b05      	ldr	r3, [sp, #20]
 800219a:	9a07      	ldr	r2, [sp, #28]
 800219c:	9302      	str	r3, [sp, #8]
 800219e:	9b06      	ldr	r3, [sp, #24]
 80021a0:	4912      	ldr	r1, [pc, #72]	; (80021ec <vTaskStartScheduler+0x68>)
 80021a2:	e9cd 4300 	strd	r4, r3, [sp]
 80021a6:	4812      	ldr	r0, [pc, #72]	; (80021f0 <vTaskStartScheduler+0x6c>)
 80021a8:	4623      	mov	r3, r4
 80021aa:	f7ff ff87 	bl	80020bc <xTaskCreateStatic>
 80021ae:	b1d0      	cbz	r0, 80021e6 <vTaskStartScheduler+0x62>
 80021b0:	f04f 0350 	mov.w	r3, #80	; 0x50
 80021b4:	f383 8811 	msr	BASEPRI, r3
 80021b8:	f3bf 8f6f 	isb	sy
 80021bc:	f3bf 8f4f 	dsb	sy
 80021c0:	4b0c      	ldr	r3, [pc, #48]	; (80021f4 <vTaskStartScheduler+0x70>)
 80021c2:	4a0d      	ldr	r2, [pc, #52]	; (80021f8 <vTaskStartScheduler+0x74>)
 80021c4:	681b      	ldr	r3, [r3, #0]
 80021c6:	334c      	adds	r3, #76	; 0x4c
 80021c8:	6013      	str	r3, [r2, #0]
 80021ca:	f04f 32ff 	mov.w	r2, #4294967295
 80021ce:	4b0b      	ldr	r3, [pc, #44]	; (80021fc <vTaskStartScheduler+0x78>)
 80021d0:	601a      	str	r2, [r3, #0]
 80021d2:	2201      	movs	r2, #1
 80021d4:	4b0a      	ldr	r3, [pc, #40]	; (8002200 <vTaskStartScheduler+0x7c>)
 80021d6:	601a      	str	r2, [r3, #0]
 80021d8:	4b0a      	ldr	r3, [pc, #40]	; (8002204 <vTaskStartScheduler+0x80>)
 80021da:	601c      	str	r4, [r3, #0]
 80021dc:	b008      	add	sp, #32
 80021de:	e8bd 4010 	ldmia.w	sp!, {r4, lr}
 80021e2:	f000 bb47 	b.w	8002874 <xPortStartScheduler>
 80021e6:	b008      	add	sp, #32
 80021e8:	bd10      	pop	{r4, pc}
 80021ea:	bf00      	nop
 80021ec:	08003649 	.word	0x08003649
 80021f0:	08001fb5 	.word	0x08001fb5
 80021f4:	200003f0 	.word	0x200003f0
 80021f8:	20000010 	.word	0x20000010
 80021fc:	200004c8 	.word	0x200004c8
 8002200:	200004e4 	.word	0x200004e4
 8002204:	20000510 	.word	0x20000510

08002208 <vTaskSuspendAll>:
 8002208:	4a02      	ldr	r2, [pc, #8]	; (8002214 <vTaskSuspendAll+0xc>)
 800220a:	6813      	ldr	r3, [r2, #0]
 800220c:	3301      	adds	r3, #1
 800220e:	6013      	str	r3, [r2, #0]
 8002210:	4770      	bx	lr
 8002212:	bf00      	nop
 8002214:	20000494 	.word	0x20000494

08002218 <xTaskIncrementTick>:
 8002218:	e92d 4ff8 	stmdb	sp!, {r3, r4, r5, r6, r7, r8, r9, sl, fp, lr}
 800221c:	4b3c      	ldr	r3, [pc, #240]	; (8002310 <xTaskIncrementTick+0xf8>)
 800221e:	681b      	ldr	r3, [r3, #0]
 8002220:	2b00      	cmp	r3, #0
 8002222:	d16e      	bne.n	8002302 <xTaskIncrementTick+0xea>
 8002224:	4b3b      	ldr	r3, [pc, #236]	; (8002314 <xTaskIncrementTick+0xfc>)
 8002226:	681d      	ldr	r5, [r3, #0]
 8002228:	3501      	adds	r5, #1
 800222a:	601d      	str	r5, [r3, #0]
 800222c:	b9bd      	cbnz	r5, 800225e <xTaskIncrementTick+0x46>
 800222e:	4b3a      	ldr	r3, [pc, #232]	; (8002318 <xTaskIncrementTick+0x100>)
 8002230:	681a      	ldr	r2, [r3, #0]
 8002232:	6812      	ldr	r2, [r2, #0]
 8002234:	b142      	cbz	r2, 8002248 <xTaskIncrementTick+0x30>
 8002236:	f04f 0350 	mov.w	r3, #80	; 0x50
 800223a:	f383 8811 	msr	BASEPRI, r3
 800223e:	f3bf 8f6f 	isb	sy
 8002242:	f3bf 8f4f 	dsb	sy
 8002246:	e7fe      	b.n	8002246 <xTaskIncrementTick+0x2e>
 8002248:	4a34      	ldr	r2, [pc, #208]	; (800231c <xTaskIncrementTick+0x104>)
 800224a:	6819      	ldr	r1, [r3, #0]
 800224c:	6810      	ldr	r0, [r2, #0]
 800224e:	6018      	str	r0, [r3, #0]
 8002250:	6011      	str	r1, [r2, #0]
 8002252:	4a33      	ldr	r2, [pc, #204]	; (8002320 <xTaskIncrementTick+0x108>)
 8002254:	6813      	ldr	r3, [r2, #0]
 8002256:	3301      	adds	r3, #1
 8002258:	6013      	str	r3, [r2, #0]
 800225a:	f7ff fe7b 	bl	8001f54 <prvResetNextTaskUnblockTime>
 800225e:	4e31      	ldr	r6, [pc, #196]	; (8002324 <xTaskIncrementTick+0x10c>)
 8002260:	2400      	movs	r4, #0
 8002262:	6833      	ldr	r3, [r6, #0]
 8002264:	4f30      	ldr	r7, [pc, #192]	; (8002328 <xTaskIncrementTick+0x110>)
 8002266:	42ab      	cmp	r3, r5
 8002268:	d910      	bls.n	800228c <xTaskIncrementTick+0x74>
 800226a:	2214      	movs	r2, #20
 800226c:	4b2f      	ldr	r3, [pc, #188]	; (800232c <xTaskIncrementTick+0x114>)
 800226e:	681b      	ldr	r3, [r3, #0]
 8002270:	6adb      	ldr	r3, [r3, #44]	; 0x2c
 8002272:	4353      	muls	r3, r2
 8002274:	58fb      	ldr	r3, [r7, r3]
 8002276:	2b02      	cmp	r3, #2
 8002278:	bf28      	it	cs
 800227a:	2401      	movcs	r4, #1
 800227c:	4b2c      	ldr	r3, [pc, #176]	; (8002330 <xTaskIncrementTick+0x118>)
 800227e:	681b      	ldr	r3, [r3, #0]
 8002280:	2b00      	cmp	r3, #0
 8002282:	bf0c      	ite	eq
 8002284:	4620      	moveq	r0, r4
 8002286:	2001      	movne	r0, #1
 8002288:	e8bd 8ff8 	ldmia.w	sp!, {r3, r4, r5, r6, r7, r8, r9, sl, fp, pc}
 800228c:	f8df a088 	ldr.w	sl, [pc, #136]	; 8002318 <xTaskIncrementTick+0x100>
 8002290:	f8df 90a0 	ldr.w	r9, [pc, #160]	; 8002334 <xTaskIncrementTick+0x11c>
 8002294:	f8da 3000 	ldr.w	r3, [sl]
 8002298:	681b      	ldr	r3, [r3, #0]
 800229a:	b91b      	cbnz	r3, 80022a4 <xTaskIncrementTick+0x8c>
 800229c:	f04f 33ff 	mov.w	r3, #4294967295
 80022a0:	6033      	str	r3, [r6, #0]
 80022a2:	e7e2      	b.n	800226a <xTaskIncrementTick+0x52>
 80022a4:	f8da 3000 	ldr.w	r3, [sl]
 80022a8:	68db      	ldr	r3, [r3, #12]
 80022aa:	f8d3 b00c 	ldr.w	fp, [r3, #12]
 80022ae:	f8db 2004 	ldr.w	r2, [fp, #4]
 80022b2:	4295      	cmp	r5, r2
 80022b4:	d201      	bcs.n	80022ba <xTaskIncrementTick+0xa2>
 80022b6:	6032      	str	r2, [r6, #0]
 80022b8:	e7d7      	b.n	800226a <xTaskIncrementTick+0x52>
 80022ba:	f10b 0804 	add.w	r8, fp, #4
 80022be:	4640      	mov	r0, r8
 80022c0:	f7ff f9fb 	bl	80016ba <uxListRemove>
 80022c4:	f8db 2028 	ldr.w	r2, [fp, #40]	; 0x28
 80022c8:	b11a      	cbz	r2, 80022d2 <xTaskIncrementTick+0xba>
 80022ca:	f10b 0018 	add.w	r0, fp, #24
 80022ce:	f7ff f9f4 	bl	80016ba <uxListRemove>
 80022d2:	2201      	movs	r2, #1
 80022d4:	f8db 002c 	ldr.w	r0, [fp, #44]	; 0x2c
 80022d8:	f8d9 3000 	ldr.w	r3, [r9]
 80022dc:	4082      	lsls	r2, r0
 80022de:	431a      	orrs	r2, r3
 80022e0:	f8c9 2000 	str.w	r2, [r9]
 80022e4:	2214      	movs	r2, #20
 80022e6:	4641      	mov	r1, r8
 80022e8:	fb02 7000 	mla	r0, r2, r0, r7
 80022ec:	f7ff f9c2 	bl	8001674 <vListInsertEnd>
 80022f0:	4b0e      	ldr	r3, [pc, #56]	; (800232c <xTaskIncrementTick+0x114>)
 80022f2:	f8db 202c 	ldr.w	r2, [fp, #44]	; 0x2c
 80022f6:	6819      	ldr	r1, [r3, #0]
 80022f8:	6acb      	ldr	r3, [r1, #44]	; 0x2c
 80022fa:	429a      	cmp	r2, r3
 80022fc:	bf28      	it	cs
 80022fe:	2401      	movcs	r4, #1
 8002300:	e7c8      	b.n	8002294 <xTaskIncrementTick+0x7c>
 8002302:	4a0d      	ldr	r2, [pc, #52]	; (8002338 <xTaskIncrementTick+0x120>)
 8002304:	2400      	movs	r4, #0
 8002306:	6813      	ldr	r3, [r2, #0]
 8002308:	3301      	adds	r3, #1
 800230a:	6013      	str	r3, [r2, #0]
 800230c:	e7b6      	b.n	800227c <xTaskIncrementTick+0x64>
 800230e:	bf00      	nop
 8002310:	20000494 	.word	0x20000494
 8002314:	20000510 	.word	0x20000510
 8002318:	200003f4 	.word	0x200003f4
 800231c:	200003f8 	.word	0x200003f8
 8002320:	200004cc 	.word	0x200004cc
 8002324:	200004c8 	.word	0x200004c8
 8002328:	200003fc 	.word	0x200003fc
 800232c:	200003f0 	.word	0x200003f0
 8002330:	20000514 	.word	0x20000514
 8002334:	2000049c 	.word	0x2000049c
 8002338:	20000490 	.word	0x20000490

0800233c <xTaskResumeAll>:
 800233c:	e92d 43f8 	stmdb	sp!, {r3, r4, r5, r6, r7, r8, r9, lr}
 8002340:	4c31      	ldr	r4, [pc, #196]	; (8002408 <xTaskResumeAll+0xcc>)
 8002342:	6823      	ldr	r3, [r4, #0]
 8002344:	b943      	cbnz	r3, 8002358 <xTaskResumeAll+0x1c>
 8002346:	f04f 0350 	mov.w	r3, #80	; 0x50
 800234a:	f383 8811 	msr	BASEPRI, r3
 800234e:	f3bf 8f6f 	isb	sy
 8002352:	f3bf 8f4f 	dsb	sy
 8002356:	e7fe      	b.n	8002356 <xTaskResumeAll+0x1a>
 8002358:	f000 fa0c 	bl	8002774 <vPortEnterCritical>
 800235c:	6823      	ldr	r3, [r4, #0]
 800235e:	3b01      	subs	r3, #1
 8002360:	6023      	str	r3, [r4, #0]
 8002362:	6824      	ldr	r4, [r4, #0]
 8002364:	b12c      	cbz	r4, 8002372 <xTaskResumeAll+0x36>
 8002366:	2400      	movs	r4, #0
 8002368:	f000 fa24 	bl	80027b4 <vPortExitCritical>
 800236c:	4620      	mov	r0, r4
 800236e:	e8bd 83f8 	ldmia.w	sp!, {r3, r4, r5, r6, r7, r8, r9, pc}
 8002372:	4b26      	ldr	r3, [pc, #152]	; (800240c <xTaskResumeAll+0xd0>)
 8002374:	681b      	ldr	r3, [r3, #0]
 8002376:	2b00      	cmp	r3, #0
 8002378:	d0f5      	beq.n	8002366 <xTaskResumeAll+0x2a>
 800237a:	4d25      	ldr	r5, [pc, #148]	; (8002410 <xTaskResumeAll+0xd4>)
 800237c:	4e25      	ldr	r6, [pc, #148]	; (8002414 <xTaskResumeAll+0xd8>)
 800237e:	f8df 8098 	ldr.w	r8, [pc, #152]	; 8002418 <xTaskResumeAll+0xdc>
 8002382:	e01f      	b.n	80023c4 <xTaskResumeAll+0x88>
 8002384:	68eb      	ldr	r3, [r5, #12]
 8002386:	2701      	movs	r7, #1
 8002388:	68dc      	ldr	r4, [r3, #12]
 800238a:	f104 0904 	add.w	r9, r4, #4
 800238e:	f104 0018 	add.w	r0, r4, #24
 8002392:	f7ff f992 	bl	80016ba <uxListRemove>
 8002396:	4648      	mov	r0, r9
 8002398:	f7ff f98f 	bl	80016ba <uxListRemove>
 800239c:	2014      	movs	r0, #20
 800239e:	6ae2      	ldr	r2, [r4, #44]	; 0x2c
 80023a0:	6831      	ldr	r1, [r6, #0]
 80023a2:	fa07 f302 	lsl.w	r3, r7, r2
 80023a6:	430b      	orrs	r3, r1
 80023a8:	fb00 8002 	mla	r0, r0, r2, r8
 80023ac:	4649      	mov	r1, r9
 80023ae:	6033      	str	r3, [r6, #0]
 80023b0:	f7ff f960 	bl	8001674 <vListInsertEnd>
 80023b4:	4b19      	ldr	r3, [pc, #100]	; (800241c <xTaskResumeAll+0xe0>)
 80023b6:	6ae2      	ldr	r2, [r4, #44]	; 0x2c
 80023b8:	681b      	ldr	r3, [r3, #0]
 80023ba:	6adb      	ldr	r3, [r3, #44]	; 0x2c
 80023bc:	429a      	cmp	r2, r3
 80023be:	d301      	bcc.n	80023c4 <xTaskResumeAll+0x88>
 80023c0:	4b17      	ldr	r3, [pc, #92]	; (8002420 <xTaskResumeAll+0xe4>)
 80023c2:	601f      	str	r7, [r3, #0]
 80023c4:	682b      	ldr	r3, [r5, #0]
 80023c6:	2b00      	cmp	r3, #0
 80023c8:	d1dc      	bne.n	8002384 <xTaskResumeAll+0x48>
 80023ca:	b10c      	cbz	r4, 80023d0 <xTaskResumeAll+0x94>
 80023cc:	f7ff fdc2 	bl	8001f54 <prvResetNextTaskUnblockTime>
 80023d0:	4d14      	ldr	r5, [pc, #80]	; (8002424 <xTaskResumeAll+0xe8>)
 80023d2:	682c      	ldr	r4, [r5, #0]
 80023d4:	b144      	cbz	r4, 80023e8 <xTaskResumeAll+0xac>
 80023d6:	2701      	movs	r7, #1
 80023d8:	4e11      	ldr	r6, [pc, #68]	; (8002420 <xTaskResumeAll+0xe4>)
 80023da:	f7ff ff1d 	bl	8002218 <xTaskIncrementTick>
 80023de:	b100      	cbz	r0, 80023e2 <xTaskResumeAll+0xa6>
 80023e0:	6037      	str	r7, [r6, #0]
 80023e2:	3c01      	subs	r4, #1
 80023e4:	d1f9      	bne.n	80023da <xTaskResumeAll+0x9e>
 80023e6:	602c      	str	r4, [r5, #0]
 80023e8:	4b0d      	ldr	r3, [pc, #52]	; (8002420 <xTaskResumeAll+0xe4>)
 80023ea:	681b      	ldr	r3, [r3, #0]
 80023ec:	2b00      	cmp	r3, #0
 80023ee:	d0ba      	beq.n	8002366 <xTaskResumeAll+0x2a>
 80023f0:	f04f 23e0 	mov.w	r3, #3758153728	; 0xe000e000
 80023f4:	f04f 5280 	mov.w	r2, #268435456	; 0x10000000
 80023f8:	f8c3 2d04 	str.w	r2, [r3, #3332]	; 0xd04
 80023fc:	f3bf 8f4f 	dsb	sy
 8002400:	f3bf 8f6f 	isb	sy
 8002404:	2401      	movs	r4, #1
 8002406:	e7af      	b.n	8002368 <xTaskResumeAll+0x2c>
 8002408:	20000494 	.word	0x20000494
 800240c:	20000488 	.word	0x20000488
 8002410:	200004d0 	.word	0x200004d0
 8002414:	2000049c 	.word	0x2000049c
 8002418:	200003fc 	.word	0x200003fc
 800241c:	200003f0 	.word	0x200003f0
 8002420:	20000514 	.word	0x20000514
 8002424:	20000490 	.word	0x20000490

08002428 <vTaskSwitchContext>:
 8002428:	4b1a      	ldr	r3, [pc, #104]	; (8002494 <vTaskSwitchContext+0x6c>)
 800242a:	b510      	push	{r4, lr}
 800242c:	681a      	ldr	r2, [r3, #0]
 800242e:	4b1a      	ldr	r3, [pc, #104]	; (8002498 <vTaskSwitchContext+0x70>)
 8002430:	b112      	cbz	r2, 8002438 <vTaskSwitchContext+0x10>
 8002432:	2201      	movs	r2, #1
 8002434:	601a      	str	r2, [r3, #0]
 8002436:	bd10      	pop	{r4, pc}
 8002438:	601a      	str	r2, [r3, #0]
 800243a:	4b18      	ldr	r3, [pc, #96]	; (800249c <vTaskSwitchContext+0x74>)
 800243c:	681a      	ldr	r2, [r3, #0]
 800243e:	fab2 f282 	clz	r2, r2
 8002442:	2314      	movs	r3, #20
 8002444:	b2d2      	uxtb	r2, r2
 8002446:	f1c2 021f 	rsb	r2, r2, #31
 800244a:	4353      	muls	r3, r2
 800244c:	4914      	ldr	r1, [pc, #80]	; (80024a0 <vTaskSwitchContext+0x78>)
 800244e:	58cc      	ldr	r4, [r1, r3]
 8002450:	18c8      	adds	r0, r1, r3
 8002452:	b944      	cbnz	r4, 8002466 <vTaskSwitchContext+0x3e>
 8002454:	f04f 0350 	mov.w	r3, #80	; 0x50
 8002458:	f383 8811 	msr	BASEPRI, r3
 800245c:	f3bf 8f6f 	isb	sy
 8002460:	f3bf 8f4f 	dsb	sy
 8002464:	e7fe      	b.n	8002464 <vTaskSwitchContext+0x3c>
 8002466:	6844      	ldr	r4, [r0, #4]
 8002468:	3308      	adds	r3, #8
 800246a:	6864      	ldr	r4, [r4, #4]
 800246c:	440b      	add	r3, r1
 800246e:	429c      	cmp	r4, r3
 8002470:	bf08      	it	eq
 8002472:	6863      	ldreq	r3, [r4, #4]
 8002474:	6044      	str	r4, [r0, #4]
 8002476:	bf08      	it	eq
 8002478:	6043      	streq	r3, [r0, #4]
 800247a:	2314      	movs	r3, #20
 800247c:	fb03 1202 	mla	r2, r3, r2, r1
 8002480:	6853      	ldr	r3, [r2, #4]
 8002482:	68da      	ldr	r2, [r3, #12]
 8002484:	4b07      	ldr	r3, [pc, #28]	; (80024a4 <vTaskSwitchContext+0x7c>)
 8002486:	601a      	str	r2, [r3, #0]
 8002488:	681b      	ldr	r3, [r3, #0]
 800248a:	4a07      	ldr	r2, [pc, #28]	; (80024a8 <vTaskSwitchContext+0x80>)
 800248c:	334c      	adds	r3, #76	; 0x4c
 800248e:	6013      	str	r3, [r2, #0]
 8002490:	e7d1      	b.n	8002436 <vTaskSwitchContext+0xe>
 8002492:	bf00      	nop
 8002494:	20000494 	.word	0x20000494
 8002498:	20000514 	.word	0x20000514
 800249c:	2000049c 	.word	0x2000049c
 80024a0:	200003fc 	.word	0x200003fc
 80024a4:	200003f0 	.word	0x200003f0
 80024a8:	20000010 	.word	0x20000010

080024ac <vTaskPlaceOnEventList>:
 80024ac:	b510      	push	{r4, lr}
 80024ae:	460c      	mov	r4, r1
 80024b0:	b940      	cbnz	r0, 80024c4 <vTaskPlaceOnEventList+0x18>
 80024b2:	f04f 0350 	mov.w	r3, #80	; 0x50
 80024b6:	f383 8811 	msr	BASEPRI, r3
 80024ba:	f3bf 8f6f 	isb	sy
 80024be:	f3bf 8f4f 	dsb	sy
 80024c2:	e7fe      	b.n	80024c2 <vTaskPlaceOnEventList+0x16>
 80024c4:	4b05      	ldr	r3, [pc, #20]	; (80024dc <vTaskPlaceOnEventList+0x30>)
 80024c6:	6819      	ldr	r1, [r3, #0]
 80024c8:	3118      	adds	r1, #24
 80024ca:	f7ff f8df 	bl	800168c <vListInsert>
 80024ce:	4620      	mov	r0, r4
 80024d0:	e8bd 4010 	ldmia.w	sp!, {r4, lr}
 80024d4:	2101      	movs	r1, #1
 80024d6:	f7ff bcf9 	b.w	8001ecc <prvAddCurrentTaskToDelayedList>
 80024da:	bf00      	nop
 80024dc:	200003f0 	.word	0x200003f0

080024e0 <xTaskRemoveFromEventList>:
 80024e0:	b538      	push	{r3, r4, r5, lr}
 80024e2:	68c3      	ldr	r3, [r0, #12]
 80024e4:	68dc      	ldr	r4, [r3, #12]
 80024e6:	b944      	cbnz	r4, 80024fa <xTaskRemoveFromEventList+0x1a>
 80024e8:	f04f 0350 	mov.w	r3, #80	; 0x50
 80024ec:	f383 8811 	msr	BASEPRI, r3
 80024f0:	f3bf 8f6f 	isb	sy
 80024f4:	f3bf 8f4f 	dsb	sy
 80024f8:	e7fe      	b.n	80024f8 <xTaskRemoveFromEventList+0x18>
 80024fa:	f104 0518 	add.w	r5, r4, #24
 80024fe:	4628      	mov	r0, r5
 8002500:	f7ff f8db 	bl	80016ba <uxListRemove>
 8002504:	4b11      	ldr	r3, [pc, #68]	; (800254c <xTaskRemoveFromEventList+0x6c>)
 8002506:	681b      	ldr	r3, [r3, #0]
 8002508:	b9e3      	cbnz	r3, 8002544 <xTaskRemoveFromEventList+0x64>
 800250a:	1d25      	adds	r5, r4, #4
 800250c:	4628      	mov	r0, r5
 800250e:	f7ff f8d4 	bl	80016ba <uxListRemove>
 8002512:	2301      	movs	r3, #1
 8002514:	490e      	ldr	r1, [pc, #56]	; (8002550 <xTaskRemoveFromEventList+0x70>)
 8002516:	6ae2      	ldr	r2, [r4, #44]	; 0x2c
 8002518:	6808      	ldr	r0, [r1, #0]
 800251a:	4093      	lsls	r3, r2
 800251c:	4303      	orrs	r3, r0
 800251e:	2014      	movs	r0, #20
 8002520:	600b      	str	r3, [r1, #0]
 8002522:	4629      	mov	r1, r5
 8002524:	4b0b      	ldr	r3, [pc, #44]	; (8002554 <xTaskRemoveFromEventList+0x74>)
 8002526:	fb00 3002 	mla	r0, r0, r2, r3
 800252a:	f7ff f8a3 	bl	8001674 <vListInsertEnd>
 800252e:	4b0a      	ldr	r3, [pc, #40]	; (8002558 <xTaskRemoveFromEventList+0x78>)
 8002530:	6ae2      	ldr	r2, [r4, #44]	; 0x2c
 8002532:	681b      	ldr	r3, [r3, #0]
 8002534:	6adb      	ldr	r3, [r3, #44]	; 0x2c
 8002536:	429a      	cmp	r2, r3
 8002538:	bf85      	ittet	hi
 800253a:	2001      	movhi	r0, #1
 800253c:	4b07      	ldrhi	r3, [pc, #28]	; (800255c <xTaskRemoveFromEventList+0x7c>)
 800253e:	2000      	movls	r0, #0
 8002540:	6018      	strhi	r0, [r3, #0]
 8002542:	bd38      	pop	{r3, r4, r5, pc}
 8002544:	4629      	mov	r1, r5
 8002546:	4806      	ldr	r0, [pc, #24]	; (8002560 <xTaskRemoveFromEventList+0x80>)
 8002548:	e7ef      	b.n	800252a <xTaskRemoveFromEventList+0x4a>
 800254a:	bf00      	nop
 800254c:	20000494 	.word	0x20000494
 8002550:	2000049c 	.word	0x2000049c
 8002554:	200003fc 	.word	0x200003fc
 8002558:	200003f0 	.word	0x200003f0
 800255c:	20000514 	.word	0x20000514
 8002560:	200004d0 	.word	0x200004d0

08002564 <vTaskInternalSetTimeOutState>:
 8002564:	4b03      	ldr	r3, [pc, #12]	; (8002574 <vTaskInternalSetTimeOutState+0x10>)
 8002566:	681b      	ldr	r3, [r3, #0]
 8002568:	6003      	str	r3, [r0, #0]
 800256a:	4b03      	ldr	r3, [pc, #12]	; (8002578 <vTaskInternalSetTimeOutState+0x14>)
 800256c:	681b      	ldr	r3, [r3, #0]
 800256e:	6043      	str	r3, [r0, #4]
 8002570:	4770      	bx	lr
 8002572:	bf00      	nop
 8002574:	200004cc 	.word	0x200004cc
 8002578:	20000510 	.word	0x20000510

0800257c <xTaskCheckForTimeOut>:
 800257c:	b570      	push	{r4, r5, r6, lr}
 800257e:	460c      	mov	r4, r1
 8002580:	4605      	mov	r5, r0
 8002582:	b940      	cbnz	r0, 8002596 <xTaskCheckForTimeOut+0x1a>
 8002584:	f04f 0350 	mov.w	r3, #80	; 0x50
 8002588:	f383 8811 	msr	BASEPRI, r3
 800258c:	f3bf 8f6f 	isb	sy
 8002590:	f3bf 8f4f 	dsb	sy
 8002594:	e7fe      	b.n	8002594 <xTaskCheckForTimeOut+0x18>
 8002596:	b941      	cbnz	r1, 80025aa <xTaskCheckForTimeOut+0x2e>
 8002598:	f04f 0350 	mov.w	r3, #80	; 0x50
 800259c:	f383 8811 	msr	BASEPRI, r3
 80025a0:	f3bf 8f6f 	isb	sy
 80025a4:	f3bf 8f4f 	dsb	sy
 80025a8:	e7fe      	b.n	80025a8 <xTaskCheckForTimeOut+0x2c>
 80025aa:	f000 f8e3 	bl	8002774 <vPortEnterCritical>
 80025ae:	4b0f      	ldr	r3, [pc, #60]	; (80025ec <xTaskCheckForTimeOut+0x70>)
 80025b0:	6819      	ldr	r1, [r3, #0]
 80025b2:	6823      	ldr	r3, [r4, #0]
 80025b4:	1c5a      	adds	r2, r3, #1
 80025b6:	d010      	beq.n	80025da <xTaskCheckForTimeOut+0x5e>
 80025b8:	480d      	ldr	r0, [pc, #52]	; (80025f0 <xTaskCheckForTimeOut+0x74>)
 80025ba:	682e      	ldr	r6, [r5, #0]
 80025bc:	6800      	ldr	r0, [r0, #0]
 80025be:	686a      	ldr	r2, [r5, #4]
 80025c0:	4286      	cmp	r6, r0
 80025c2:	d001      	beq.n	80025c8 <xTaskCheckForTimeOut+0x4c>
 80025c4:	428a      	cmp	r2, r1
 80025c6:	d90f      	bls.n	80025e8 <xTaskCheckForTimeOut+0x6c>
 80025c8:	1a88      	subs	r0, r1, r2
 80025ca:	4283      	cmp	r3, r0
 80025cc:	d90a      	bls.n	80025e4 <xTaskCheckForTimeOut+0x68>
 80025ce:	1a5b      	subs	r3, r3, r1
 80025d0:	4413      	add	r3, r2
 80025d2:	4628      	mov	r0, r5
 80025d4:	6023      	str	r3, [r4, #0]
 80025d6:	f7ff ffc5 	bl	8002564 <vTaskInternalSetTimeOutState>
 80025da:	2400      	movs	r4, #0
 80025dc:	f000 f8ea 	bl	80027b4 <vPortExitCritical>
 80025e0:	4620      	mov	r0, r4
 80025e2:	bd70      	pop	{r4, r5, r6, pc}
 80025e4:	2300      	movs	r3, #0
 80025e6:	6023      	str	r3, [r4, #0]
 80025e8:	2401      	movs	r4, #1
 80025ea:	e7f7      	b.n	80025dc <xTaskCheckForTimeOut+0x60>
 80025ec:	20000510 	.word	0x20000510
 80025f0:	200004cc 	.word	0x200004cc

080025f4 <vTaskMissedYield>:
 80025f4:	2201      	movs	r2, #1
 80025f6:	4b01      	ldr	r3, [pc, #4]	; (80025fc <vTaskMissedYield+0x8>)
 80025f8:	601a      	str	r2, [r3, #0]
 80025fa:	4770      	bx	lr
 80025fc:	20000514 	.word	0x20000514

08002600 <xTaskGetSchedulerState>:
 8002600:	4b05      	ldr	r3, [pc, #20]	; (8002618 <xTaskGetSchedulerState+0x18>)
 8002602:	681b      	ldr	r3, [r3, #0]
 8002604:	b133      	cbz	r3, 8002614 <xTaskGetSchedulerState+0x14>
 8002606:	4b05      	ldr	r3, [pc, #20]	; (800261c <xTaskGetSchedulerState+0x1c>)
 8002608:	681b      	ldr	r3, [r3, #0]
 800260a:	2b00      	cmp	r3, #0
 800260c:	bf0c      	ite	eq
 800260e:	2002      	moveq	r0, #2
 8002610:	2000      	movne	r0, #0
 8002612:	4770      	bx	lr
 8002614:	2001      	movs	r0, #1
 8002616:	4770      	bx	lr
 8002618:	200004e4 	.word	0x200004e4
 800261c:	20000494 	.word	0x20000494

08002620 <xTaskPriorityDisinherit>:
 8002620:	b5f8      	push	{r3, r4, r5, r6, r7, lr}
 8002622:	4604      	mov	r4, r0
 8002624:	b908      	cbnz	r0, 800262a <xTaskPriorityDisinherit+0xa>
 8002626:	2000      	movs	r0, #0
 8002628:	bdf8      	pop	{r3, r4, r5, r6, r7, pc}
 800262a:	4b22      	ldr	r3, [pc, #136]	; (80026b4 <xTaskPriorityDisinherit+0x94>)
 800262c:	681b      	ldr	r3, [r3, #0]
 800262e:	4283      	cmp	r3, r0
 8002630:	d008      	beq.n	8002644 <xTaskPriorityDisinherit+0x24>
 8002632:	f04f 0350 	mov.w	r3, #80	; 0x50
 8002636:	f383 8811 	msr	BASEPRI, r3
 800263a:	f3bf 8f6f 	isb	sy
 800263e:	f3bf 8f4f 	dsb	sy
 8002642:	e7fe      	b.n	8002642 <xTaskPriorityDisinherit+0x22>
 8002644:	6c9b      	ldr	r3, [r3, #72]	; 0x48
 8002646:	b943      	cbnz	r3, 800265a <xTaskPriorityDisinherit+0x3a>
 8002648:	f04f 0350 	mov.w	r3, #80	; 0x50
 800264c:	f383 8811 	msr	BASEPRI, r3
 8002650:	f3bf 8f6f 	isb	sy
 8002654:	f3bf 8f4f 	dsb	sy
 8002658:	e7fe      	b.n	8002658 <xTaskPriorityDisinherit+0x38>
 800265a:	6ac1      	ldr	r1, [r0, #44]	; 0x2c
 800265c:	6c42      	ldr	r2, [r0, #68]	; 0x44
 800265e:	3b01      	subs	r3, #1
 8002660:	4291      	cmp	r1, r2
 8002662:	6483      	str	r3, [r0, #72]	; 0x48
 8002664:	d0df      	beq.n	8002626 <xTaskPriorityDisinherit+0x6>
 8002666:	2b00      	cmp	r3, #0
 8002668:	d1dd      	bne.n	8002626 <xTaskPriorityDisinherit+0x6>
 800266a:	1d06      	adds	r6, r0, #4
 800266c:	4630      	mov	r0, r6
 800266e:	f7ff f824 	bl	80016ba <uxListRemove>
 8002672:	4f11      	ldr	r7, [pc, #68]	; (80026b8 <xTaskPriorityDisinherit+0x98>)
 8002674:	4a11      	ldr	r2, [pc, #68]	; (80026bc <xTaskPriorityDisinherit+0x9c>)
 8002676:	b950      	cbnz	r0, 800268e <xTaskPriorityDisinherit+0x6e>
 8002678:	2114      	movs	r1, #20
 800267a:	6ae0      	ldr	r0, [r4, #44]	; 0x2c
 800267c:	4341      	muls	r1, r0
 800267e:	587b      	ldr	r3, [r7, r1]
 8002680:	b92b      	cbnz	r3, 800268e <xTaskPriorityDisinherit+0x6e>
 8002682:	2501      	movs	r5, #1
 8002684:	6813      	ldr	r3, [r2, #0]
 8002686:	4085      	lsls	r5, r0
 8002688:	ea23 0305 	bic.w	r3, r3, r5
 800268c:	6013      	str	r3, [r2, #0]
 800268e:	6c63      	ldr	r3, [r4, #68]	; 0x44
 8002690:	2014      	movs	r0, #20
 8002692:	f1c3 0107 	rsb	r1, r3, #7
 8002696:	61a1      	str	r1, [r4, #24]
 8002698:	62e3      	str	r3, [r4, #44]	; 0x2c
 800269a:	2401      	movs	r4, #1
 800269c:	6811      	ldr	r1, [r2, #0]
 800269e:	fa04 f503 	lsl.w	r5, r4, r3
 80026a2:	fb00 7003 	mla	r0, r0, r3, r7
 80026a6:	430d      	orrs	r5, r1
 80026a8:	4631      	mov	r1, r6
 80026aa:	6015      	str	r5, [r2, #0]
 80026ac:	f7fe ffe2 	bl	8001674 <vListInsertEnd>
 80026b0:	4620      	mov	r0, r4
 80026b2:	e7b9      	b.n	8002628 <xTaskPriorityDisinherit+0x8>
 80026b4:	200003f0 	.word	0x200003f0
 80026b8:	200003fc 	.word	0x200003fc
 80026bc:	2000049c 	.word	0x2000049c

080026c0 <prvPortStartFirstTask>:
 80026c0:	4806      	ldr	r0, [pc, #24]	; (80026dc <prvPortStartFirstTask+0x1c>)
 80026c2:	6800      	ldr	r0, [r0, #0]
 80026c4:	6800      	ldr	r0, [r0, #0]
 80026c6:	f380 8808 	msr	MSP, r0
 80026ca:	b662      	cpsie	i
 80026cc:	b661      	cpsie	f
 80026ce:	f3bf 8f4f 	dsb	sy
 80026d2:	f3bf 8f6f 	isb	sy
 80026d6:	df00      	svc	0
 80026d8:	bf00      	nop
 80026da:	0000      	.short	0x0000
 80026dc:	e000ed08 	.word	0xe000ed08

080026e0 <prvTaskExitError>:
 80026e0:	2300      	movs	r3, #0
 80026e2:	b082      	sub	sp, #8
 80026e4:	9301      	str	r3, [sp, #4]
 80026e6:	4b0d      	ldr	r3, [pc, #52]	; (800271c <prvTaskExitError+0x3c>)
 80026e8:	681b      	ldr	r3, [r3, #0]
 80026ea:	3301      	adds	r3, #1
 80026ec:	d008      	beq.n	8002700 <prvTaskExitError+0x20>
 80026ee:	f04f 0350 	mov.w	r3, #80	; 0x50
 80026f2:	f383 8811 	msr	BASEPRI, r3
 80026f6:	f3bf 8f6f 	isb	sy
 80026fa:	f3bf 8f4f 	dsb	sy
 80026fe:	e7fe      	b.n	80026fe <prvTaskExitError+0x1e>
 8002700:	f04f 0350 	mov.w	r3, #80	; 0x50
 8002704:	f383 8811 	msr	BASEPRI, r3
 8002708:	f3bf 8f6f 	isb	sy
 800270c:	f3bf 8f4f 	dsb	sy
 8002710:	9b01      	ldr	r3, [sp, #4]
 8002712:	2b00      	cmp	r3, #0
 8002714:	d0fc      	beq.n	8002710 <prvTaskExitError+0x30>
 8002716:	b002      	add	sp, #8
 8002718:	4770      	bx	lr
 800271a:	bf00      	nop
 800271c:	2000000c 	.word	0x2000000c

08002720 <pxPortInitialiseStack>:
 8002720:	f04f 7380 	mov.w	r3, #16777216	; 0x1000000
 8002724:	f840 3c04 	str.w	r3, [r0, #-4]
 8002728:	4b05      	ldr	r3, [pc, #20]	; (8002740 <pxPortInitialiseStack+0x20>)
 800272a:	f021 0101 	bic.w	r1, r1, #1
 800272e:	f840 1c08 	str.w	r1, [r0, #-8]
 8002732:	f840 3c0c 	str.w	r3, [r0, #-12]
 8002736:	f840 2c20 	str.w	r2, [r0, #-32]
 800273a:	3840      	subs	r0, #64	; 0x40
 800273c:	4770      	bx	lr
 800273e:	bf00      	nop
 8002740:	080026e1 	.word	0x080026e1
	...

08002750 <SVC_Handler>:
 8002750:	4b07      	ldr	r3, [pc, #28]	; (8002770 <pxCurrentTCBConst2>)
 8002752:	6819      	ldr	r1, [r3, #0]
 8002754:	6808      	ldr	r0, [r1, #0]
 8002756:	e8b0 0ff0 	ldmia.w	r0!, {r4, r5, r6, r7, r8, r9, sl, fp}
 800275a:	f380 8809 	msr	PSP, r0
 800275e:	f3bf 8f6f 	isb	sy
 8002762:	f04f 0000 	mov.w	r0, #0
 8002766:	f380 8811 	msr	BASEPRI, r0
 800276a:	f04e 0e0d 	orr.w	lr, lr, #13
 800276e:	4770      	bx	lr

08002770 <pxCurrentTCBConst2>:
 8002770:	200003f0 	.word	0x200003f0

08002774 <vPortEnterCritical>:
 8002774:	f04f 0350 	mov.w	r3, #80	; 0x50
 8002778:	f383 8811 	msr	BASEPRI, r3
 800277c:	f3bf 8f6f 	isb	sy
 8002780:	f3bf 8f4f 	dsb	sy
 8002784:	4a0a      	ldr	r2, [pc, #40]	; (80027b0 <vPortEnterCritical+0x3c>)
 8002786:	6813      	ldr	r3, [r2, #0]
 8002788:	3301      	adds	r3, #1
 800278a:	2b01      	cmp	r3, #1
 800278c:	6013      	str	r3, [r2, #0]
 800278e:	d10e      	bne.n	80027ae <vPortEnterCritical+0x3a>
 8002790:	f04f 23e0 	mov.w	r3, #3758153728	; 0xe000e000
 8002794:	f8d3 3d04 	ldr.w	r3, [r3, #3332]	; 0xd04
 8002798:	b2db      	uxtb	r3, r3
 800279a:	b143      	cbz	r3, 80027ae <vPortEnterCritical+0x3a>
 800279c:	f04f 0350 	mov.w	r3, #80	; 0x50
 80027a0:	f383 8811 	msr	BASEPRI, r3
 80027a4:	f3bf 8f6f 	isb	sy
 80027a8:	f3bf 8f4f 	dsb	sy
 80027ac:	e7fe      	b.n	80027ac <vPortEnterCritical+0x38>
 80027ae:	4770      	bx	lr
 80027b0:	2000000c 	.word	0x2000000c

080027b4 <vPortExitCritical>:
 80027b4:	4a08      	ldr	r2, [pc, #32]	; (80027d8 <vPortExitCritical+0x24>)
 80027b6:	6813      	ldr	r3, [r2, #0]
 80027b8:	b943      	cbnz	r3, 80027cc <vPortExitCritical+0x18>
 80027ba:	f04f 0350 	mov.w	r3, #80	; 0x50
 80027be:	f383 8811 	msr	BASEPRI, r3
 80027c2:	f3bf 8f6f 	isb	sy
 80027c6:	f3bf 8f4f 	dsb	sy
 80027ca:	e7fe      	b.n	80027ca <vPortExitCritical+0x16>
 80027cc:	3b01      	subs	r3, #1
 80027ce:	6013      	str	r3, [r2, #0]
 80027d0:	b90b      	cbnz	r3, 80027d6 <vPortExitCritical+0x22>
 80027d2:	f383 8811 	msr	BASEPRI, r3
 80027d6:	4770      	bx	lr
 80027d8:	2000000c 	.word	0x2000000c
 80027dc:	00000000 	.word	0x00000000

080027e0 <PendSV_Handler>:
 80027e0:	f3ef 8009 	mrs	r0, PSP
 80027e4:	f3bf 8f6f 	isb	sy
 80027e8:	4b0d      	ldr	r3, [pc, #52]	; (8002820 <pxCurrentTCBConst>)
 80027ea:	681a      	ldr	r2, [r3, #0]
 80027ec:	e920 0ff0 	stmdb	r0!, {r4, r5, r6, r7, r8, r9, sl, fp}
 80027f0:	6010      	str	r0, [r2, #0]
 80027f2:	e92d 4008 	stmdb	sp!, {r3, lr}
 80027f6:	f04f 0050 	mov.w	r0, #80	; 0x50
 80027fa:	f380 8811 	msr	BASEPRI, r0
 80027fe:	f7ff fe13 	bl	8002428 <vTaskSwitchContext>
 8002802:	f04f 0000 	mov.w	r0, #0
 8002806:	f380 8811 	msr	BASEPRI, r0
 800280a:	e8bd 4008 	ldmia.w	sp!, {r3, lr}
 800280e:	6819      	ldr	r1, [r3, #0]
 8002810:	6808      	ldr	r0, [r1, #0]
 8002812:	e8b0 0ff0 	ldmia.w	r0!, {r4, r5, r6, r7, r8, r9, sl, fp}
 8002816:	f380 8809 	msr	PSP, r0
 800281a:	f3bf 8f6f 	isb	sy
 800281e:	4770      	bx	lr

08002820 <pxCurrentTCBConst>:
 8002820:	200003f0 	.word	0x200003f0

08002824 <SysTick_Handler>:
 8002824:	b508      	push	{r3, lr}
 8002826:	f04f 0350 	mov.w	r3, #80	; 0x50
 800282a:	f383 8811 	msr	BASEPRI, r3
 800282e:	f3bf 8f6f 	isb	sy
 8002832:	f3bf 8f4f 	dsb	sy
 8002836:	f7ff fcef 	bl	8002218 <xTaskIncrementTick>
 800283a:	b128      	cbz	r0, 8002848 <SysTick_Handler+0x24>
 800283c:	f04f 23e0 	mov.w	r3, #3758153728	; 0xe000e000
 8002840:	f04f 5280 	mov.w	r2, #268435456	; 0x10000000
 8002844:	f8c3 2d04 	str.w	r2, [r3, #3332]	; 0xd04
 8002848:	2300      	movs	r3, #0
 800284a:	f383 8811 	msr	BASEPRI, r3
 800284e:	bd08      	pop	{r3, pc}

08002850 <vPortSetupTimerInterrupt>:
 8002850:	f04f 22e0 	mov.w	r2, #3758153728	; 0xe000e000
 8002854:	2300      	movs	r3, #0
 8002856:	f44f 717a 	mov.w	r1, #1000	; 0x3e8
 800285a:	6113      	str	r3, [r2, #16]
 800285c:	6193      	str	r3, [r2, #24]
 800285e:	4b04      	ldr	r3, [pc, #16]	; (8002870 <vPortSetupTimerInterrupt+0x20>)
 8002860:	681b      	ldr	r3, [r3, #0]
 8002862:	fbb3 f3f1 	udiv	r3, r3, r1
 8002866:	3b01      	subs	r3, #1
 8002868:	6153      	str	r3, [r2, #20]
 800286a:	2307      	movs	r3, #7
 800286c:	6113      	str	r3, [r2, #16]
 800286e:	4770      	bx	lr
 8002870:	20000000 	.word	0x20000000

08002874 <xPortStartScheduler>:
 8002874:	b513      	push	{r0, r1, r4, lr}
 8002876:	4b29      	ldr	r3, [pc, #164]	; (800291c <xPortStartScheduler+0xa8>)
 8002878:	2100      	movs	r1, #0
 800287a:	781a      	ldrb	r2, [r3, #0]
 800287c:	b2d2      	uxtb	r2, r2
 800287e:	9201      	str	r2, [sp, #4]
 8002880:	22ff      	movs	r2, #255	; 0xff
 8002882:	701a      	strb	r2, [r3, #0]
 8002884:	781b      	ldrb	r3, [r3, #0]
 8002886:	4a26      	ldr	r2, [pc, #152]	; (8002920 <xPortStartScheduler+0xac>)
 8002888:	b2db      	uxtb	r3, r3
 800288a:	f88d 3003 	strb.w	r3, [sp, #3]
 800288e:	f89d 3003 	ldrb.w	r3, [sp, #3]
 8002892:	f003 0350 	and.w	r3, r3, #80	; 0x50
 8002896:	7013      	strb	r3, [r2, #0]
 8002898:	2307      	movs	r3, #7
 800289a:	4a22      	ldr	r2, [pc, #136]	; (8002924 <xPortStartScheduler+0xb0>)
 800289c:	6013      	str	r3, [r2, #0]
 800289e:	f89d 0003 	ldrb.w	r0, [sp, #3]
 80028a2:	1e5c      	subs	r4, r3, #1
 80028a4:	0600      	lsls	r0, r0, #24
 80028a6:	d40c      	bmi.n	80028c2 <xPortStartScheduler+0x4e>
 80028a8:	b111      	cbz	r1, 80028b0 <xPortStartScheduler+0x3c>
 80028aa:	2b03      	cmp	r3, #3
 80028ac:	6013      	str	r3, [r2, #0]
 80028ae:	d011      	beq.n	80028d4 <xPortStartScheduler+0x60>
 80028b0:	f04f 0350 	mov.w	r3, #80	; 0x50
 80028b4:	f383 8811 	msr	BASEPRI, r3
 80028b8:	f3bf 8f6f 	isb	sy
 80028bc:	f3bf 8f4f 	dsb	sy
 80028c0:	e7fe      	b.n	80028c0 <xPortStartScheduler+0x4c>
 80028c2:	f89d 3003 	ldrb.w	r3, [sp, #3]
 80028c6:	2101      	movs	r1, #1
 80028c8:	005b      	lsls	r3, r3, #1
 80028ca:	b2db      	uxtb	r3, r3
 80028cc:	f88d 3003 	strb.w	r3, [sp, #3]
 80028d0:	4623      	mov	r3, r4
 80028d2:	e7e4      	b.n	800289e <xPortStartScheduler+0x2a>
 80028d4:	f44f 7340 	mov.w	r3, #768	; 0x300
 80028d8:	6013      	str	r3, [r2, #0]
 80028da:	9b01      	ldr	r3, [sp, #4]
 80028dc:	4a0f      	ldr	r2, [pc, #60]	; (800291c <xPortStartScheduler+0xa8>)
 80028de:	b2db      	uxtb	r3, r3
 80028e0:	7013      	strb	r3, [r2, #0]
 80028e2:	f04f 23e0 	mov.w	r3, #3758153728	; 0xe000e000
 80028e6:	2400      	movs	r4, #0
 80028e8:	f8d3 2d20 	ldr.w	r2, [r3, #3360]	; 0xd20
 80028ec:	f442 0270 	orr.w	r2, r2, #15728640	; 0xf00000
 80028f0:	f8c3 2d20 	str.w	r2, [r3, #3360]	; 0xd20
 80028f4:	f8d3 2d20 	ldr.w	r2, [r3, #3360]	; 0xd20
 80028f8:	f042 4270 	orr.w	r2, r2, #4026531840	; 0xf0000000
 80028fc:	f8c3 2d20 	str.w	r2, [r3, #3360]	; 0xd20
 8002900:	f7ff ffa6 	bl	8002850 <vPortSetupTimerInterrupt>
 8002904:	4b08      	ldr	r3, [pc, #32]	; (8002928 <xPortStartScheduler+0xb4>)
 8002906:	601c      	str	r4, [r3, #0]
 8002908:	f7ff feda 	bl	80026c0 <prvPortStartFirstTask>
 800290c:	f7ff fd8c 	bl	8002428 <vTaskSwitchContext>
 8002910:	4620      	mov	r0, r4
 8002912:	f7ff fee5 	bl	80026e0 <prvTaskExitError>
 8002916:	b002      	add	sp, #8
 8002918:	bd10      	pop	{r4, pc}
 800291a:	bf00      	nop
 800291c:	e000e400 	.word	0xe000e400
 8002920:	20000518 	.word	0x20000518
 8002924:	2000051c 	.word	0x2000051c
 8002928:	2000000c 	.word	0x2000000c

0800292c <vPortValidateInterruptPriority>:
 800292c:	f3ef 8305 	mrs	r3, IPSR
 8002930:	2b0f      	cmp	r3, #15
 8002932:	d90e      	bls.n	8002952 <vPortValidateInterruptPriority+0x26>
 8002934:	4a11      	ldr	r2, [pc, #68]	; (800297c <vPortValidateInterruptPriority+0x50>)
 8002936:	5c9b      	ldrb	r3, [r3, r2]
 8002938:	4a11      	ldr	r2, [pc, #68]	; (8002980 <vPortValidateInterruptPriority+0x54>)
 800293a:	7812      	ldrb	r2, [r2, #0]
 800293c:	429a      	cmp	r2, r3
 800293e:	d908      	bls.n	8002952 <vPortValidateInterruptPriority+0x26>
 8002940:	f04f 0350 	mov.w	r3, #80	; 0x50
 8002944:	f383 8811 	msr	BASEPRI, r3
 8002948:	f3bf 8f6f 	isb	sy
 800294c:	f3bf 8f4f 	dsb	sy
 8002950:	e7fe      	b.n	8002950 <vPortValidateInterruptPriority+0x24>
 8002952:	f04f 23e0 	mov.w	r3, #3758153728	; 0xe000e000
 8002956:	4a0b      	ldr	r2, [pc, #44]	; (8002984 <vPortValidateInterruptPriority+0x58>)
 8002958:	f8d3 3d0c 	ldr.w	r3, [r3, #3340]	; 0xd0c
 800295c:	6812      	ldr	r2, [r2, #0]
 800295e:	f403 63e0 	and.w	r3, r3, #1792	; 0x700
 8002962:	4293      	cmp	r3, r2
 8002964:	d908      	bls.n	8002978 <vPortValidateInterruptPriority+0x4c>
 8002966:	f04f 0350 	mov.w	r3, #80	; 0x50
 800296a:	f383 8811 	msr	BASEPRI, r3
 800296e:	f3bf 8f6f 	isb	sy
 8002972:	f3bf 8f4f 	dsb	sy
 8002976:	e7fe      	b.n	8002976 <vPortValidateInterruptPriority+0x4a>
 8002978:	4770      	bx	lr
 800297a:	bf00      	nop
 800297c:	e000e3f0 	.word	0xe000e3f0
 8002980:	20000518 	.word	0x20000518
 8002984:	2000051c 	.word	0x2000051c

08002988 <prvInsertBlockIntoFreeList>:
 8002988:	b510      	push	{r4, lr}
 800298a:	4b0f      	ldr	r3, [pc, #60]	; (80029c8 <prvInsertBlockIntoFreeList+0x40>)
 800298c:	461a      	mov	r2, r3
 800298e:	681b      	ldr	r3, [r3, #0]
 8002990:	4283      	cmp	r3, r0
 8002992:	d3fb      	bcc.n	800298c <prvInsertBlockIntoFreeList+0x4>
 8002994:	6854      	ldr	r4, [r2, #4]
 8002996:	1911      	adds	r1, r2, r4
 8002998:	4288      	cmp	r0, r1
 800299a:	bf01      	itttt	eq
 800299c:	6841      	ldreq	r1, [r0, #4]
 800299e:	4610      	moveq	r0, r2
 80029a0:	1909      	addeq	r1, r1, r4
 80029a2:	6051      	streq	r1, [r2, #4]
 80029a4:	6844      	ldr	r4, [r0, #4]
 80029a6:	1901      	adds	r1, r0, r4
 80029a8:	428b      	cmp	r3, r1
 80029aa:	d107      	bne.n	80029bc <prvInsertBlockIntoFreeList+0x34>
 80029ac:	4907      	ldr	r1, [pc, #28]	; (80029cc <prvInsertBlockIntoFreeList+0x44>)
 80029ae:	6809      	ldr	r1, [r1, #0]
 80029b0:	428b      	cmp	r3, r1
 80029b2:	bf1f      	itttt	ne
 80029b4:	6859      	ldrne	r1, [r3, #4]
 80029b6:	681b      	ldrne	r3, [r3, #0]
 80029b8:	1909      	addne	r1, r1, r4
 80029ba:	6041      	strne	r1, [r0, #4]
 80029bc:	4290      	cmp	r0, r2
 80029be:	6003      	str	r3, [r0, #0]
 80029c0:	bf18      	it	ne
 80029c2:	6010      	strne	r0, [r2, #0]
 80029c4:	bd10      	pop	{r4, pc}
 80029c6:	bf00      	nop
 80029c8:	20001130 	.word	0x20001130
 80029cc:	20000520 	.word	0x20000520

080029d0 <pvPortMalloc>:
 80029d0:	e92d 41f0 	stmdb	sp!, {r4, r5, r6, r7, r8, lr}
 80029d4:	4604      	mov	r4, r0
 80029d6:	f7ff fc17 	bl	8002208 <vTaskSuspendAll>
 80029da:	483f      	ldr	r0, [pc, #252]	; (8002ad8 <pvPortMalloc+0x108>)
 80029dc:	4d3f      	ldr	r5, [pc, #252]	; (8002adc <pvPortMalloc+0x10c>)
 80029de:	6803      	ldr	r3, [r0, #0]
 80029e0:	bb0b      	cbnz	r3, 8002a26 <pvPortMalloc+0x56>
 80029e2:	493f      	ldr	r1, [pc, #252]	; (8002ae0 <pvPortMalloc+0x110>)
 80029e4:	074e      	lsls	r6, r1, #29
 80029e6:	bf1d      	ittte	ne
 80029e8:	1dcb      	addne	r3, r1, #7
 80029ea:	f023 0307 	bicne.w	r3, r3, #7
 80029ee:	f501 6240 	addne.w	r2, r1, #3072	; 0xc00
 80029f2:	f44f 6240 	moveq.w	r2, #3072	; 0xc00
 80029f6:	bf1c      	itt	ne
 80029f8:	4619      	movne	r1, r3
 80029fa:	1ad2      	subne	r2, r2, r3
 80029fc:	2300      	movs	r3, #0
 80029fe:	440a      	add	r2, r1
 8002a00:	4e38      	ldr	r6, [pc, #224]	; (8002ae4 <pvPortMalloc+0x114>)
 8002a02:	3a08      	subs	r2, #8
 8002a04:	f022 0207 	bic.w	r2, r2, #7
 8002a08:	6073      	str	r3, [r6, #4]
 8002a0a:	6031      	str	r1, [r6, #0]
 8002a0c:	e9c2 3300 	strd	r3, r3, [r2]
 8002a10:	1a53      	subs	r3, r2, r1
 8002a12:	e9c1 2300 	strd	r2, r3, [r1]
 8002a16:	6002      	str	r2, [r0, #0]
 8002a18:	4a33      	ldr	r2, [pc, #204]	; (8002ae8 <pvPortMalloc+0x118>)
 8002a1a:	6013      	str	r3, [r2, #0]
 8002a1c:	4a33      	ldr	r2, [pc, #204]	; (8002aec <pvPortMalloc+0x11c>)
 8002a1e:	6013      	str	r3, [r2, #0]
 8002a20:	f04f 4300 	mov.w	r3, #2147483648	; 0x80000000
 8002a24:	602b      	str	r3, [r5, #0]
 8002a26:	682f      	ldr	r7, [r5, #0]
 8002a28:	4227      	tst	r7, r4
 8002a2a:	d150      	bne.n	8002ace <pvPortMalloc+0xfe>
 8002a2c:	2c00      	cmp	r4, #0
 8002a2e:	d041      	beq.n	8002ab4 <pvPortMalloc+0xe4>
 8002a30:	f104 0308 	add.w	r3, r4, #8
 8002a34:	0761      	lsls	r1, r4, #29
 8002a36:	bf1c      	itt	ne
 8002a38:	f023 0307 	bicne.w	r3, r3, #7
 8002a3c:	3308      	addne	r3, #8
 8002a3e:	2b00      	cmp	r3, #0
 8002a40:	d045      	beq.n	8002ace <pvPortMalloc+0xfe>
 8002a42:	4c2a      	ldr	r4, [pc, #168]	; (8002aec <pvPortMalloc+0x11c>)
 8002a44:	6826      	ldr	r6, [r4, #0]
 8002a46:	429e      	cmp	r6, r3
 8002a48:	d341      	bcc.n	8002ace <pvPortMalloc+0xfe>
 8002a4a:	4a26      	ldr	r2, [pc, #152]	; (8002ae4 <pvPortMalloc+0x114>)
 8002a4c:	6815      	ldr	r5, [r2, #0]
 8002a4e:	6869      	ldr	r1, [r5, #4]
 8002a50:	4299      	cmp	r1, r3
 8002a52:	d204      	bcs.n	8002a5e <pvPortMalloc+0x8e>
 8002a54:	f8d5 c000 	ldr.w	ip, [r5]
 8002a58:	f1bc 0f00 	cmp.w	ip, #0
 8002a5c:	d115      	bne.n	8002a8a <pvPortMalloc+0xba>
 8002a5e:	6800      	ldr	r0, [r0, #0]
 8002a60:	42a8      	cmp	r0, r5
 8002a62:	d034      	beq.n	8002ace <pvPortMalloc+0xfe>
 8002a64:	6828      	ldr	r0, [r5, #0]
 8002a66:	1ac9      	subs	r1, r1, r3
 8002a68:	2910      	cmp	r1, #16
 8002a6a:	f8d2 8000 	ldr.w	r8, [r2]
 8002a6e:	6010      	str	r0, [r2, #0]
 8002a70:	d912      	bls.n	8002a98 <pvPortMalloc+0xc8>
 8002a72:	18e8      	adds	r0, r5, r3
 8002a74:	0742      	lsls	r2, r0, #29
 8002a76:	d00b      	beq.n	8002a90 <pvPortMalloc+0xc0>
 8002a78:	f04f 0350 	mov.w	r3, #80	; 0x50
 8002a7c:	f383 8811 	msr	BASEPRI, r3
 8002a80:	f3bf 8f6f 	isb	sy
 8002a84:	f3bf 8f4f 	dsb	sy
 8002a88:	e7fe      	b.n	8002a88 <pvPortMalloc+0xb8>
 8002a8a:	462a      	mov	r2, r5
 8002a8c:	4665      	mov	r5, ip
 8002a8e:	e7de      	b.n	8002a4e <pvPortMalloc+0x7e>
 8002a90:	6041      	str	r1, [r0, #4]
 8002a92:	606b      	str	r3, [r5, #4]
 8002a94:	f7ff ff78 	bl	8002988 <prvInsertBlockIntoFreeList>
 8002a98:	686b      	ldr	r3, [r5, #4]
 8002a9a:	4913      	ldr	r1, [pc, #76]	; (8002ae8 <pvPortMalloc+0x118>)
 8002a9c:	1af6      	subs	r6, r6, r3
 8002a9e:	431f      	orrs	r7, r3
 8002aa0:	2300      	movs	r3, #0
 8002aa2:	6808      	ldr	r0, [r1, #0]
 8002aa4:	6026      	str	r6, [r4, #0]
 8002aa6:	4286      	cmp	r6, r0
 8002aa8:	bf38      	it	cc
 8002aaa:	600e      	strcc	r6, [r1, #0]
 8002aac:	f108 0408 	add.w	r4, r8, #8
 8002ab0:	606f      	str	r7, [r5, #4]
 8002ab2:	602b      	str	r3, [r5, #0]
 8002ab4:	f7ff fc42 	bl	800233c <xTaskResumeAll>
 8002ab8:	0763      	lsls	r3, r4, #29
 8002aba:	d00a      	beq.n	8002ad2 <pvPortMalloc+0x102>
 8002abc:	f04f 0350 	mov.w	r3, #80	; 0x50
 8002ac0:	f383 8811 	msr	BASEPRI, r3
 8002ac4:	f3bf 8f6f 	isb	sy
 8002ac8:	f3bf 8f4f 	dsb	sy
 8002acc:	e7fe      	b.n	8002acc <pvPortMalloc+0xfc>
 8002ace:	2400      	movs	r4, #0
 8002ad0:	e7f0      	b.n	8002ab4 <pvPortMalloc+0xe4>
 8002ad2:	4620      	mov	r0, r4
 8002ad4:	e8bd 81f0 	ldmia.w	sp!, {r4, r5, r6, r7, r8, pc}
 8002ad8:	20000520 	.word	0x20000520
 8002adc:	20001124 	.word	0x20001124
 8002ae0:	20000524 	.word	0x20000524
 8002ae4:	20001130 	.word	0x20001130
 8002ae8:	2000112c 	.word	0x2000112c
 8002aec:	20001128 	.word	0x20001128

08002af0 <vPortFree>:
 8002af0:	b510      	push	{r4, lr}
 8002af2:	4604      	mov	r4, r0
 8002af4:	b370      	cbz	r0, 8002b54 <vPortFree+0x64>
 8002af6:	4a18      	ldr	r2, [pc, #96]	; (8002b58 <vPortFree+0x68>)
 8002af8:	f850 3c04 	ldr.w	r3, [r0, #-4]
 8002afc:	6812      	ldr	r2, [r2, #0]
 8002afe:	4213      	tst	r3, r2
 8002b00:	d108      	bne.n	8002b14 <vPortFree+0x24>
 8002b02:	f04f 0350 	mov.w	r3, #80	; 0x50
 8002b06:	f383 8811 	msr	BASEPRI, r3
 8002b0a:	f3bf 8f6f 	isb	sy
 8002b0e:	f3bf 8f4f 	dsb	sy
 8002b12:	e7fe      	b.n	8002b12 <vPortFree+0x22>
 8002b14:	f850 1c08 	ldr.w	r1, [r0, #-8]
 8002b18:	b141      	cbz	r1, 8002b2c <vPortFree+0x3c>
 8002b1a:	f04f 0350 	mov.w	r3, #80	; 0x50
 8002b1e:	f383 8811 	msr	BASEPRI, r3
 8002b22:	f3bf 8f6f 	isb	sy
 8002b26:	f3bf 8f4f 	dsb	sy
 8002b2a:	e7fe      	b.n	8002b2a <vPortFree+0x3a>
 8002b2c:	ea23 0302 	bic.w	r3, r3, r2
 8002b30:	f840 3c04 	str.w	r3, [r0, #-4]
 8002b34:	f7ff fb68 	bl	8002208 <vTaskSuspendAll>
 8002b38:	4a08      	ldr	r2, [pc, #32]	; (8002b5c <vPortFree+0x6c>)
 8002b3a:	f854 3c04 	ldr.w	r3, [r4, #-4]
 8002b3e:	6811      	ldr	r1, [r2, #0]
 8002b40:	f1a4 0008 	sub.w	r0, r4, #8
 8002b44:	440b      	add	r3, r1
 8002b46:	6013      	str	r3, [r2, #0]
 8002b48:	f7ff ff1e 	bl	8002988 <prvInsertBlockIntoFreeList>
 8002b4c:	e8bd 4010 	ldmia.w	sp!, {r4, lr}
 8002b50:	f7ff bbf4 	b.w	800233c <xTaskResumeAll>
 8002b54:	bd10      	pop	{r4, pc}
 8002b56:	bf00      	nop
 8002b58:	20001124 	.word	0x20001124
 8002b5c:	20001128 	.word	0x20001128

08002b60 <__errno>:
 8002b60:	4b01      	ldr	r3, [pc, #4]	; (8002b68 <__errno+0x8>)
 8002b62:	6818      	ldr	r0, [r3, #0]
 8002b64:	4770      	bx	lr
 8002b66:	bf00      	nop
 8002b68:	20000010 	.word	0x20000010

08002b6c <__libc_init_array>:
 8002b6c:	b570      	push	{r4, r5, r6, lr}
 8002b6e:	2600      	movs	r6, #0
 8002b70:	4d0c      	ldr	r5, [pc, #48]	; (8002ba4 <__libc_init_array+0x38>)
 8002b72:	4c0d      	ldr	r4, [pc, #52]	; (8002ba8 <__libc_init_array+0x3c>)
 8002b74:	1b64      	subs	r4, r4, r5
 8002b76:	10a4      	asrs	r4, r4, #2
 8002b78:	42a6      	cmp	r6, r4
 8002b7a:	d109      	bne.n	8002b90 <__libc_init_array+0x24>
 8002b7c:	f000 fd06 	bl	800358c <_init>
 8002b80:	2600      	movs	r6, #0
 8002b82:	4d0a      	ldr	r5, [pc, #40]	; (8002bac <__libc_init_array+0x40>)
 8002b84:	4c0a      	ldr	r4, [pc, #40]	; (8002bb0 <__libc_init_array+0x44>)
 8002b86:	1b64      	subs	r4, r4, r5
 8002b88:	10a4      	asrs	r4, r4, #2
 8002b8a:	42a6      	cmp	r6, r4
 8002b8c:	d105      	bne.n	8002b9a <__libc_init_array+0x2e>
 8002b8e:	bd70      	pop	{r4, r5, r6, pc}
 8002b90:	f855 3b04 	ldr.w	r3, [r5], #4
 8002b94:	4798      	blx	r3
 8002b96:	3601      	adds	r6, #1
 8002b98:	e7ee      	b.n	8002b78 <__libc_init_array+0xc>
 8002b9a:	f855 3b04 	ldr.w	r3, [r5], #4
 8002b9e:	4798      	blx	r3
 8002ba0:	3601      	adds	r6, #1
 8002ba2:	e7f2      	b.n	8002b8a <__libc_init_array+0x1e>
 8002ba4:	080036e4 	.word	0x080036e4
 8002ba8:	080036e4 	.word	0x080036e4
 8002bac:	080036e4 	.word	0x080036e4
 8002bb0:	080036e8 	.word	0x080036e8

08002bb4 <__retarget_lock_acquire_recursive>:
 8002bb4:	4770      	bx	lr

08002bb6 <__retarget_lock_release_recursive>:
 8002bb6:	4770      	bx	lr

08002bb8 <memcpy>:
 8002bb8:	440a      	add	r2, r1
 8002bba:	4291      	cmp	r1, r2
 8002bbc:	f100 33ff 	add.w	r3, r0, #4294967295
 8002bc0:	d100      	bne.n	8002bc4 <memcpy+0xc>
 8002bc2:	4770      	bx	lr
 8002bc4:	b510      	push	{r4, lr}
 8002bc6:	f811 4b01 	ldrb.w	r4, [r1], #1
 8002bca:	4291      	cmp	r1, r2
 8002bcc:	f803 4f01 	strb.w	r4, [r3, #1]!
 8002bd0:	d1f9      	bne.n	8002bc6 <memcpy+0xe>
 8002bd2:	bd10      	pop	{r4, pc}

08002bd4 <memset>:
 8002bd4:	4603      	mov	r3, r0
 8002bd6:	4402      	add	r2, r0
 8002bd8:	4293      	cmp	r3, r2
 8002bda:	d100      	bne.n	8002bde <memset+0xa>
 8002bdc:	4770      	bx	lr
 8002bde:	f803 1b01 	strb.w	r1, [r3], #1
 8002be2:	e7f9      	b.n	8002bd8 <memset+0x4>

08002be4 <sbrk_aligned>:
 8002be4:	b570      	push	{r4, r5, r6, lr}
 8002be6:	4e0e      	ldr	r6, [pc, #56]	; (8002c20 <sbrk_aligned+0x3c>)
 8002be8:	460c      	mov	r4, r1
 8002bea:	6831      	ldr	r1, [r6, #0]
 8002bec:	4605      	mov	r5, r0
 8002bee:	b911      	cbnz	r1, 8002bf6 <sbrk_aligned+0x12>
 8002bf0:	f000 f8f6 	bl	8002de0 <_sbrk_r>
 8002bf4:	6030      	str	r0, [r6, #0]
 8002bf6:	4621      	mov	r1, r4
 8002bf8:	4628      	mov	r0, r5
 8002bfa:	f000 f8f1 	bl	8002de0 <_sbrk_r>
 8002bfe:	1c43      	adds	r3, r0, #1
 8002c00:	d00a      	beq.n	8002c18 <sbrk_aligned+0x34>
 8002c02:	1cc4      	adds	r4, r0, #3
 8002c04:	f024 0403 	bic.w	r4, r4, #3
 8002c08:	42a0      	cmp	r0, r4
 8002c0a:	d007      	beq.n	8002c1c <sbrk_aligned+0x38>
 8002c0c:	1a21      	subs	r1, r4, r0
 8002c0e:	4628      	mov	r0, r5
 8002c10:	f000 f8e6 	bl	8002de0 <_sbrk_r>
 8002c14:	3001      	adds	r0, #1
 8002c16:	d101      	bne.n	8002c1c <sbrk_aligned+0x38>
 8002c18:	f04f 34ff 	mov.w	r4, #4294967295
 8002c1c:	4620      	mov	r0, r4
 8002c1e:	bd70      	pop	{r4, r5, r6, pc}
 8002c20:	20001140 	.word	0x20001140

08002c24 <_malloc_r>:
 8002c24:	e92d 41f0 	stmdb	sp!, {r4, r5, r6, r7, r8, lr}
 8002c28:	1ccd      	adds	r5, r1, #3
 8002c2a:	f025 0503 	bic.w	r5, r5, #3
 8002c2e:	3508      	adds	r5, #8
 8002c30:	2d0c      	cmp	r5, #12
 8002c32:	bf38      	it	cc
 8002c34:	250c      	movcc	r5, #12
 8002c36:	2d00      	cmp	r5, #0
 8002c38:	4607      	mov	r7, r0
 8002c3a:	db01      	blt.n	8002c40 <_malloc_r+0x1c>
 8002c3c:	42a9      	cmp	r1, r5
 8002c3e:	d905      	bls.n	8002c4c <_malloc_r+0x28>
 8002c40:	230c      	movs	r3, #12
 8002c42:	2600      	movs	r6, #0
 8002c44:	603b      	str	r3, [r7, #0]
 8002c46:	4630      	mov	r0, r6
 8002c48:	e8bd 81f0 	ldmia.w	sp!, {r4, r5, r6, r7, r8, pc}
 8002c4c:	4e2e      	ldr	r6, [pc, #184]	; (8002d08 <_malloc_r+0xe4>)
 8002c4e:	f000 f8f7 	bl	8002e40 <__malloc_lock>
 8002c52:	6833      	ldr	r3, [r6, #0]
 8002c54:	461c      	mov	r4, r3
 8002c56:	bb34      	cbnz	r4, 8002ca6 <_malloc_r+0x82>
 8002c58:	4629      	mov	r1, r5
 8002c5a:	4638      	mov	r0, r7
 8002c5c:	f7ff ffc2 	bl	8002be4 <sbrk_aligned>
 8002c60:	1c43      	adds	r3, r0, #1
 8002c62:	4604      	mov	r4, r0
 8002c64:	d14d      	bne.n	8002d02 <_malloc_r+0xde>
 8002c66:	6834      	ldr	r4, [r6, #0]
 8002c68:	4626      	mov	r6, r4
 8002c6a:	2e00      	cmp	r6, #0
 8002c6c:	d140      	bne.n	8002cf0 <_malloc_r+0xcc>
 8002c6e:	6823      	ldr	r3, [r4, #0]
 8002c70:	4631      	mov	r1, r6
 8002c72:	4638      	mov	r0, r7
 8002c74:	eb04 0803 	add.w	r8, r4, r3
 8002c78:	f000 f8b2 	bl	8002de0 <_sbrk_r>
 8002c7c:	4580      	cmp	r8, r0
 8002c7e:	d13a      	bne.n	8002cf6 <_malloc_r+0xd2>
 8002c80:	6821      	ldr	r1, [r4, #0]
 8002c82:	3503      	adds	r5, #3
 8002c84:	1a6d      	subs	r5, r5, r1
 8002c86:	f025 0503 	bic.w	r5, r5, #3
 8002c8a:	3508      	adds	r5, #8
 8002c8c:	2d0c      	cmp	r5, #12
 8002c8e:	bf38      	it	cc
 8002c90:	250c      	movcc	r5, #12
 8002c92:	4638      	mov	r0, r7
 8002c94:	4629      	mov	r1, r5
 8002c96:	f7ff ffa5 	bl	8002be4 <sbrk_aligned>
 8002c9a:	3001      	adds	r0, #1
 8002c9c:	d02b      	beq.n	8002cf6 <_malloc_r+0xd2>
 8002c9e:	6823      	ldr	r3, [r4, #0]
 8002ca0:	442b      	add	r3, r5
 8002ca2:	6023      	str	r3, [r4, #0]
 8002ca4:	e00e      	b.n	8002cc4 <_malloc_r+0xa0>
 8002ca6:	6822      	ldr	r2, [r4, #0]
 8002ca8:	1b52      	subs	r2, r2, r5
 8002caa:	d41e      	bmi.n	8002cea <_malloc_r+0xc6>
 8002cac:	2a0b      	cmp	r2, #11
 8002cae:	d916      	bls.n	8002cde <_malloc_r+0xba>
 8002cb0:	1961      	adds	r1, r4, r5
 8002cb2:	42a3      	cmp	r3, r4
 8002cb4:	6025      	str	r5, [r4, #0]
 8002cb6:	bf18      	it	ne
 8002cb8:	6059      	strne	r1, [r3, #4]
 8002cba:	6863      	ldr	r3, [r4, #4]
 8002cbc:	bf08      	it	eq
 8002cbe:	6031      	streq	r1, [r6, #0]
 8002cc0:	5162      	str	r2, [r4, r5]
 8002cc2:	604b      	str	r3, [r1, #4]
 8002cc4:	4638      	mov	r0, r7
 8002cc6:	f104 060b 	add.w	r6, r4, #11
 8002cca:	f000 f8bf 	bl	8002e4c <__malloc_unlock>
 8002cce:	f026 0607 	bic.w	r6, r6, #7
 8002cd2:	1d23      	adds	r3, r4, #4
 8002cd4:	1af2      	subs	r2, r6, r3
 8002cd6:	d0b6      	beq.n	8002c46 <_malloc_r+0x22>
 8002cd8:	1b9b      	subs	r3, r3, r6
 8002cda:	50a3      	str	r3, [r4, r2]
 8002cdc:	e7b3      	b.n	8002c46 <_malloc_r+0x22>
 8002cde:	6862      	ldr	r2, [r4, #4]
 8002ce0:	42a3      	cmp	r3, r4
 8002ce2:	bf0c      	ite	eq
 8002ce4:	6032      	streq	r2, [r6, #0]
 8002ce6:	605a      	strne	r2, [r3, #4]
 8002ce8:	e7ec      	b.n	8002cc4 <_malloc_r+0xa0>
 8002cea:	4623      	mov	r3, r4
 8002cec:	6864      	ldr	r4, [r4, #4]
 8002cee:	e7b2      	b.n	8002c56 <_malloc_r+0x32>
 8002cf0:	4634      	mov	r4, r6
 8002cf2:	6876      	ldr	r6, [r6, #4]
 8002cf4:	e7b9      	b.n	8002c6a <_malloc_r+0x46>
 8002cf6:	230c      	movs	r3, #12
 8002cf8:	4638      	mov	r0, r7
 8002cfa:	603b      	str	r3, [r7, #0]
 8002cfc:	f000 f8a6 	bl	8002e4c <__malloc_unlock>
 8002d00:	e7a1      	b.n	8002c46 <_malloc_r+0x22>
 8002d02:	6025      	str	r5, [r4, #0]
 8002d04:	e7de      	b.n	8002cc4 <_malloc_r+0xa0>
 8002d06:	bf00      	nop
 8002d08:	2000113c 	.word	0x2000113c

08002d0c <cleanup_glue>:
 8002d0c:	b538      	push	{r3, r4, r5, lr}
 8002d0e:	460c      	mov	r4, r1
 8002d10:	6809      	ldr	r1, [r1, #0]
 8002d12:	4605      	mov	r5, r0
 8002d14:	b109      	cbz	r1, 8002d1a <cleanup_glue+0xe>
 8002d16:	f7ff fff9 	bl	8002d0c <cleanup_glue>
 8002d1a:	4621      	mov	r1, r4
 8002d1c:	4628      	mov	r0, r5
 8002d1e:	e8bd 4038 	ldmia.w	sp!, {r3, r4, r5, lr}
 8002d22:	f000 b899 	b.w	8002e58 <_free_r>
	...

08002d28 <_reclaim_reent>:
 8002d28:	4b2c      	ldr	r3, [pc, #176]	; (8002ddc <_reclaim_reent+0xb4>)
 8002d2a:	b570      	push	{r4, r5, r6, lr}
 8002d2c:	681b      	ldr	r3, [r3, #0]
 8002d2e:	4604      	mov	r4, r0
 8002d30:	4283      	cmp	r3, r0
 8002d32:	d051      	beq.n	8002dd8 <_reclaim_reent+0xb0>
 8002d34:	6a43      	ldr	r3, [r0, #36]	; 0x24
 8002d36:	b143      	cbz	r3, 8002d4a <_reclaim_reent+0x22>
 8002d38:	68db      	ldr	r3, [r3, #12]
 8002d3a:	2b00      	cmp	r3, #0
 8002d3c:	d14a      	bne.n	8002dd4 <_reclaim_reent+0xac>
 8002d3e:	6a63      	ldr	r3, [r4, #36]	; 0x24
 8002d40:	6819      	ldr	r1, [r3, #0]
 8002d42:	b111      	cbz	r1, 8002d4a <_reclaim_reent+0x22>
 8002d44:	4620      	mov	r0, r4
 8002d46:	f000 f887 	bl	8002e58 <_free_r>
 8002d4a:	6961      	ldr	r1, [r4, #20]
 8002d4c:	b111      	cbz	r1, 8002d54 <_reclaim_reent+0x2c>
 8002d4e:	4620      	mov	r0, r4
 8002d50:	f000 f882 	bl	8002e58 <_free_r>
 8002d54:	6a61      	ldr	r1, [r4, #36]	; 0x24
 8002d56:	b111      	cbz	r1, 8002d5e <_reclaim_reent+0x36>
 8002d58:	4620      	mov	r0, r4
 8002d5a:	f000 f87d 	bl	8002e58 <_free_r>
 8002d5e:	6ba1      	ldr	r1, [r4, #56]	; 0x38
 8002d60:	b111      	cbz	r1, 8002d68 <_reclaim_reent+0x40>
 8002d62:	4620      	mov	r0, r4
 8002d64:	f000 f878 	bl	8002e58 <_free_r>
 8002d68:	6be1      	ldr	r1, [r4, #60]	; 0x3c
 8002d6a:	b111      	cbz	r1, 8002d72 <_reclaim_reent+0x4a>
 8002d6c:	4620      	mov	r0, r4
 8002d6e:	f000 f873 	bl	8002e58 <_free_r>
 8002d72:	6c21      	ldr	r1, [r4, #64]	; 0x40
 8002d74:	b111      	cbz	r1, 8002d7c <_reclaim_reent+0x54>
 8002d76:	4620      	mov	r0, r4
 8002d78:	f000 f86e 	bl	8002e58 <_free_r>
 8002d7c:	6de1      	ldr	r1, [r4, #92]	; 0x5c
 8002d7e:	b111      	cbz	r1, 8002d86 <_reclaim_reent+0x5e>
 8002d80:	4620      	mov	r0, r4
 8002d82:	f000 f869 	bl	8002e58 <_free_r>
 8002d86:	6da1      	ldr	r1, [r4, #88]	; 0x58
 8002d88:	b111      	cbz	r1, 8002d90 <_reclaim_reent+0x68>
 8002d8a:	4620      	mov	r0, r4
 8002d8c:	f000 f864 	bl	8002e58 <_free_r>
 8002d90:	6b61      	ldr	r1, [r4, #52]	; 0x34
 8002d92:	b111      	cbz	r1, 8002d9a <_reclaim_reent+0x72>
 8002d94:	4620      	mov	r0, r4
 8002d96:	f000 f85f 	bl	8002e58 <_free_r>
 8002d9a:	69a3      	ldr	r3, [r4, #24]
 8002d9c:	b1e3      	cbz	r3, 8002dd8 <_reclaim_reent+0xb0>
 8002d9e:	4620      	mov	r0, r4
 8002da0:	6aa3      	ldr	r3, [r4, #40]	; 0x28
 8002da2:	4798      	blx	r3
 8002da4:	6ca1      	ldr	r1, [r4, #72]	; 0x48
 8002da6:	b1b9      	cbz	r1, 8002dd8 <_reclaim_reent+0xb0>
 8002da8:	4620      	mov	r0, r4
 8002daa:	e8bd 4070 	ldmia.w	sp!, {r4, r5, r6, lr}
 8002dae:	f7ff bfad 	b.w	8002d0c <cleanup_glue>
 8002db2:	5949      	ldr	r1, [r1, r5]
 8002db4:	b941      	cbnz	r1, 8002dc8 <_reclaim_reent+0xa0>
 8002db6:	3504      	adds	r5, #4
 8002db8:	6a63      	ldr	r3, [r4, #36]	; 0x24
 8002dba:	2d80      	cmp	r5, #128	; 0x80
 8002dbc:	68d9      	ldr	r1, [r3, #12]
 8002dbe:	d1f8      	bne.n	8002db2 <_reclaim_reent+0x8a>
 8002dc0:	4620      	mov	r0, r4
 8002dc2:	f000 f849 	bl	8002e58 <_free_r>
 8002dc6:	e7ba      	b.n	8002d3e <_reclaim_reent+0x16>
 8002dc8:	680e      	ldr	r6, [r1, #0]
 8002dca:	4620      	mov	r0, r4
 8002dcc:	f000 f844 	bl	8002e58 <_free_r>
 8002dd0:	4631      	mov	r1, r6
 8002dd2:	e7ef      	b.n	8002db4 <_reclaim_reent+0x8c>
 8002dd4:	2500      	movs	r5, #0
 8002dd6:	e7ef      	b.n	8002db8 <_reclaim_reent+0x90>
 8002dd8:	bd70      	pop	{r4, r5, r6, pc}
 8002dda:	bf00      	nop
 8002ddc:	20000010 	.word	0x20000010

08002de0 <_sbrk_r>:
 8002de0:	b538      	push	{r3, r4, r5, lr}
 8002de2:	2300      	movs	r3, #0
 8002de4:	4d05      	ldr	r5, [pc, #20]	; (8002dfc <_sbrk_r+0x1c>)
 8002de6:	4604      	mov	r4, r0
 8002de8:	4608      	mov	r0, r1
 8002dea:	602b      	str	r3, [r5, #0]
 8002dec:	f7fd fc0c 	bl	8000608 <_sbrk>
 8002df0:	1c43      	adds	r3, r0, #1
 8002df2:	d102      	bne.n	8002dfa <_sbrk_r+0x1a>
 8002df4:	682b      	ldr	r3, [r5, #0]
 8002df6:	b103      	cbz	r3, 8002dfa <_sbrk_r+0x1a>
 8002df8:	6023      	str	r3, [r4, #0]
 8002dfa:	bd38      	pop	{r3, r4, r5, pc}
 8002dfc:	20001144 	.word	0x20001144

08002e00 <siprintf>:
 8002e00:	b40e      	push	{r1, r2, r3}
 8002e02:	f06f 4100 	mvn.w	r1, #2147483648	; 0x80000000
 8002e06:	b500      	push	{lr}
 8002e08:	b09c      	sub	sp, #112	; 0x70
 8002e0a:	ab1d      	add	r3, sp, #116	; 0x74
 8002e0c:	9002      	str	r0, [sp, #8]
 8002e0e:	9006      	str	r0, [sp, #24]
 8002e10:	9107      	str	r1, [sp, #28]
 8002e12:	9104      	str	r1, [sp, #16]
 8002e14:	4808      	ldr	r0, [pc, #32]	; (8002e38 <siprintf+0x38>)
 8002e16:	4909      	ldr	r1, [pc, #36]	; (8002e3c <siprintf+0x3c>)
 8002e18:	f853 2b04 	ldr.w	r2, [r3], #4
 8002e1c:	9105      	str	r1, [sp, #20]
 8002e1e:	6800      	ldr	r0, [r0, #0]
 8002e20:	a902      	add	r1, sp, #8
 8002e22:	9301      	str	r3, [sp, #4]
 8002e24:	f000 f8bc 	bl	8002fa0 <_svfiprintf_r>
 8002e28:	2200      	movs	r2, #0
 8002e2a:	9b02      	ldr	r3, [sp, #8]
 8002e2c:	701a      	strb	r2, [r3, #0]
 8002e2e:	b01c      	add	sp, #112	; 0x70
 8002e30:	f85d eb04 	ldr.w	lr, [sp], #4
 8002e34:	b003      	add	sp, #12
 8002e36:	4770      	bx	lr
 8002e38:	20000010 	.word	0x20000010
 8002e3c:	ffff0208 	.word	0xffff0208

08002e40 <__malloc_lock>:
 8002e40:	4801      	ldr	r0, [pc, #4]	; (8002e48 <__malloc_lock+0x8>)
 8002e42:	f7ff beb7 	b.w	8002bb4 <__retarget_lock_acquire_recursive>
 8002e46:	bf00      	nop
 8002e48:	20001138 	.word	0x20001138

08002e4c <__malloc_unlock>:
 8002e4c:	4801      	ldr	r0, [pc, #4]	; (8002e54 <__malloc_unlock+0x8>)
 8002e4e:	f7ff beb2 	b.w	8002bb6 <__retarget_lock_release_recursive>
 8002e52:	bf00      	nop
 8002e54:	20001138 	.word	0x20001138

08002e58 <_free_r>:
 8002e58:	b538      	push	{r3, r4, r5, lr}
 8002e5a:	4605      	mov	r5, r0
 8002e5c:	2900      	cmp	r1, #0
 8002e5e:	d040      	beq.n	8002ee2 <_free_r+0x8a>
 8002e60:	f851 3c04 	ldr.w	r3, [r1, #-4]
 8002e64:	1f0c      	subs	r4, r1, #4
 8002e66:	2b00      	cmp	r3, #0
 8002e68:	bfb8      	it	lt
 8002e6a:	18e4      	addlt	r4, r4, r3
 8002e6c:	f7ff ffe8 	bl	8002e40 <__malloc_lock>
 8002e70:	4a1c      	ldr	r2, [pc, #112]	; (8002ee4 <_free_r+0x8c>)
 8002e72:	6813      	ldr	r3, [r2, #0]
 8002e74:	b933      	cbnz	r3, 8002e84 <_free_r+0x2c>
 8002e76:	6063      	str	r3, [r4, #4]
 8002e78:	6014      	str	r4, [r2, #0]
 8002e7a:	4628      	mov	r0, r5
 8002e7c:	e8bd 4038 	ldmia.w	sp!, {r3, r4, r5, lr}
 8002e80:	f7ff bfe4 	b.w	8002e4c <__malloc_unlock>
 8002e84:	42a3      	cmp	r3, r4
 8002e86:	d908      	bls.n	8002e9a <_free_r+0x42>
 8002e88:	6820      	ldr	r0, [r4, #0]
 8002e8a:	1821      	adds	r1, r4, r0
 8002e8c:	428b      	cmp	r3, r1
 8002e8e:	bf01      	itttt	eq
 8002e90:	6819      	ldreq	r1, [r3, #0]
 8002e92:	685b      	ldreq	r3, [r3, #4]
 8002e94:	1809      	addeq	r1, r1, r0
 8002e96:	6021      	streq	r1, [r4, #0]
 8002e98:	e7ed      	b.n	8002e76 <_free_r+0x1e>
 8002e9a:	461a      	mov	r2, r3
 8002e9c:	685b      	ldr	r3, [r3, #4]
 8002e9e:	b10b      	cbz	r3, 8002ea4 <_free_r+0x4c>
 8002ea0:	42a3      	cmp	r3, r4
 8002ea2:	d9fa      	bls.n	8002e9a <_free_r+0x42>
 8002ea4:	6811      	ldr	r1, [r2, #0]
 8002ea6:	1850      	adds	r0, r2, r1
 8002ea8:	42a0      	cmp	r0, r4
 8002eaa:	d10b      	bne.n	8002ec4 <_free_r+0x6c>
 8002eac:	6820      	ldr	r0, [r4, #0]
 8002eae:	4401      	add	r1, r0
 8002eb0:	1850      	adds	r0, r2, r1
 8002eb2:	4283      	cmp	r3, r0
 8002eb4:	6011      	str	r1, [r2, #0]
 8002eb6:	d1e0      	bne.n	8002e7a <_free_r+0x22>
 8002eb8:	6818      	ldr	r0, [r3, #0]
 8002eba:	685b      	ldr	r3, [r3, #4]
 8002ebc:	4401      	add	r1, r0
 8002ebe:	6011      	str	r1, [r2, #0]
 8002ec0:	6053      	str	r3, [r2, #4]
 8002ec2:	e7da      	b.n	8002e7a <_free_r+0x22>
 8002ec4:	d902      	bls.n	8002ecc <_free_r+0x74>
 8002ec6:	230c      	movs	r3, #12
 8002ec8:	602b      	str	r3, [r5, #0]
 8002eca:	e7d6      	b.n	8002e7a <_free_r+0x22>
 8002ecc:	6820      	ldr	r0, [r4, #0]
 8002ece:	1821      	adds	r1, r4, r0
 8002ed0:	428b      	cmp	r3, r1
 8002ed2:	bf01      	itttt	eq
 8002ed4:	6819      	ldreq	r1, [r3, #0]
 8002ed6:	685b      	ldreq	r3, [r3, #4]
 8002ed8:	1809      	addeq	r1, r1, r0
 8002eda:	6021      	streq	r1, [r4, #0]
 8002edc:	6063      	str	r3, [r4, #4]
 8002ede:	6054      	str	r4, [r2, #4]
 8002ee0:	e7cb      	b.n	8002e7a <_free_r+0x22>
 8002ee2:	bd38      	pop	{r3, r4, r5, pc}
 8002ee4:	2000113c 	.word	0x2000113c

08002ee8 <__ssputs_r>:
 8002ee8:	e92d 47f0 	stmdb	sp!, {r4, r5, r6, r7, r8, r9, sl, lr}
 8002eec:	688e      	ldr	r6, [r1, #8]
 8002eee:	4682      	mov	sl, r0
 8002ef0:	429e      	cmp	r6, r3
 8002ef2:	460c      	mov	r4, r1
 8002ef4:	4690      	mov	r8, r2
 8002ef6:	461f      	mov	r7, r3
 8002ef8:	d838      	bhi.n	8002f6c <__ssputs_r+0x84>
 8002efa:	898a      	ldrh	r2, [r1, #12]
 8002efc:	f412 6f90 	tst.w	r2, #1152	; 0x480
 8002f00:	d032      	beq.n	8002f68 <__ssputs_r+0x80>
 8002f02:	6825      	ldr	r5, [r4, #0]
 8002f04:	6909      	ldr	r1, [r1, #16]
 8002f06:	3301      	adds	r3, #1
 8002f08:	eba5 0901 	sub.w	r9, r5, r1
 8002f0c:	6965      	ldr	r5, [r4, #20]
 8002f0e:	444b      	add	r3, r9
 8002f10:	eb05 0545 	add.w	r5, r5, r5, lsl #1
 8002f14:	eb05 75d5 	add.w	r5, r5, r5, lsr #31
 8002f18:	106d      	asrs	r5, r5, #1
 8002f1a:	429d      	cmp	r5, r3
 8002f1c:	bf38      	it	cc
 8002f1e:	461d      	movcc	r5, r3
 8002f20:	0553      	lsls	r3, r2, #21
 8002f22:	d531      	bpl.n	8002f88 <__ssputs_r+0xa0>
 8002f24:	4629      	mov	r1, r5
 8002f26:	f7ff fe7d 	bl	8002c24 <_malloc_r>
 8002f2a:	4606      	mov	r6, r0
 8002f2c:	b950      	cbnz	r0, 8002f44 <__ssputs_r+0x5c>
 8002f2e:	230c      	movs	r3, #12
 8002f30:	f04f 30ff 	mov.w	r0, #4294967295
 8002f34:	f8ca 3000 	str.w	r3, [sl]
 8002f38:	89a3      	ldrh	r3, [r4, #12]
 8002f3a:	f043 0340 	orr.w	r3, r3, #64	; 0x40
 8002f3e:	81a3      	strh	r3, [r4, #12]
 8002f40:	e8bd 87f0 	ldmia.w	sp!, {r4, r5, r6, r7, r8, r9, sl, pc}
 8002f44:	464a      	mov	r2, r9
 8002f46:	6921      	ldr	r1, [r4, #16]
 8002f48:	f7ff fe36 	bl	8002bb8 <memcpy>
 8002f4c:	89a3      	ldrh	r3, [r4, #12]
 8002f4e:	f423 6390 	bic.w	r3, r3, #1152	; 0x480
 8002f52:	f043 0380 	orr.w	r3, r3, #128	; 0x80
 8002f56:	81a3      	strh	r3, [r4, #12]
 8002f58:	6126      	str	r6, [r4, #16]
 8002f5a:	444e      	add	r6, r9
 8002f5c:	6026      	str	r6, [r4, #0]
 8002f5e:	463e      	mov	r6, r7
 8002f60:	6165      	str	r5, [r4, #20]
 8002f62:	eba5 0509 	sub.w	r5, r5, r9
 8002f66:	60a5      	str	r5, [r4, #8]
 8002f68:	42be      	cmp	r6, r7
 8002f6a:	d900      	bls.n	8002f6e <__ssputs_r+0x86>
 8002f6c:	463e      	mov	r6, r7
 8002f6e:	4632      	mov	r2, r6
 8002f70:	4641      	mov	r1, r8
 8002f72:	6820      	ldr	r0, [r4, #0]
 8002f74:	f000 fab8 	bl	80034e8 <memmove>
 8002f78:	68a3      	ldr	r3, [r4, #8]
 8002f7a:	2000      	movs	r0, #0
 8002f7c:	1b9b      	subs	r3, r3, r6
 8002f7e:	60a3      	str	r3, [r4, #8]
 8002f80:	6823      	ldr	r3, [r4, #0]
 8002f82:	4433      	add	r3, r6
 8002f84:	6023      	str	r3, [r4, #0]
 8002f86:	e7db      	b.n	8002f40 <__ssputs_r+0x58>
 8002f88:	462a      	mov	r2, r5
 8002f8a:	f000 fac7 	bl	800351c <_realloc_r>
 8002f8e:	4606      	mov	r6, r0
 8002f90:	2800      	cmp	r0, #0
 8002f92:	d1e1      	bne.n	8002f58 <__ssputs_r+0x70>
 8002f94:	4650      	mov	r0, sl
 8002f96:	6921      	ldr	r1, [r4, #16]
 8002f98:	f7ff ff5e 	bl	8002e58 <_free_r>
 8002f9c:	e7c7      	b.n	8002f2e <__ssputs_r+0x46>
	...

08002fa0 <_svfiprintf_r>:
 8002fa0:	e92d 4ff0 	stmdb	sp!, {r4, r5, r6, r7, r8, r9, sl, fp, lr}
 8002fa4:	4698      	mov	r8, r3
 8002fa6:	898b      	ldrh	r3, [r1, #12]
 8002fa8:	4607      	mov	r7, r0
 8002faa:	061b      	lsls	r3, r3, #24
 8002fac:	460d      	mov	r5, r1
 8002fae:	4614      	mov	r4, r2
 8002fb0:	b09d      	sub	sp, #116	; 0x74
 8002fb2:	d50e      	bpl.n	8002fd2 <_svfiprintf_r+0x32>
 8002fb4:	690b      	ldr	r3, [r1, #16]
 8002fb6:	b963      	cbnz	r3, 8002fd2 <_svfiprintf_r+0x32>
 8002fb8:	2140      	movs	r1, #64	; 0x40
 8002fba:	f7ff fe33 	bl	8002c24 <_malloc_r>
 8002fbe:	6028      	str	r0, [r5, #0]
 8002fc0:	6128      	str	r0, [r5, #16]
 8002fc2:	b920      	cbnz	r0, 8002fce <_svfiprintf_r+0x2e>
 8002fc4:	230c      	movs	r3, #12
 8002fc6:	603b      	str	r3, [r7, #0]
 8002fc8:	f04f 30ff 	mov.w	r0, #4294967295
 8002fcc:	e0d1      	b.n	8003172 <_svfiprintf_r+0x1d2>
 8002fce:	2340      	movs	r3, #64	; 0x40
 8002fd0:	616b      	str	r3, [r5, #20]
 8002fd2:	2300      	movs	r3, #0
 8002fd4:	9309      	str	r3, [sp, #36]	; 0x24
 8002fd6:	2320      	movs	r3, #32
 8002fd8:	f88d 3029 	strb.w	r3, [sp, #41]	; 0x29
 8002fdc:	2330      	movs	r3, #48	; 0x30
 8002fde:	f04f 0901 	mov.w	r9, #1
 8002fe2:	f8cd 800c 	str.w	r8, [sp, #12]
 8002fe6:	f8df 81a4 	ldr.w	r8, [pc, #420]	; 800318c <_svfiprintf_r+0x1ec>
 8002fea:	f88d 302a 	strb.w	r3, [sp, #42]	; 0x2a
 8002fee:	4623      	mov	r3, r4
 8002ff0:	469a      	mov	sl, r3
 8002ff2:	f813 2b01 	ldrb.w	r2, [r3], #1
 8002ff6:	b10a      	cbz	r2, 8002ffc <_svfiprintf_r+0x5c>
 8002ff8:	2a25      	cmp	r2, #37	; 0x25
 8002ffa:	d1f9      	bne.n	8002ff0 <_svfiprintf_r+0x50>
 8002ffc:	ebba 0b04 	subs.w	fp, sl, r4
 8003000:	d00b      	beq.n	800301a <_svfiprintf_r+0x7a>
 8003002:	465b      	mov	r3, fp
 8003004:	4622      	mov	r2, r4
 8003006:	4629      	mov	r1, r5
 8003008:	4638      	mov	r0, r7
 800300a:	f7ff ff6d 	bl	8002ee8 <__ssputs_r>
 800300e:	3001      	adds	r0, #1
 8003010:	f000 80aa 	beq.w	8003168 <_svfiprintf_r+0x1c8>
 8003014:	9a09      	ldr	r2, [sp, #36]	; 0x24
 8003016:	445a      	add	r2, fp
 8003018:	9209      	str	r2, [sp, #36]	; 0x24
 800301a:	f89a 3000 	ldrb.w	r3, [sl]
 800301e:	2b00      	cmp	r3, #0
 8003020:	f000 80a2 	beq.w	8003168 <_svfiprintf_r+0x1c8>
 8003024:	2300      	movs	r3, #0
 8003026:	f04f 32ff 	mov.w	r2, #4294967295
 800302a:	e9cd 2305 	strd	r2, r3, [sp, #20]
 800302e:	f10a 0a01 	add.w	sl, sl, #1
 8003032:	9304      	str	r3, [sp, #16]
 8003034:	9307      	str	r3, [sp, #28]
 8003036:	f88d 3053 	strb.w	r3, [sp, #83]	; 0x53
 800303a:	931a      	str	r3, [sp, #104]	; 0x68
 800303c:	4654      	mov	r4, sl
 800303e:	2205      	movs	r2, #5
 8003040:	f814 1b01 	ldrb.w	r1, [r4], #1
 8003044:	4851      	ldr	r0, [pc, #324]	; (800318c <_svfiprintf_r+0x1ec>)
 8003046:	f000 fa41 	bl	80034cc <memchr>
 800304a:	9a04      	ldr	r2, [sp, #16]
 800304c:	b9d8      	cbnz	r0, 8003086 <_svfiprintf_r+0xe6>
 800304e:	06d0      	lsls	r0, r2, #27
 8003050:	bf44      	itt	mi
 8003052:	2320      	movmi	r3, #32
 8003054:	f88d 3053 	strbmi.w	r3, [sp, #83]	; 0x53
 8003058:	0711      	lsls	r1, r2, #28
 800305a:	bf44      	itt	mi
 800305c:	232b      	movmi	r3, #43	; 0x2b
 800305e:	f88d 3053 	strbmi.w	r3, [sp, #83]	; 0x53
 8003062:	f89a 3000 	ldrb.w	r3, [sl]
 8003066:	2b2a      	cmp	r3, #42	; 0x2a
 8003068:	d015      	beq.n	8003096 <_svfiprintf_r+0xf6>
 800306a:	4654      	mov	r4, sl
 800306c:	2000      	movs	r0, #0
 800306e:	f04f 0c0a 	mov.w	ip, #10
 8003072:	9a07      	ldr	r2, [sp, #28]
 8003074:	4621      	mov	r1, r4
 8003076:	f811 3b01 	ldrb.w	r3, [r1], #1
 800307a:	3b30      	subs	r3, #48	; 0x30
 800307c:	2b09      	cmp	r3, #9
 800307e:	d94e      	bls.n	800311e <_svfiprintf_r+0x17e>
 8003080:	b1b0      	cbz	r0, 80030b0 <_svfiprintf_r+0x110>
 8003082:	9207      	str	r2, [sp, #28]
 8003084:	e014      	b.n	80030b0 <_svfiprintf_r+0x110>
 8003086:	eba0 0308 	sub.w	r3, r0, r8
 800308a:	fa09 f303 	lsl.w	r3, r9, r3
 800308e:	4313      	orrs	r3, r2
 8003090:	46a2      	mov	sl, r4
 8003092:	9304      	str	r3, [sp, #16]
 8003094:	e7d2      	b.n	800303c <_svfiprintf_r+0x9c>
 8003096:	9b03      	ldr	r3, [sp, #12]
 8003098:	1d19      	adds	r1, r3, #4
 800309a:	681b      	ldr	r3, [r3, #0]
 800309c:	9103      	str	r1, [sp, #12]
 800309e:	2b00      	cmp	r3, #0
 80030a0:	bfbb      	ittet	lt
 80030a2:	425b      	neglt	r3, r3
 80030a4:	f042 0202 	orrlt.w	r2, r2, #2
 80030a8:	9307      	strge	r3, [sp, #28]
 80030aa:	9307      	strlt	r3, [sp, #28]
 80030ac:	bfb8      	it	lt
 80030ae:	9204      	strlt	r2, [sp, #16]
 80030b0:	7823      	ldrb	r3, [r4, #0]
 80030b2:	2b2e      	cmp	r3, #46	; 0x2e
 80030b4:	d10c      	bne.n	80030d0 <_svfiprintf_r+0x130>
 80030b6:	7863      	ldrb	r3, [r4, #1]
 80030b8:	2b2a      	cmp	r3, #42	; 0x2a
 80030ba:	d135      	bne.n	8003128 <_svfiprintf_r+0x188>
 80030bc:	9b03      	ldr	r3, [sp, #12]
 80030be:	3402      	adds	r4, #2
 80030c0:	1d1a      	adds	r2, r3, #4
 80030c2:	681b      	ldr	r3, [r3, #0]
 80030c4:	9203      	str	r2, [sp, #12]
 80030c6:	2b00      	cmp	r3, #0
 80030c8:	bfb8      	it	lt
 80030ca:	f04f 33ff 	movlt.w	r3, #4294967295
 80030ce:	9305      	str	r3, [sp, #20]
 80030d0:	f8df a0bc 	ldr.w	sl, [pc, #188]	; 8003190 <_svfiprintf_r+0x1f0>
 80030d4:	2203      	movs	r2, #3
 80030d6:	4650      	mov	r0, sl
 80030d8:	7821      	ldrb	r1, [r4, #0]
 80030da:	f000 f9f7 	bl	80034cc <memchr>
 80030de:	b140      	cbz	r0, 80030f2 <_svfiprintf_r+0x152>
 80030e0:	2340      	movs	r3, #64	; 0x40
 80030e2:	eba0 000a 	sub.w	r0, r0, sl
 80030e6:	fa03 f000 	lsl.w	r0, r3, r0
 80030ea:	9b04      	ldr	r3, [sp, #16]
 80030ec:	3401      	adds	r4, #1
 80030ee:	4303      	orrs	r3, r0
 80030f0:	9304      	str	r3, [sp, #16]
 80030f2:	f814 1b01 	ldrb.w	r1, [r4], #1
 80030f6:	2206      	movs	r2, #6
 80030f8:	4826      	ldr	r0, [pc, #152]	; (8003194 <_svfiprintf_r+0x1f4>)
 80030fa:	f88d 1028 	strb.w	r1, [sp, #40]	; 0x28
 80030fe:	f000 f9e5 	bl	80034cc <memchr>
 8003102:	2800      	cmp	r0, #0
 8003104:	d038      	beq.n	8003178 <_svfiprintf_r+0x1d8>
 8003106:	4b24      	ldr	r3, [pc, #144]	; (8003198 <_svfiprintf_r+0x1f8>)
 8003108:	bb1b      	cbnz	r3, 8003152 <_svfiprintf_r+0x1b2>
 800310a:	9b03      	ldr	r3, [sp, #12]
 800310c:	3307      	adds	r3, #7
 800310e:	f023 0307 	bic.w	r3, r3, #7
 8003112:	3308      	adds	r3, #8
 8003114:	9303      	str	r3, [sp, #12]
 8003116:	9b09      	ldr	r3, [sp, #36]	; 0x24
 8003118:	4433      	add	r3, r6
 800311a:	9309      	str	r3, [sp, #36]	; 0x24
 800311c:	e767      	b.n	8002fee <_svfiprintf_r+0x4e>
 800311e:	460c      	mov	r4, r1
 8003120:	2001      	movs	r0, #1
 8003122:	fb0c 3202 	mla	r2, ip, r2, r3
 8003126:	e7a5      	b.n	8003074 <_svfiprintf_r+0xd4>
 8003128:	2300      	movs	r3, #0
 800312a:	f04f 0c0a 	mov.w	ip, #10
 800312e:	4619      	mov	r1, r3
 8003130:	3401      	adds	r4, #1
 8003132:	9305      	str	r3, [sp, #20]
 8003134:	4620      	mov	r0, r4
 8003136:	f810 2b01 	ldrb.w	r2, [r0], #1
 800313a:	3a30      	subs	r2, #48	; 0x30
 800313c:	2a09      	cmp	r2, #9
 800313e:	d903      	bls.n	8003148 <_svfiprintf_r+0x1a8>
 8003140:	2b00      	cmp	r3, #0
 8003142:	d0c5      	beq.n	80030d0 <_svfiprintf_r+0x130>
 8003144:	9105      	str	r1, [sp, #20]
 8003146:	e7c3      	b.n	80030d0 <_svfiprintf_r+0x130>
 8003148:	4604      	mov	r4, r0
 800314a:	2301      	movs	r3, #1
 800314c:	fb0c 2101 	mla	r1, ip, r1, r2
 8003150:	e7f0      	b.n	8003134 <_svfiprintf_r+0x194>
 8003152:	ab03      	add	r3, sp, #12
 8003154:	9300      	str	r3, [sp, #0]
 8003156:	462a      	mov	r2, r5
 8003158:	4638      	mov	r0, r7
 800315a:	4b10      	ldr	r3, [pc, #64]	; (800319c <_svfiprintf_r+0x1fc>)
 800315c:	a904      	add	r1, sp, #16
 800315e:	f3af 8000 	nop.w
 8003162:	1c42      	adds	r2, r0, #1
 8003164:	4606      	mov	r6, r0
 8003166:	d1d6      	bne.n	8003116 <_svfiprintf_r+0x176>
 8003168:	89ab      	ldrh	r3, [r5, #12]
 800316a:	065b      	lsls	r3, r3, #25
 800316c:	f53f af2c 	bmi.w	8002fc8 <_svfiprintf_r+0x28>
 8003170:	9809      	ldr	r0, [sp, #36]	; 0x24
 8003172:	b01d      	add	sp, #116	; 0x74
 8003174:	e8bd 8ff0 	ldmia.w	sp!, {r4, r5, r6, r7, r8, r9, sl, fp, pc}
 8003178:	ab03      	add	r3, sp, #12
 800317a:	9300      	str	r3, [sp, #0]
 800317c:	462a      	mov	r2, r5
 800317e:	4638      	mov	r0, r7
 8003180:	4b06      	ldr	r3, [pc, #24]	; (800319c <_svfiprintf_r+0x1fc>)
 8003182:	a904      	add	r1, sp, #16
 8003184:	f000 f87c 	bl	8003280 <_printf_i>
 8003188:	e7eb      	b.n	8003162 <_svfiprintf_r+0x1c2>
 800318a:	bf00      	nop
 800318c:	080036b0 	.word	0x080036b0
 8003190:	080036b6 	.word	0x080036b6
 8003194:	080036ba 	.word	0x080036ba
 8003198:	00000000 	.word	0x00000000
 800319c:	08002ee9 	.word	0x08002ee9

080031a0 <_printf_common>:
 80031a0:	e92d 47f0 	stmdb	sp!, {r4, r5, r6, r7, r8, r9, sl, lr}
 80031a4:	4616      	mov	r6, r2
 80031a6:	4699      	mov	r9, r3
 80031a8:	688a      	ldr	r2, [r1, #8]
 80031aa:	690b      	ldr	r3, [r1, #16]
 80031ac:	4607      	mov	r7, r0
 80031ae:	4293      	cmp	r3, r2
 80031b0:	bfb8      	it	lt
 80031b2:	4613      	movlt	r3, r2
 80031b4:	6033      	str	r3, [r6, #0]
 80031b6:	f891 2043 	ldrb.w	r2, [r1, #67]	; 0x43
 80031ba:	460c      	mov	r4, r1
 80031bc:	f8dd 8020 	ldr.w	r8, [sp, #32]
 80031c0:	b10a      	cbz	r2, 80031c6 <_printf_common+0x26>
 80031c2:	3301      	adds	r3, #1
 80031c4:	6033      	str	r3, [r6, #0]
 80031c6:	6823      	ldr	r3, [r4, #0]
 80031c8:	0699      	lsls	r1, r3, #26
 80031ca:	bf42      	ittt	mi
 80031cc:	6833      	ldrmi	r3, [r6, #0]
 80031ce:	3302      	addmi	r3, #2
 80031d0:	6033      	strmi	r3, [r6, #0]
 80031d2:	6825      	ldr	r5, [r4, #0]
 80031d4:	f015 0506 	ands.w	r5, r5, #6
 80031d8:	d106      	bne.n	80031e8 <_printf_common+0x48>
 80031da:	f104 0a19 	add.w	sl, r4, #25
 80031de:	68e3      	ldr	r3, [r4, #12]
 80031e0:	6832      	ldr	r2, [r6, #0]
 80031e2:	1a9b      	subs	r3, r3, r2
 80031e4:	42ab      	cmp	r3, r5
 80031e6:	dc28      	bgt.n	800323a <_printf_common+0x9a>
 80031e8:	f894 2043 	ldrb.w	r2, [r4, #67]	; 0x43
 80031ec:	1e13      	subs	r3, r2, #0
 80031ee:	6822      	ldr	r2, [r4, #0]
 80031f0:	bf18      	it	ne
 80031f2:	2301      	movne	r3, #1
 80031f4:	0692      	lsls	r2, r2, #26
 80031f6:	d42d      	bmi.n	8003254 <_printf_common+0xb4>
 80031f8:	4649      	mov	r1, r9
 80031fa:	4638      	mov	r0, r7
 80031fc:	f104 0243 	add.w	r2, r4, #67	; 0x43
 8003200:	47c0      	blx	r8
 8003202:	3001      	adds	r0, #1
 8003204:	d020      	beq.n	8003248 <_printf_common+0xa8>
 8003206:	6823      	ldr	r3, [r4, #0]
 8003208:	68e5      	ldr	r5, [r4, #12]
 800320a:	f003 0306 	and.w	r3, r3, #6
 800320e:	2b04      	cmp	r3, #4
 8003210:	bf18      	it	ne
 8003212:	2500      	movne	r5, #0
 8003214:	6832      	ldr	r2, [r6, #0]
 8003216:	f04f 0600 	mov.w	r6, #0
 800321a:	68a3      	ldr	r3, [r4, #8]
 800321c:	bf08      	it	eq
 800321e:	1aad      	subeq	r5, r5, r2
 8003220:	6922      	ldr	r2, [r4, #16]
 8003222:	bf08      	it	eq
 8003224:	ea25 75e5 	biceq.w	r5, r5, r5, asr #31
 8003228:	4293      	cmp	r3, r2
 800322a:	bfc4      	itt	gt
 800322c:	1a9b      	subgt	r3, r3, r2
 800322e:	18ed      	addgt	r5, r5, r3
 8003230:	341a      	adds	r4, #26
 8003232:	42b5      	cmp	r5, r6
 8003234:	d11a      	bne.n	800326c <_printf_common+0xcc>
 8003236:	2000      	movs	r0, #0
 8003238:	e008      	b.n	800324c <_printf_common+0xac>
 800323a:	2301      	movs	r3, #1
 800323c:	4652      	mov	r2, sl
 800323e:	4649      	mov	r1, r9
 8003240:	4638      	mov	r0, r7
 8003242:	47c0      	blx	r8
 8003244:	3001      	adds	r0, #1
 8003246:	d103      	bne.n	8003250 <_printf_common+0xb0>
 8003248:	f04f 30ff 	mov.w	r0, #4294967295
 800324c:	e8bd 87f0 	ldmia.w	sp!, {r4, r5, r6, r7, r8, r9, sl, pc}
 8003250:	3501      	adds	r5, #1
 8003252:	e7c4      	b.n	80031de <_printf_common+0x3e>
 8003254:	2030      	movs	r0, #48	; 0x30
 8003256:	18e1      	adds	r1, r4, r3
 8003258:	f881 0043 	strb.w	r0, [r1, #67]	; 0x43
 800325c:	1c5a      	adds	r2, r3, #1
 800325e:	f894 1045 	ldrb.w	r1, [r4, #69]	; 0x45
 8003262:	4422      	add	r2, r4
 8003264:	3302      	adds	r3, #2
 8003266:	f882 1043 	strb.w	r1, [r2, #67]	; 0x43
 800326a:	e7c5      	b.n	80031f8 <_printf_common+0x58>
 800326c:	2301      	movs	r3, #1
 800326e:	4622      	mov	r2, r4
 8003270:	4649      	mov	r1, r9
 8003272:	4638      	mov	r0, r7
 8003274:	47c0      	blx	r8
 8003276:	3001      	adds	r0, #1
 8003278:	d0e6      	beq.n	8003248 <_printf_common+0xa8>
 800327a:	3601      	adds	r6, #1
 800327c:	e7d9      	b.n	8003232 <_printf_common+0x92>
	...

08003280 <_printf_i>:
 8003280:	e92d 47ff 	stmdb	sp!, {r0, r1, r2, r3, r4, r5, r6, r7, r8, r9, sl, lr}
 8003284:	7e0f      	ldrb	r7, [r1, #24]
 8003286:	4691      	mov	r9, r2
 8003288:	2f78      	cmp	r7, #120	; 0x78
 800328a:	4680      	mov	r8, r0
 800328c:	460c      	mov	r4, r1
 800328e:	469a      	mov	sl, r3
 8003290:	9d0c      	ldr	r5, [sp, #48]	; 0x30
 8003292:	f101 0243 	add.w	r2, r1, #67	; 0x43
 8003296:	d807      	bhi.n	80032a8 <_printf_i+0x28>
 8003298:	2f62      	cmp	r7, #98	; 0x62
 800329a:	d80a      	bhi.n	80032b2 <_printf_i+0x32>
 800329c:	2f00      	cmp	r7, #0
 800329e:	f000 80d9 	beq.w	8003454 <_printf_i+0x1d4>
 80032a2:	2f58      	cmp	r7, #88	; 0x58
 80032a4:	f000 80a4 	beq.w	80033f0 <_printf_i+0x170>
 80032a8:	f104 0542 	add.w	r5, r4, #66	; 0x42
 80032ac:	f884 7042 	strb.w	r7, [r4, #66]	; 0x42
 80032b0:	e03a      	b.n	8003328 <_printf_i+0xa8>
 80032b2:	f1a7 0363 	sub.w	r3, r7, #99	; 0x63
 80032b6:	2b15      	cmp	r3, #21
 80032b8:	d8f6      	bhi.n	80032a8 <_printf_i+0x28>
 80032ba:	a101      	add	r1, pc, #4	; (adr r1, 80032c0 <_printf_i+0x40>)
 80032bc:	f851 f023 	ldr.w	pc, [r1, r3, lsl #2]
 80032c0:	08003319 	.word	0x08003319
 80032c4:	0800332d 	.word	0x0800332d
 80032c8:	080032a9 	.word	0x080032a9
 80032cc:	080032a9 	.word	0x080032a9
 80032d0:	080032a9 	.word	0x080032a9
 80032d4:	080032a9 	.word	0x080032a9
 80032d8:	0800332d 	.word	0x0800332d
 80032dc:	080032a9 	.word	0x080032a9
 80032e0:	080032a9 	.word	0x080032a9
 80032e4:	080032a9 	.word	0x080032a9
 80032e8:	080032a9 	.word	0x080032a9
 80032ec:	0800343b 	.word	0x0800343b
 80032f0:	0800335d 	.word	0x0800335d
 80032f4:	0800341d 	.word	0x0800341d
 80032f8:	080032a9 	.word	0x080032a9
 80032fc:	080032a9 	.word	0x080032a9
 8003300:	0800345d 	.word	0x0800345d
 8003304:	080032a9 	.word	0x080032a9
 8003308:	0800335d 	.word	0x0800335d
 800330c:	080032a9 	.word	0x080032a9
 8003310:	080032a9 	.word	0x080032a9
 8003314:	08003425 	.word	0x08003425
 8003318:	682b      	ldr	r3, [r5, #0]
 800331a:	1d1a      	adds	r2, r3, #4
 800331c:	681b      	ldr	r3, [r3, #0]
 800331e:	602a      	str	r2, [r5, #0]
 8003320:	f104 0542 	add.w	r5, r4, #66	; 0x42
 8003324:	f884 3042 	strb.w	r3, [r4, #66]	; 0x42
 8003328:	2301      	movs	r3, #1
 800332a:	e0a4      	b.n	8003476 <_printf_i+0x1f6>
 800332c:	6820      	ldr	r0, [r4, #0]
 800332e:	6829      	ldr	r1, [r5, #0]
 8003330:	0606      	lsls	r6, r0, #24
 8003332:	f101 0304 	add.w	r3, r1, #4
 8003336:	d50a      	bpl.n	800334e <_printf_i+0xce>
 8003338:	680e      	ldr	r6, [r1, #0]
 800333a:	602b      	str	r3, [r5, #0]
 800333c:	2e00      	cmp	r6, #0
 800333e:	da03      	bge.n	8003348 <_printf_i+0xc8>
 8003340:	232d      	movs	r3, #45	; 0x2d
 8003342:	4276      	negs	r6, r6
 8003344:	f884 3043 	strb.w	r3, [r4, #67]	; 0x43
 8003348:	230a      	movs	r3, #10
 800334a:	485e      	ldr	r0, [pc, #376]	; (80034c4 <_printf_i+0x244>)
 800334c:	e019      	b.n	8003382 <_printf_i+0x102>
 800334e:	680e      	ldr	r6, [r1, #0]
 8003350:	f010 0f40 	tst.w	r0, #64	; 0x40
 8003354:	602b      	str	r3, [r5, #0]
 8003356:	bf18      	it	ne
 8003358:	b236      	sxthne	r6, r6
 800335a:	e7ef      	b.n	800333c <_printf_i+0xbc>
 800335c:	682b      	ldr	r3, [r5, #0]
 800335e:	6820      	ldr	r0, [r4, #0]
 8003360:	1d19      	adds	r1, r3, #4
 8003362:	6029      	str	r1, [r5, #0]
 8003364:	0601      	lsls	r1, r0, #24
 8003366:	d501      	bpl.n	800336c <_printf_i+0xec>
 8003368:	681e      	ldr	r6, [r3, #0]
 800336a:	e002      	b.n	8003372 <_printf_i+0xf2>
 800336c:	0646      	lsls	r6, r0, #25
 800336e:	d5fb      	bpl.n	8003368 <_printf_i+0xe8>
 8003370:	881e      	ldrh	r6, [r3, #0]
 8003372:	2f6f      	cmp	r7, #111	; 0x6f
 8003374:	bf0c      	ite	eq
 8003376:	2308      	moveq	r3, #8
 8003378:	230a      	movne	r3, #10
 800337a:	4852      	ldr	r0, [pc, #328]	; (80034c4 <_printf_i+0x244>)
 800337c:	2100      	movs	r1, #0
 800337e:	f884 1043 	strb.w	r1, [r4, #67]	; 0x43
 8003382:	6865      	ldr	r5, [r4, #4]
 8003384:	2d00      	cmp	r5, #0
 8003386:	bfa8      	it	ge
 8003388:	6821      	ldrge	r1, [r4, #0]
 800338a:	60a5      	str	r5, [r4, #8]
 800338c:	bfa4      	itt	ge
 800338e:	f021 0104 	bicge.w	r1, r1, #4
 8003392:	6021      	strge	r1, [r4, #0]
 8003394:	b90e      	cbnz	r6, 800339a <_printf_i+0x11a>
 8003396:	2d00      	cmp	r5, #0
 8003398:	d04d      	beq.n	8003436 <_printf_i+0x1b6>
 800339a:	4615      	mov	r5, r2
 800339c:	fbb6 f1f3 	udiv	r1, r6, r3
 80033a0:	fb03 6711 	mls	r7, r3, r1, r6
 80033a4:	5dc7      	ldrb	r7, [r0, r7]
 80033a6:	f805 7d01 	strb.w	r7, [r5, #-1]!
 80033aa:	4637      	mov	r7, r6
 80033ac:	42bb      	cmp	r3, r7
 80033ae:	460e      	mov	r6, r1
 80033b0:	d9f4      	bls.n	800339c <_printf_i+0x11c>
 80033b2:	2b08      	cmp	r3, #8
 80033b4:	d10b      	bne.n	80033ce <_printf_i+0x14e>
 80033b6:	6823      	ldr	r3, [r4, #0]
 80033b8:	07de      	lsls	r6, r3, #31
 80033ba:	d508      	bpl.n	80033ce <_printf_i+0x14e>
 80033bc:	6923      	ldr	r3, [r4, #16]
 80033be:	6861      	ldr	r1, [r4, #4]
 80033c0:	4299      	cmp	r1, r3
 80033c2:	bfde      	ittt	le
 80033c4:	2330      	movle	r3, #48	; 0x30
 80033c6:	f805 3c01 	strble.w	r3, [r5, #-1]
 80033ca:	f105 35ff 	addle.w	r5, r5, #4294967295
 80033ce:	1b52      	subs	r2, r2, r5
 80033d0:	6122      	str	r2, [r4, #16]
 80033d2:	464b      	mov	r3, r9
 80033d4:	4621      	mov	r1, r4
 80033d6:	4640      	mov	r0, r8
 80033d8:	f8cd a000 	str.w	sl, [sp]
 80033dc:	aa03      	add	r2, sp, #12
 80033de:	f7ff fedf 	bl	80031a0 <_printf_common>
 80033e2:	3001      	adds	r0, #1
 80033e4:	d14c      	bne.n	8003480 <_printf_i+0x200>
 80033e6:	f04f 30ff 	mov.w	r0, #4294967295
 80033ea:	b004      	add	sp, #16
 80033ec:	e8bd 87f0 	ldmia.w	sp!, {r4, r5, r6, r7, r8, r9, sl, pc}
 80033f0:	4834      	ldr	r0, [pc, #208]	; (80034c4 <_printf_i+0x244>)
 80033f2:	f881 7045 	strb.w	r7, [r1, #69]	; 0x45
 80033f6:	6829      	ldr	r1, [r5, #0]
 80033f8:	6823      	ldr	r3, [r4, #0]
 80033fa:	f851 6b04 	ldr.w	r6, [r1], #4
 80033fe:	6029      	str	r1, [r5, #0]
 8003400:	061d      	lsls	r5, r3, #24
 8003402:	d514      	bpl.n	800342e <_printf_i+0x1ae>
 8003404:	07df      	lsls	r7, r3, #31
 8003406:	bf44      	itt	mi
 8003408:	f043 0320 	orrmi.w	r3, r3, #32
 800340c:	6023      	strmi	r3, [r4, #0]
 800340e:	b91e      	cbnz	r6, 8003418 <_printf_i+0x198>
 8003410:	6823      	ldr	r3, [r4, #0]
 8003412:	f023 0320 	bic.w	r3, r3, #32
 8003416:	6023      	str	r3, [r4, #0]
 8003418:	2310      	movs	r3, #16
 800341a:	e7af      	b.n	800337c <_printf_i+0xfc>
 800341c:	6823      	ldr	r3, [r4, #0]
 800341e:	f043 0320 	orr.w	r3, r3, #32
 8003422:	6023      	str	r3, [r4, #0]
 8003424:	2378      	movs	r3, #120	; 0x78
 8003426:	4828      	ldr	r0, [pc, #160]	; (80034c8 <_printf_i+0x248>)
 8003428:	f884 3045 	strb.w	r3, [r4, #69]	; 0x45
 800342c:	e7e3      	b.n	80033f6 <_printf_i+0x176>
 800342e:	0659      	lsls	r1, r3, #25
 8003430:	bf48      	it	mi
 8003432:	b2b6      	uxthmi	r6, r6
 8003434:	e7e6      	b.n	8003404 <_printf_i+0x184>
 8003436:	4615      	mov	r5, r2
 8003438:	e7bb      	b.n	80033b2 <_printf_i+0x132>
 800343a:	682b      	ldr	r3, [r5, #0]
 800343c:	6826      	ldr	r6, [r4, #0]
 800343e:	1d18      	adds	r0, r3, #4
 8003440:	6961      	ldr	r1, [r4, #20]
 8003442:	6028      	str	r0, [r5, #0]
 8003444:	0635      	lsls	r5, r6, #24
 8003446:	681b      	ldr	r3, [r3, #0]
 8003448:	d501      	bpl.n	800344e <_printf_i+0x1ce>
 800344a:	6019      	str	r1, [r3, #0]
 800344c:	e002      	b.n	8003454 <_printf_i+0x1d4>
 800344e:	0670      	lsls	r0, r6, #25
 8003450:	d5fb      	bpl.n	800344a <_printf_i+0x1ca>
 8003452:	8019      	strh	r1, [r3, #0]
 8003454:	2300      	movs	r3, #0
 8003456:	4615      	mov	r5, r2
 8003458:	6123      	str	r3, [r4, #16]
 800345a:	e7ba      	b.n	80033d2 <_printf_i+0x152>
 800345c:	682b      	ldr	r3, [r5, #0]
 800345e:	2100      	movs	r1, #0
 8003460:	1d1a      	adds	r2, r3, #4
 8003462:	602a      	str	r2, [r5, #0]
 8003464:	681d      	ldr	r5, [r3, #0]
 8003466:	6862      	ldr	r2, [r4, #4]
 8003468:	4628      	mov	r0, r5
 800346a:	f000 f82f 	bl	80034cc <memchr>
 800346e:	b108      	cbz	r0, 8003474 <_printf_i+0x1f4>
 8003470:	1b40      	subs	r0, r0, r5
 8003472:	6060      	str	r0, [r4, #4]
 8003474:	6863      	ldr	r3, [r4, #4]
 8003476:	6123      	str	r3, [r4, #16]
 8003478:	2300      	movs	r3, #0
 800347a:	f884 3043 	strb.w	r3, [r4, #67]	; 0x43
 800347e:	e7a8      	b.n	80033d2 <_printf_i+0x152>
 8003480:	462a      	mov	r2, r5
 8003482:	4649      	mov	r1, r9
 8003484:	4640      	mov	r0, r8
 8003486:	6923      	ldr	r3, [r4, #16]
 8003488:	47d0      	blx	sl
 800348a:	3001      	adds	r0, #1
 800348c:	d0ab      	beq.n	80033e6 <_printf_i+0x166>
 800348e:	6823      	ldr	r3, [r4, #0]
 8003490:	079b      	lsls	r3, r3, #30
 8003492:	d413      	bmi.n	80034bc <_printf_i+0x23c>
 8003494:	68e0      	ldr	r0, [r4, #12]
 8003496:	9b03      	ldr	r3, [sp, #12]
 8003498:	4298      	cmp	r0, r3
 800349a:	bfb8      	it	lt
 800349c:	4618      	movlt	r0, r3
 800349e:	e7a4      	b.n	80033ea <_printf_i+0x16a>
 80034a0:	2301      	movs	r3, #1
 80034a2:	4632      	mov	r2, r6
 80034a4:	4649      	mov	r1, r9
 80034a6:	4640      	mov	r0, r8
 80034a8:	47d0      	blx	sl
 80034aa:	3001      	adds	r0, #1
 80034ac:	d09b      	beq.n	80033e6 <_printf_i+0x166>
 80034ae:	3501      	adds	r5, #1
 80034b0:	68e3      	ldr	r3, [r4, #12]
 80034b2:	9903      	ldr	r1, [sp, #12]
 80034b4:	1a5b      	subs	r3, r3, r1
 80034b6:	42ab      	cmp	r3, r5
 80034b8:	dcf2      	bgt.n	80034a0 <_printf_i+0x220>
 80034ba:	e7eb      	b.n	8003494 <_printf_i+0x214>
 80034bc:	2500      	movs	r5, #0
 80034be:	f104 0619 	add.w	r6, r4, #25
 80034c2:	e7f5      	b.n	80034b0 <_printf_i+0x230>
 80034c4:	080036c1 	.word	0x080036c1
 80034c8:	080036d2 	.word	0x080036d2

080034cc <memchr>:
 80034cc:	4603      	mov	r3, r0
 80034ce:	b510      	push	{r4, lr}
 80034d0:	b2c9      	uxtb	r1, r1
 80034d2:	4402      	add	r2, r0
 80034d4:	4293      	cmp	r3, r2
 80034d6:	4618      	mov	r0, r3
 80034d8:	d101      	bne.n	80034de <memchr+0x12>
 80034da:	2000      	movs	r0, #0
 80034dc:	e003      	b.n	80034e6 <memchr+0x1a>
 80034de:	7804      	ldrb	r4, [r0, #0]
 80034e0:	3301      	adds	r3, #1
 80034e2:	428c      	cmp	r4, r1
 80034e4:	d1f6      	bne.n	80034d4 <memchr+0x8>
 80034e6:	bd10      	pop	{r4, pc}

080034e8 <memmove>:
 80034e8:	4288      	cmp	r0, r1
 80034ea:	b510      	push	{r4, lr}
 80034ec:	eb01 0402 	add.w	r4, r1, r2
 80034f0:	d902      	bls.n	80034f8 <memmove+0x10>
 80034f2:	4284      	cmp	r4, r0
 80034f4:	4623      	mov	r3, r4
 80034f6:	d807      	bhi.n	8003508 <memmove+0x20>
 80034f8:	1e43      	subs	r3, r0, #1
 80034fa:	42a1      	cmp	r1, r4
 80034fc:	d008      	beq.n	8003510 <memmove+0x28>
 80034fe:	f811 2b01 	ldrb.w	r2, [r1], #1
 8003502:	f803 2f01 	strb.w	r2, [r3, #1]!
 8003506:	e7f8      	b.n	80034fa <memmove+0x12>
 8003508:	4601      	mov	r1, r0
 800350a:	4402      	add	r2, r0
 800350c:	428a      	cmp	r2, r1
 800350e:	d100      	bne.n	8003512 <memmove+0x2a>
 8003510:	bd10      	pop	{r4, pc}
 8003512:	f813 4d01 	ldrb.w	r4, [r3, #-1]!
 8003516:	f802 4d01 	strb.w	r4, [r2, #-1]!
 800351a:	e7f7      	b.n	800350c <memmove+0x24>

0800351c <_realloc_r>:
 800351c:	e92d 41f0 	stmdb	sp!, {r4, r5, r6, r7, r8, lr}
 8003520:	4680      	mov	r8, r0
 8003522:	4614      	mov	r4, r2
 8003524:	460e      	mov	r6, r1
 8003526:	b921      	cbnz	r1, 8003532 <_realloc_r+0x16>
 8003528:	4611      	mov	r1, r2
 800352a:	e8bd 41f0 	ldmia.w	sp!, {r4, r5, r6, r7, r8, lr}
 800352e:	f7ff bb79 	b.w	8002c24 <_malloc_r>
 8003532:	b92a      	cbnz	r2, 8003540 <_realloc_r+0x24>
 8003534:	f7ff fc90 	bl	8002e58 <_free_r>
 8003538:	4625      	mov	r5, r4
 800353a:	4628      	mov	r0, r5
 800353c:	e8bd 81f0 	ldmia.w	sp!, {r4, r5, r6, r7, r8, pc}
 8003540:	f000 f81b 	bl	800357a <_malloc_usable_size_r>
 8003544:	4284      	cmp	r4, r0
 8003546:	4607      	mov	r7, r0
 8003548:	d802      	bhi.n	8003550 <_realloc_r+0x34>
 800354a:	ebb4 0f50 	cmp.w	r4, r0, lsr #1
 800354e:	d812      	bhi.n	8003576 <_realloc_r+0x5a>
 8003550:	4621      	mov	r1, r4
 8003552:	4640      	mov	r0, r8
 8003554:	f7ff fb66 	bl	8002c24 <_malloc_r>
 8003558:	4605      	mov	r5, r0
 800355a:	2800      	cmp	r0, #0
 800355c:	d0ed      	beq.n	800353a <_realloc_r+0x1e>
 800355e:	42bc      	cmp	r4, r7
 8003560:	4622      	mov	r2, r4
 8003562:	4631      	mov	r1, r6
 8003564:	bf28      	it	cs
 8003566:	463a      	movcs	r2, r7
 8003568:	f7ff fb26 	bl	8002bb8 <memcpy>
 800356c:	4631      	mov	r1, r6
 800356e:	4640      	mov	r0, r8
 8003570:	f7ff fc72 	bl	8002e58 <_free_r>
 8003574:	e7e1      	b.n	800353a <_realloc_r+0x1e>
 8003576:	4635      	mov	r5, r6
 8003578:	e7df      	b.n	800353a <_realloc_r+0x1e>

0800357a <_malloc_usable_size_r>:
 800357a:	f851 3c04 	ldr.w	r3, [r1, #-4]
 800357e:	1f18      	subs	r0, r3, #4
 8003580:	2b00      	cmp	r3, #0
 8003582:	bfbc      	itt	lt
 8003584:	580b      	ldrlt	r3, [r1, r0]
 8003586:	18c0      	addlt	r0, r0, r3
 8003588:	4770      	bx	lr
	...

0800358c <_init>:
 800358c:	b5f8      	push	{r3, r4, r5, r6, r7, lr}
 800358e:	bf00      	nop
 8003590:	bcf8      	pop	{r3, r4, r5, r6, r7}
 8003592:	bc08      	pop	{r3}
 8003594:	469e      	mov	lr, r3
 8003596:	4770      	bx	lr

08003598 <_fini>:
 8003598:	b5f8      	push	{r3, r4, r5, r6, r7, lr}
 800359a:	bf00      	nop
 800359c:	bcf8      	pop	{r3, r4, r5, r6, r7}
 800359e:	bc08      	pop	{r3}
 80035a0:	469e      	mov	lr, r3
 80035a2:	4770      	bx	lr
