
Lab10.elf:     file format elf32-littlearm

Sections:
Idx Name          Size      VMA       LMA       File off  Algn
  0 .isr_vector   000001e4  08000000  08000000  00010000  2**0
                  CONTENTS, ALLOC, LOAD, READONLY, DATA
  1 .text         00006044  080001e8  080001e8  000101e8  2**3
                  CONTENTS, ALLOC, LOAD, READONLY, CODE
  2 .rodata       00001840  0800622c  0800622c  0001622c  2**0
                  CONTENTS, ALLOC, LOAD, READONLY, DATA
  3 .ARM.extab    00000000  08007a6c  08007a6c  00020060  2**0
                  CONTENTS
  4 .ARM          00000000  08007a6c  08007a6c  00020060  2**0
                  CONTENTS
  5 .preinit_array 00000000  08007a6c  08007a6c  00020060  2**0
                  CONTENTS, ALLOC, LOAD, DATA
  6 .init_array   00000004  08007a6c  08007a6c  00017a6c  2**2
                  CONTENTS, ALLOC, LOAD, DATA
  7 .fini_array   00000004  08007a70  08007a70  00017a70  2**2
                  CONTENTS, ALLOC, LOAD, DATA
  8 .data         00000060  20000000  08007a74  00020000  2**2
                  CONTENTS, ALLOC, LOAD, DATA
  9 .bss          0000017c  20000060  08007ad4  00020060  2**2
                  ALLOC
 10 ._user_heap_stack 00000604  200001dc  08007ad4  000201dc  2**0
                  ALLOC
 11 .ARM.attributes 00000029  00000000  00000000  00020060  2**0
                  CONTENTS, READONLY
 12 .comment      00000043  00000000  00000000  00020089  2**0
                  CONTENTS, READONLY
 13 .debug_frame  000006a4  00000000  00000000  000200cc  2**2
                  CONTENTS, READONLY, DEBUGGING, OCTETS

Disassembly of section .text:

080001e8 <__do_global_dtors_aux>:
 80001e8:	b510      	push	{r4, lr}
 80001ea:	4c05      	ldr	r4, [pc, #20]	; (8000200 <__do_global_dtors_aux+0x18>)
 80001ec:	7823      	ldrb	r3, [r4, #0]
 80001ee:	b933      	cbnz	r3, 80001fe <__do_global_dtors_aux+0x16>
 80001f0:	4b04      	ldr	r3, [pc, #16]	; (8000204 <__do_global_dtors_aux+0x1c>)
 80001f2:	b113      	cbz	r3, 80001fa <__do_global_dtors_aux+0x12>
 80001f4:	4804      	ldr	r0, [pc, #16]	; (8000208 <__do_global_dtors_aux+0x20>)
 80001f6:	f3af 8000 	nop.w
 80001fa:	2301      	movs	r3, #1
 80001fc:	7023      	strb	r3, [r4, #0]
 80001fe:	bd10      	pop	{r4, pc}
 8000200:	20000060 	.word	0x20000060
 8000204:	00000000 	.word	0x00000000
 8000208:	08006214 	.word	0x08006214

0800020c <frame_dummy>:
 800020c:	b508      	push	{r3, lr}
 800020e:	4b03      	ldr	r3, [pc, #12]	; (800021c <frame_dummy+0x10>)
 8000210:	b11b      	cbz	r3, 800021a <frame_dummy+0xe>
 8000212:	4903      	ldr	r1, [pc, #12]	; (8000220 <frame_dummy+0x14>)
 8000214:	4803      	ldr	r0, [pc, #12]	; (8000224 <frame_dummy+0x18>)
 8000216:	f3af 8000 	nop.w
 800021a:	bd08      	pop	{r3, pc}
 800021c:	00000000 	.word	0x00000000
 8000220:	20000064 	.word	0x20000064
 8000224:	08006214 	.word	0x08006214

08000228 <__aeabi_dmul>:
 8000228:	b570      	push	{r4, r5, r6, lr}
 800022a:	f04f 0cff 	mov.w	ip, #255	; 0xff
 800022e:	f44c 6ce0 	orr.w	ip, ip, #1792	; 0x700
 8000232:	ea1c 5411 	ands.w	r4, ip, r1, lsr #20
 8000236:	bf1d      	ittte	ne
 8000238:	ea1c 5513 	andsne.w	r5, ip, r3, lsr #20
 800023c:	ea94 0f0c 	teqne	r4, ip
 8000240:	ea95 0f0c 	teqne	r5, ip
 8000244:	f000 f8de 	bleq	8000404 <__aeabi_dmul+0x1dc>
 8000248:	442c      	add	r4, r5
 800024a:	ea81 0603 	eor.w	r6, r1, r3
 800024e:	ea21 514c 	bic.w	r1, r1, ip, lsl #21
 8000252:	ea23 534c 	bic.w	r3, r3, ip, lsl #21
 8000256:	ea50 3501 	orrs.w	r5, r0, r1, lsl #12
 800025a:	bf18      	it	ne
 800025c:	ea52 3503 	orrsne.w	r5, r2, r3, lsl #12
 8000260:	f441 1180 	orr.w	r1, r1, #1048576	; 0x100000
 8000264:	f443 1380 	orr.w	r3, r3, #1048576	; 0x100000
 8000268:	d038      	beq.n	80002dc <__aeabi_dmul+0xb4>
 800026a:	fba0 ce02 	umull	ip, lr, r0, r2
 800026e:	f04f 0500 	mov.w	r5, #0
 8000272:	fbe1 e502 	umlal	lr, r5, r1, r2
 8000276:	f006 4200 	and.w	r2, r6, #2147483648	; 0x80000000
 800027a:	fbe0 e503 	umlal	lr, r5, r0, r3
 800027e:	f04f 0600 	mov.w	r6, #0
 8000282:	fbe1 5603 	umlal	r5, r6, r1, r3
 8000286:	f09c 0f00 	teq	ip, #0
 800028a:	bf18      	it	ne
 800028c:	f04e 0e01 	orrne.w	lr, lr, #1
 8000290:	f1a4 04ff 	sub.w	r4, r4, #255	; 0xff
 8000294:	f5b6 7f00 	cmp.w	r6, #512	; 0x200
 8000298:	f564 7440 	sbc.w	r4, r4, #768	; 0x300
 800029c:	d204      	bcs.n	80002a8 <__aeabi_dmul+0x80>
 800029e:	ea5f 0e4e 	movs.w	lr, lr, lsl #1
 80002a2:	416d      	adcs	r5, r5
 80002a4:	eb46 0606 	adc.w	r6, r6, r6
 80002a8:	ea42 21c6 	orr.w	r1, r2, r6, lsl #11
 80002ac:	ea41 5155 	orr.w	r1, r1, r5, lsr #21
 80002b0:	ea4f 20c5 	mov.w	r0, r5, lsl #11
 80002b4:	ea40 505e 	orr.w	r0, r0, lr, lsr #21
 80002b8:	ea4f 2ece 	mov.w	lr, lr, lsl #11
 80002bc:	f1b4 0cfd 	subs.w	ip, r4, #253	; 0xfd
 80002c0:	bf88      	it	hi
 80002c2:	f5bc 6fe0 	cmphi.w	ip, #1792	; 0x700
 80002c6:	d81e      	bhi.n	8000306 <__aeabi_dmul+0xde>
 80002c8:	f1be 4f00 	cmp.w	lr, #2147483648	; 0x80000000
 80002cc:	bf08      	it	eq
 80002ce:	ea5f 0e50 	movseq.w	lr, r0, lsr #1
 80002d2:	f150 0000 	adcs.w	r0, r0, #0
 80002d6:	eb41 5104 	adc.w	r1, r1, r4, lsl #20
 80002da:	bd70      	pop	{r4, r5, r6, pc}
 80002dc:	f006 4600 	and.w	r6, r6, #2147483648	; 0x80000000
 80002e0:	ea46 0101 	orr.w	r1, r6, r1
 80002e4:	ea40 0002 	orr.w	r0, r0, r2
 80002e8:	ea81 0103 	eor.w	r1, r1, r3
 80002ec:	ebb4 045c 	subs.w	r4, r4, ip, lsr #1
 80002f0:	bfc2      	ittt	gt
 80002f2:	ebd4 050c 	rsbsgt	r5, r4, ip
 80002f6:	ea41 5104 	orrgt.w	r1, r1, r4, lsl #20
 80002fa:	bd70      	popgt	{r4, r5, r6, pc}
 80002fc:	f441 1180 	orr.w	r1, r1, #1048576	; 0x100000
 8000300:	f04f 0e00 	mov.w	lr, #0
 8000304:	3c01      	subs	r4, #1
 8000306:	f300 80ab 	bgt.w	8000460 <__aeabi_dmul+0x238>
 800030a:	f114 0f36 	cmn.w	r4, #54	; 0x36
 800030e:	bfde      	ittt	le
 8000310:	2000      	movle	r0, #0
 8000312:	f001 4100 	andle.w	r1, r1, #2147483648	; 0x80000000
 8000316:	bd70      	pople	{r4, r5, r6, pc}
 8000318:	f1c4 0400 	rsb	r4, r4, #0
 800031c:	3c20      	subs	r4, #32
 800031e:	da35      	bge.n	800038c <__aeabi_dmul+0x164>
 8000320:	340c      	adds	r4, #12
 8000322:	dc1b      	bgt.n	800035c <__aeabi_dmul+0x134>
 8000324:	f104 0414 	add.w	r4, r4, #20
 8000328:	f1c4 0520 	rsb	r5, r4, #32
 800032c:	fa00 f305 	lsl.w	r3, r0, r5
 8000330:	fa20 f004 	lsr.w	r0, r0, r4
 8000334:	fa01 f205 	lsl.w	r2, r1, r5
 8000338:	ea40 0002 	orr.w	r0, r0, r2
 800033c:	f001 4200 	and.w	r2, r1, #2147483648	; 0x80000000
 8000340:	f021 4100 	bic.w	r1, r1, #2147483648	; 0x80000000
 8000344:	eb10 70d3 	adds.w	r0, r0, r3, lsr #31
 8000348:	fa21 f604 	lsr.w	r6, r1, r4
 800034c:	eb42 0106 	adc.w	r1, r2, r6
 8000350:	ea5e 0e43 	orrs.w	lr, lr, r3, lsl #1
 8000354:	bf08      	it	eq
 8000356:	ea20 70d3 	biceq.w	r0, r0, r3, lsr #31
 800035a:	bd70      	pop	{r4, r5, r6, pc}
 800035c:	f1c4 040c 	rsb	r4, r4, #12
 8000360:	f1c4 0520 	rsb	r5, r4, #32
 8000364:	fa00 f304 	lsl.w	r3, r0, r4
 8000368:	fa20 f005 	lsr.w	r0, r0, r5
 800036c:	fa01 f204 	lsl.w	r2, r1, r4
 8000370:	ea40 0002 	orr.w	r0, r0, r2
 8000374:	f001 4100 	and.w	r1, r1, #2147483648	; 0x80000000
 8000378:	eb10 70d3 	adds.w	r0, r0, r3, lsr #31
 800037c:	f141 0100 	adc.w	r1, r1, #0
 8000380:	ea5e 0e43 	orrs.w	lr, lr, r3, lsl #1
 8000384:	bf08      	it	eq
 8000386:	ea20 70d3 	biceq.w	r0, r0, r3, lsr #31
 800038a:	bd70      	pop	{r4, r5, r6, pc}
 800038c:	f1c4 0520 	rsb	r5, r4, #32
 8000390:	fa00 f205 	lsl.w	r2, r0, r5
 8000394:	ea4e 0e02 	orr.w	lr, lr, r2
 8000398:	fa20 f304 	lsr.w	r3, r0, r4
 800039c:	fa01 f205 	lsl.w	r2, r1, r5
 80003a0:	ea43 0302 	orr.w	r3, r3, r2
 80003a4:	fa21 f004 	lsr.w	r0, r1, r4
 80003a8:	f001 4100 	and.w	r1, r1, #2147483648	; 0x80000000
 80003ac:	fa21 f204 	lsr.w	r2, r1, r4
 80003b0:	ea20 0002 	bic.w	r0, r0, r2
 80003b4:	eb00 70d3 	add.w	r0, r0, r3, lsr #31
 80003b8:	ea5e 0e43 	orrs.w	lr, lr, r3, lsl #1
 80003bc:	bf08      	it	eq
 80003be:	ea20 70d3 	biceq.w	r0, r0, r3, lsr #31
 80003c2:	bd70      	pop	{r4, r5, r6, pc}
 80003c4:	f094 0f00 	teq	r4, #0
 80003c8:	d10f      	bne.n	80003ea <__aeabi_dmul+0x1c2>
 80003ca:	f001 4600 	and.w	r6, r1, #2147483648	; 0x80000000
 80003ce:	0040      	lsls	r0, r0, #1
 80003d0:	eb41 0101 	adc.w	r1, r1, r1
 80003d4:	f411 1f80 	tst.w	r1, #1048576	; 0x100000
 80003d8:	bf08      	it	eq
 80003da:	3c01      	subeq	r4, #1
 80003dc:	d0f7      	beq.n	80003ce <__aeabi_dmul+0x1a6>
 80003de:	ea41 0106 	orr.w	r1, r1, r6
 80003e2:	f095 0f00 	teq	r5, #0
 80003e6:	bf18      	it	ne
 80003e8:	4770      	bxne	lr
 80003ea:	f003 4600 	and.w	r6, r3, #2147483648	; 0x80000000
 80003ee:	0052      	lsls	r2, r2, #1
 80003f0:	eb43 0303 	adc.w	r3, r3, r3
 80003f4:	f413 1f80 	tst.w	r3, #1048576	; 0x100000
 80003f8:	bf08      	it	eq
 80003fa:	3d01      	subeq	r5, #1
 80003fc:	d0f7      	beq.n	80003ee <__aeabi_dmul+0x1c6>
 80003fe:	ea43 0306 	orr.w	r3, r3, r6
 8000402:	4770      	bx	lr
 8000404:	ea94 0f0c 	teq	r4, ip
 8000408:	ea0c 5513 	and.w	r5, ip, r3, lsr #20
 800040c:	bf18      	it	ne
 800040e:	ea95 0f0c 	teqne	r5, ip
 8000412:	d00c      	beq.n	800042e <__aeabi_dmul+0x206>
 8000414:	ea50 0641 	orrs.w	r6, r0, r1, lsl #1
 8000418:	bf18      	it	ne
 800041a:	ea52 0643 	orrsne.w	r6, r2, r3, lsl #1
 800041e:	d1d1      	bne.n	80003c4 <__aeabi_dmul+0x19c>
 8000420:	ea81 0103 	eor.w	r1, r1, r3
 8000424:	f001 4100 	and.w	r1, r1, #2147483648	; 0x80000000
 8000428:	f04f 0000 	mov.w	r0, #0
 800042c:	bd70      	pop	{r4, r5, r6, pc}
 800042e:	ea50 0641 	orrs.w	r6, r0, r1, lsl #1
 8000432:	bf06      	itte	eq
 8000434:	4610      	moveq	r0, r2
 8000436:	4619      	moveq	r1, r3
 8000438:	ea52 0643 	orrsne.w	r6, r2, r3, lsl #1
 800043c:	d019      	beq.n	8000472 <__aeabi_dmul+0x24a>
 800043e:	ea94 0f0c 	teq	r4, ip
 8000442:	d102      	bne.n	800044a <__aeabi_dmul+0x222>
 8000444:	ea50 3601 	orrs.w	r6, r0, r1, lsl #12
 8000448:	d113      	bne.n	8000472 <__aeabi_dmul+0x24a>
 800044a:	ea95 0f0c 	teq	r5, ip
 800044e:	d105      	bne.n	800045c <__aeabi_dmul+0x234>
 8000450:	ea52 3603 	orrs.w	r6, r2, r3, lsl #12
 8000454:	bf1c      	itt	ne
 8000456:	4610      	movne	r0, r2
 8000458:	4619      	movne	r1, r3
 800045a:	d10a      	bne.n	8000472 <__aeabi_dmul+0x24a>
 800045c:	ea81 0103 	eor.w	r1, r1, r3
 8000460:	f001 4100 	and.w	r1, r1, #2147483648	; 0x80000000
 8000464:	f041 41fe 	orr.w	r1, r1, #2130706432	; 0x7f000000
 8000468:	f441 0170 	orr.w	r1, r1, #15728640	; 0xf00000
 800046c:	f04f 0000 	mov.w	r0, #0
 8000470:	bd70      	pop	{r4, r5, r6, pc}
 8000472:	f041 41fe 	orr.w	r1, r1, #2130706432	; 0x7f000000
 8000476:	f441 0178 	orr.w	r1, r1, #16252928	; 0xf80000
 800047a:	bd70      	pop	{r4, r5, r6, pc}

0800047c <__aeabi_drsub>:
 800047c:	f081 4100 	eor.w	r1, r1, #2147483648	; 0x80000000
 8000480:	e002      	b.n	8000488 <__adddf3>
 8000482:	bf00      	nop

08000484 <__aeabi_dsub>:
 8000484:	f083 4300 	eor.w	r3, r3, #2147483648	; 0x80000000

08000488 <__adddf3>:
 8000488:	b530      	push	{r4, r5, lr}
 800048a:	ea4f 0441 	mov.w	r4, r1, lsl #1
 800048e:	ea4f 0543 	mov.w	r5, r3, lsl #1
 8000492:	ea94 0f05 	teq	r4, r5
 8000496:	bf08      	it	eq
 8000498:	ea90 0f02 	teqeq	r0, r2
 800049c:	bf1f      	itttt	ne
 800049e:	ea54 0c00 	orrsne.w	ip, r4, r0
 80004a2:	ea55 0c02 	orrsne.w	ip, r5, r2
 80004a6:	ea7f 5c64 	mvnsne.w	ip, r4, asr #21
 80004aa:	ea7f 5c65 	mvnsne.w	ip, r5, asr #21
 80004ae:	f000 80e2 	beq.w	8000676 <__adddf3+0x1ee>
 80004b2:	ea4f 5454 	mov.w	r4, r4, lsr #21
 80004b6:	ebd4 5555 	rsbs	r5, r4, r5, lsr #21
 80004ba:	bfb8      	it	lt
 80004bc:	426d      	neglt	r5, r5
 80004be:	dd0c      	ble.n	80004da <__adddf3+0x52>
 80004c0:	442c      	add	r4, r5
 80004c2:	ea80 0202 	eor.w	r2, r0, r2
 80004c6:	ea81 0303 	eor.w	r3, r1, r3
 80004ca:	ea82 0000 	eor.w	r0, r2, r0
 80004ce:	ea83 0101 	eor.w	r1, r3, r1
 80004d2:	ea80 0202 	eor.w	r2, r0, r2
 80004d6:	ea81 0303 	eor.w	r3, r1, r3
 80004da:	2d36      	cmp	r5, #54	; 0x36
 80004dc:	bf88      	it	hi
 80004de:	bd30      	pophi	{r4, r5, pc}
 80004e0:	f011 4f00 	tst.w	r1, #2147483648	; 0x80000000
 80004e4:	ea4f 3101 	mov.w	r1, r1, lsl #12
 80004e8:	f44f 1c80 	mov.w	ip, #1048576	; 0x100000
 80004ec:	ea4c 3111 	orr.w	r1, ip, r1, lsr #12
 80004f0:	d002      	beq.n	80004f8 <__adddf3+0x70>
 80004f2:	4240      	negs	r0, r0
 80004f4:	eb61 0141 	sbc.w	r1, r1, r1, lsl #1
 80004f8:	f013 4f00 	tst.w	r3, #2147483648	; 0x80000000
 80004fc:	ea4f 3303 	mov.w	r3, r3, lsl #12
 8000500:	ea4c 3313 	orr.w	r3, ip, r3, lsr #12
 8000504:	d002      	beq.n	800050c <__adddf3+0x84>
 8000506:	4252      	negs	r2, r2
 8000508:	eb63 0343 	sbc.w	r3, r3, r3, lsl #1
 800050c:	ea94 0f05 	teq	r4, r5
 8000510:	f000 80a7 	beq.w	8000662 <__adddf3+0x1da>
 8000514:	f1a4 0401 	sub.w	r4, r4, #1
 8000518:	f1d5 0e20 	rsbs	lr, r5, #32
 800051c:	db0d      	blt.n	800053a <__adddf3+0xb2>
 800051e:	fa02 fc0e 	lsl.w	ip, r2, lr
 8000522:	fa22 f205 	lsr.w	r2, r2, r5
 8000526:	1880      	adds	r0, r0, r2
 8000528:	f141 0100 	adc.w	r1, r1, #0
 800052c:	fa03 f20e 	lsl.w	r2, r3, lr
 8000530:	1880      	adds	r0, r0, r2
 8000532:	fa43 f305 	asr.w	r3, r3, r5
 8000536:	4159      	adcs	r1, r3
 8000538:	e00e      	b.n	8000558 <__adddf3+0xd0>
 800053a:	f1a5 0520 	sub.w	r5, r5, #32
 800053e:	f10e 0e20 	add.w	lr, lr, #32
 8000542:	2a01      	cmp	r2, #1
 8000544:	fa03 fc0e 	lsl.w	ip, r3, lr
 8000548:	bf28      	it	cs
 800054a:	f04c 0c02 	orrcs.w	ip, ip, #2
 800054e:	fa43 f305 	asr.w	r3, r3, r5
 8000552:	18c0      	adds	r0, r0, r3
 8000554:	eb51 71e3 	adcs.w	r1, r1, r3, asr #31
 8000558:	f001 4500 	and.w	r5, r1, #2147483648	; 0x80000000
 800055c:	d507      	bpl.n	800056e <__adddf3+0xe6>
 800055e:	f04f 0e00 	mov.w	lr, #0
 8000562:	f1dc 0c00 	rsbs	ip, ip, #0
 8000566:	eb7e 0000 	sbcs.w	r0, lr, r0
 800056a:	eb6e 0101 	sbc.w	r1, lr, r1
 800056e:	f5b1 1f80 	cmp.w	r1, #1048576	; 0x100000
 8000572:	d31b      	bcc.n	80005ac <__adddf3+0x124>
 8000574:	f5b1 1f00 	cmp.w	r1, #2097152	; 0x200000
 8000578:	d30c      	bcc.n	8000594 <__adddf3+0x10c>
 800057a:	0849      	lsrs	r1, r1, #1
 800057c:	ea5f 0030 	movs.w	r0, r0, rrx
 8000580:	ea4f 0c3c 	mov.w	ip, ip, rrx
 8000584:	f104 0401 	add.w	r4, r4, #1
 8000588:	ea4f 5244 	mov.w	r2, r4, lsl #21
 800058c:	f512 0f80 	cmn.w	r2, #4194304	; 0x400000
 8000590:	f080 809a 	bcs.w	80006c8 <__adddf3+0x240>
 8000594:	f1bc 4f00 	cmp.w	ip, #2147483648	; 0x80000000
 8000598:	bf08      	it	eq
 800059a:	ea5f 0c50 	movseq.w	ip, r0, lsr #1
 800059e:	f150 0000 	adcs.w	r0, r0, #0
 80005a2:	eb41 5104 	adc.w	r1, r1, r4, lsl #20
 80005a6:	ea41 0105 	orr.w	r1, r1, r5
 80005aa:	bd30      	pop	{r4, r5, pc}
 80005ac:	ea5f 0c4c 	movs.w	ip, ip, lsl #1
 80005b0:	4140      	adcs	r0, r0
 80005b2:	eb41 0101 	adc.w	r1, r1, r1
 80005b6:	3c01      	subs	r4, #1
 80005b8:	bf28      	it	cs
 80005ba:	f5b1 1f80 	cmpcs.w	r1, #1048576	; 0x100000
 80005be:	d2e9      	bcs.n	8000594 <__adddf3+0x10c>
 80005c0:	f091 0f00 	teq	r1, #0
 80005c4:	bf04      	itt	eq
 80005c6:	4601      	moveq	r1, r0
 80005c8:	2000      	moveq	r0, #0
 80005ca:	fab1 f381 	clz	r3, r1
 80005ce:	bf08      	it	eq
 80005d0:	3320      	addeq	r3, #32
 80005d2:	f1a3 030b 	sub.w	r3, r3, #11
 80005d6:	f1b3 0220 	subs.w	r2, r3, #32
 80005da:	da0c      	bge.n	80005f6 <__adddf3+0x16e>
 80005dc:	320c      	adds	r2, #12
 80005de:	dd08      	ble.n	80005f2 <__adddf3+0x16a>
 80005e0:	f102 0c14 	add.w	ip, r2, #20
 80005e4:	f1c2 020c 	rsb	r2, r2, #12
 80005e8:	fa01 f00c 	lsl.w	r0, r1, ip
 80005ec:	fa21 f102 	lsr.w	r1, r1, r2
 80005f0:	e00c      	b.n	800060c <__adddf3+0x184>
 80005f2:	f102 0214 	add.w	r2, r2, #20
 80005f6:	bfd8      	it	le
 80005f8:	f1c2 0c20 	rsble	ip, r2, #32
 80005fc:	fa01 f102 	lsl.w	r1, r1, r2
 8000600:	fa20 fc0c 	lsr.w	ip, r0, ip
 8000604:	bfdc      	itt	le
 8000606:	ea41 010c 	orrle.w	r1, r1, ip
 800060a:	4090      	lslle	r0, r2
 800060c:	1ae4      	subs	r4, r4, r3
 800060e:	bfa2      	ittt	ge
 8000610:	eb01 5104 	addge.w	r1, r1, r4, lsl #20
 8000614:	4329      	orrge	r1, r5
 8000616:	bd30      	popge	{r4, r5, pc}
 8000618:	ea6f 0404 	mvn.w	r4, r4
 800061c:	3c1f      	subs	r4, #31
 800061e:	da1c      	bge.n	800065a <__adddf3+0x1d2>
 8000620:	340c      	adds	r4, #12
 8000622:	dc0e      	bgt.n	8000642 <__adddf3+0x1ba>
 8000624:	f104 0414 	add.w	r4, r4, #20
 8000628:	f1c4 0220 	rsb	r2, r4, #32
 800062c:	fa20 f004 	lsr.w	r0, r0, r4
 8000630:	fa01 f302 	lsl.w	r3, r1, r2
 8000634:	ea40 0003 	orr.w	r0, r0, r3
 8000638:	fa21 f304 	lsr.w	r3, r1, r4
 800063c:	ea45 0103 	orr.w	r1, r5, r3
 8000640:	bd30      	pop	{r4, r5, pc}
 8000642:	f1c4 040c 	rsb	r4, r4, #12
 8000646:	f1c4 0220 	rsb	r2, r4, #32
 800064a:	fa20 f002 	lsr.w	r0, r0, r2
 800064e:	fa01 f304 	lsl.w	r3, r1, r4
 8000652:	ea40 0003 	orr.w	r0, r0, r3
 8000656:	4629      	mov	r1, r5
 8000658:	bd30      	pop	{r4, r5, pc}
 800065a:	fa21 f004 	lsr.w	r0, r1, r4
 800065e:	4629      	mov	r1, r5
 8000660:	bd30      	pop	{r4, r5, pc}
 8000662:	f094 0f00 	teq	r4, #0
 8000666:	f483 1380 	eor.w	r3, r3, #1048576	; 0x100000
 800066a:	bf06      	itte	eq
 800066c:	f481 1180 	eoreq.w	r1, r1, #1048576	; 0x100000
 8000670:	3401      	addeq	r4, #1
 8000672:	3d01      	subne	r5, #1
 8000674:	e74e      	b.n	8000514 <__adddf3+0x8c>
 8000676:	ea7f 5c64 	mvns.w	ip, r4, asr #21
 800067a:	bf18      	it	ne
 800067c:	ea7f 5c65 	mvnsne.w	ip, r5, asr #21
 8000680:	d029      	beq.n	80006d6 <__adddf3+0x24e>
 8000682:	ea94 0f05 	teq	r4, r5
 8000686:	bf08      	it	eq
 8000688:	ea90 0f02 	teqeq	r0, r2
 800068c:	d005      	beq.n	800069a <__adddf3+0x212>
 800068e:	ea54 0c00 	orrs.w	ip, r4, r0
 8000692:	bf04      	itt	eq
 8000694:	4619      	moveq	r1, r3
 8000696:	4610      	moveq	r0, r2
 8000698:	bd30      	pop	{r4, r5, pc}
 800069a:	ea91 0f03 	teq	r1, r3
 800069e:	bf1e      	ittt	ne
 80006a0:	2100      	movne	r1, #0
 80006a2:	2000      	movne	r0, #0
 80006a4:	bd30      	popne	{r4, r5, pc}
 80006a6:	ea5f 5c54 	movs.w	ip, r4, lsr #21
 80006aa:	d105      	bne.n	80006b8 <__adddf3+0x230>
 80006ac:	0040      	lsls	r0, r0, #1
 80006ae:	4149      	adcs	r1, r1
 80006b0:	bf28      	it	cs
 80006b2:	f041 4100 	orrcs.w	r1, r1, #2147483648	; 0x80000000
 80006b6:	bd30      	pop	{r4, r5, pc}
 80006b8:	f514 0480 	adds.w	r4, r4, #4194304	; 0x400000
 80006bc:	bf3c      	itt	cc
 80006be:	f501 1180 	addcc.w	r1, r1, #1048576	; 0x100000
 80006c2:	bd30      	popcc	{r4, r5, pc}
 80006c4:	f001 4500 	and.w	r5, r1, #2147483648	; 0x80000000
 80006c8:	f045 41fe 	orr.w	r1, r5, #2130706432	; 0x7f000000
 80006cc:	f441 0170 	orr.w	r1, r1, #15728640	; 0xf00000
 80006d0:	f04f 0000 	mov.w	r0, #0
 80006d4:	bd30      	pop	{r4, r5, pc}
 80006d6:	ea7f 5c64 	mvns.w	ip, r4, asr #21
 80006da:	bf1a      	itte	ne
 80006dc:	4619      	movne	r1, r3
 80006de:	4610      	movne	r0, r2
 80006e0:	ea7f 5c65 	mvnseq.w	ip, r5, asr #21
 80006e4:	bf1c      	itt	ne
 80006e6:	460b      	movne	r3, r1
 80006e8:	4602      	movne	r2, r0
 80006ea:	ea50 3401 	orrs.w	r4, r0, r1, lsl #12
 80006ee:	bf06      	itte	eq
 80006f0:	ea52 3503 	orrseq.w	r5, r2, r3, lsl #12
 80006f4:	ea91 0f03 	teqeq	r1, r3
 80006f8:	f441 2100 	orrne.w	r1, r1, #524288	; 0x80000
 80006fc:	bd30      	pop	{r4, r5, pc}
 80006fe:	bf00      	nop

08000700 <__aeabi_ui2d>:
 8000700:	f090 0f00 	teq	r0, #0
 8000704:	bf04      	itt	eq
 8000706:	2100      	moveq	r1, #0
 8000708:	4770      	bxeq	lr
 800070a:	b530      	push	{r4, r5, lr}
 800070c:	f44f 6480 	mov.w	r4, #1024	; 0x400
 8000710:	f104 0432 	add.w	r4, r4, #50	; 0x32
 8000714:	f04f 0500 	mov.w	r5, #0
 8000718:	f04f 0100 	mov.w	r1, #0
 800071c:	e750      	b.n	80005c0 <__adddf3+0x138>
 800071e:	bf00      	nop

08000720 <__aeabi_i2d>:
 8000720:	f090 0f00 	teq	r0, #0
 8000724:	bf04      	itt	eq
 8000726:	2100      	moveq	r1, #0
 8000728:	4770      	bxeq	lr
 800072a:	b530      	push	{r4, r5, lr}
 800072c:	f44f 6480 	mov.w	r4, #1024	; 0x400
 8000730:	f104 0432 	add.w	r4, r4, #50	; 0x32
 8000734:	f010 4500 	ands.w	r5, r0, #2147483648	; 0x80000000
 8000738:	bf48      	it	mi
 800073a:	4240      	negmi	r0, r0
 800073c:	f04f 0100 	mov.w	r1, #0
 8000740:	e73e      	b.n	80005c0 <__adddf3+0x138>
 8000742:	bf00      	nop

08000744 <__aeabi_f2d>:
 8000744:	0042      	lsls	r2, r0, #1
 8000746:	ea4f 01e2 	mov.w	r1, r2, asr #3
 800074a:	ea4f 0131 	mov.w	r1, r1, rrx
 800074e:	ea4f 7002 	mov.w	r0, r2, lsl #28
 8000752:	bf1f      	itttt	ne
 8000754:	f012 437f 	andsne.w	r3, r2, #4278190080	; 0xff000000
 8000758:	f093 4f7f 	teqne	r3, #4278190080	; 0xff000000
 800075c:	f081 5160 	eorne.w	r1, r1, #939524096	; 0x38000000
 8000760:	4770      	bxne	lr
 8000762:	f032 427f 	bics.w	r2, r2, #4278190080	; 0xff000000
 8000766:	bf08      	it	eq
 8000768:	4770      	bxeq	lr
 800076a:	f093 4f7f 	teq	r3, #4278190080	; 0xff000000
 800076e:	bf04      	itt	eq
 8000770:	f441 2100 	orreq.w	r1, r1, #524288	; 0x80000
 8000774:	4770      	bxeq	lr
 8000776:	b530      	push	{r4, r5, lr}
 8000778:	f44f 7460 	mov.w	r4, #896	; 0x380
 800077c:	f001 4500 	and.w	r5, r1, #2147483648	; 0x80000000
 8000780:	f021 4100 	bic.w	r1, r1, #2147483648	; 0x80000000
 8000784:	e71c      	b.n	80005c0 <__adddf3+0x138>
 8000786:	bf00      	nop

08000788 <__aeabi_ul2d>:
 8000788:	ea50 0201 	orrs.w	r2, r0, r1
 800078c:	bf08      	it	eq
 800078e:	4770      	bxeq	lr
 8000790:	b530      	push	{r4, r5, lr}
 8000792:	f04f 0500 	mov.w	r5, #0
 8000796:	e00a      	b.n	80007ae <__aeabi_l2d+0x16>

08000798 <__aeabi_l2d>:
 8000798:	ea50 0201 	orrs.w	r2, r0, r1
 800079c:	bf08      	it	eq
 800079e:	4770      	bxeq	lr
 80007a0:	b530      	push	{r4, r5, lr}
 80007a2:	f011 4500 	ands.w	r5, r1, #2147483648	; 0x80000000
 80007a6:	d502      	bpl.n	80007ae <__aeabi_l2d+0x16>
 80007a8:	4240      	negs	r0, r0
 80007aa:	eb61 0141 	sbc.w	r1, r1, r1, lsl #1
 80007ae:	f44f 6480 	mov.w	r4, #1024	; 0x400
 80007b2:	f104 0432 	add.w	r4, r4, #50	; 0x32
 80007b6:	ea5f 5c91 	movs.w	ip, r1, lsr #22
 80007ba:	f43f aed8 	beq.w	800056e <__adddf3+0xe6>
 80007be:	f04f 0203 	mov.w	r2, #3
 80007c2:	ea5f 0cdc 	movs.w	ip, ip, lsr #3
 80007c6:	bf18      	it	ne
 80007c8:	3203      	addne	r2, #3
 80007ca:	ea5f 0cdc 	movs.w	ip, ip, lsr #3
 80007ce:	bf18      	it	ne
 80007d0:	3203      	addne	r2, #3
 80007d2:	eb02 02dc 	add.w	r2, r2, ip, lsr #3
 80007d6:	f1c2 0320 	rsb	r3, r2, #32
 80007da:	fa00 fc03 	lsl.w	ip, r0, r3
 80007de:	fa20 f002 	lsr.w	r0, r0, r2
 80007e2:	fa01 fe03 	lsl.w	lr, r1, r3
 80007e6:	ea40 000e 	orr.w	r0, r0, lr
 80007ea:	fa21 f102 	lsr.w	r1, r1, r2
 80007ee:	4414      	add	r4, r2
 80007f0:	e6bd      	b.n	800056e <__adddf3+0xe6>
 80007f2:	bf00      	nop

080007f4 <__aeabi_d2uiz>:
 80007f4:	004a      	lsls	r2, r1, #1
 80007f6:	d211      	bcs.n	800081c <__aeabi_d2uiz+0x28>
 80007f8:	f512 1200 	adds.w	r2, r2, #2097152	; 0x200000
 80007fc:	d211      	bcs.n	8000822 <__aeabi_d2uiz+0x2e>
 80007fe:	d50d      	bpl.n	800081c <__aeabi_d2uiz+0x28>
 8000800:	f46f 7378 	mvn.w	r3, #992	; 0x3e0
 8000804:	ebb3 5262 	subs.w	r2, r3, r2, asr #21
 8000808:	d40e      	bmi.n	8000828 <__aeabi_d2uiz+0x34>
 800080a:	ea4f 23c1 	mov.w	r3, r1, lsl #11
 800080e:	f043 4300 	orr.w	r3, r3, #2147483648	; 0x80000000
 8000812:	ea43 5350 	orr.w	r3, r3, r0, lsr #21
 8000816:	fa23 f002 	lsr.w	r0, r3, r2
 800081a:	4770      	bx	lr
 800081c:	f04f 0000 	mov.w	r0, #0
 8000820:	4770      	bx	lr
 8000822:	ea50 3001 	orrs.w	r0, r0, r1, lsl #12
 8000826:	d102      	bne.n	800082e <__aeabi_d2uiz+0x3a>
 8000828:	f04f 30ff 	mov.w	r0, #4294967295
 800082c:	4770      	bx	lr
 800082e:	f04f 0000 	mov.w	r0, #0
 8000832:	4770      	bx	lr

08000834 <LCD_WR_REG>:
 8000834:	f44f 7280 	mov.w	r2, #256	; 0x100
 8000838:	4b05      	ldr	r3, [pc, #20]	; (8000850 <LCD_WR_REG+0x1c>)
 800083a:	4906      	ldr	r1, [pc, #24]	; (8000854 <LCD_WR_REG+0x20>)
 800083c:	615a      	str	r2, [r3, #20]
 800083e:	f44f 7200 	mov.w	r2, #512	; 0x200
 8000842:	615a      	str	r2, [r3, #20]
 8000844:	60c8      	str	r0, [r1, #12]
 8000846:	2180      	movs	r1, #128	; 0x80
 8000848:	6159      	str	r1, [r3, #20]
 800084a:	6119      	str	r1, [r3, #16]
 800084c:	611a      	str	r2, [r3, #16]
 800084e:	4770      	bx	lr
 8000850:	40011000 	.word	0x40011000
 8000854:	40010c00 	.word	0x40010c00

08000858 <LCD_RD_DATA>:
 8000858:	b538      	push	{r3, r4, r5, lr}
 800085a:	f04f 3388 	mov.w	r3, #2290649224	; 0x88888888
 800085e:	4c13      	ldr	r4, [pc, #76]	; (80008ac <LCD_RD_DATA+0x54>)
 8000860:	4d13      	ldr	r5, [pc, #76]	; (80008b0 <LCD_RD_DATA+0x58>)
 8000862:	6023      	str	r3, [r4, #0]
 8000864:	6063      	str	r3, [r4, #4]
 8000866:	2300      	movs	r3, #0
 8000868:	60e3      	str	r3, [r4, #12]
 800086a:	f44f 7380 	mov.w	r3, #256	; 0x100
 800086e:	612b      	str	r3, [r5, #16]
 8000870:	f44f 7300 	mov.w	r3, #512	; 0x200
 8000874:	616b      	str	r3, [r5, #20]
 8000876:	2340      	movs	r3, #64	; 0x40
 8000878:	616b      	str	r3, [r5, #20]
 800087a:	4b0e      	ldr	r3, [pc, #56]	; (80008b4 <LCD_RD_DATA+0x5c>)
 800087c:	889a      	ldrh	r2, [r3, #4]
 800087e:	f648 1389 	movw	r3, #35209	; 0x8989
 8000882:	429a      	cmp	r2, r3
 8000884:	d102      	bne.n	800088c <LCD_RD_DATA+0x34>
 8000886:	2001      	movs	r0, #1
 8000888:	f004 fc50 	bl	800512c <HAL_Delay>
 800088c:	2340      	movs	r3, #64	; 0x40
 800088e:	68a0      	ldr	r0, [r4, #8]
 8000890:	612b      	str	r3, [r5, #16]
 8000892:	f44f 7300 	mov.w	r3, #512	; 0x200
 8000896:	612b      	str	r3, [r5, #16]
 8000898:	f04f 3333 	mov.w	r3, #858993459	; 0x33333333
 800089c:	6023      	str	r3, [r4, #0]
 800089e:	6063      	str	r3, [r4, #4]
 80008a0:	f64f 73ff 	movw	r3, #65535	; 0xffff
 80008a4:	b280      	uxth	r0, r0
 80008a6:	60e3      	str	r3, [r4, #12]
 80008a8:	bd38      	pop	{r3, r4, r5, pc}
 80008aa:	bf00      	nop
 80008ac:	40010c00 	.word	0x40010c00
 80008b0:	40011000 	.word	0x40011000
 80008b4:	2000007e 	.word	0x2000007e

080008b8 <LCD_WriteReg>:
 80008b8:	b510      	push	{r4, lr}
 80008ba:	460c      	mov	r4, r1
 80008bc:	f7ff ffba 	bl	8000834 <LCD_WR_REG>
 80008c0:	f44f 7280 	mov.w	r2, #256	; 0x100
 80008c4:	4b05      	ldr	r3, [pc, #20]	; (80008dc <LCD_WriteReg+0x24>)
 80008c6:	4906      	ldr	r1, [pc, #24]	; (80008e0 <LCD_WriteReg+0x28>)
 80008c8:	611a      	str	r2, [r3, #16]
 80008ca:	f44f 7200 	mov.w	r2, #512	; 0x200
 80008ce:	615a      	str	r2, [r3, #20]
 80008d0:	60cc      	str	r4, [r1, #12]
 80008d2:	2180      	movs	r1, #128	; 0x80
 80008d4:	6159      	str	r1, [r3, #20]
 80008d6:	6119      	str	r1, [r3, #16]
 80008d8:	611a      	str	r2, [r3, #16]
 80008da:	bd10      	pop	{r4, pc}
 80008dc:	40011000 	.word	0x40011000
 80008e0:	40010c00 	.word	0x40010c00

080008e4 <LCD_ReadReg>:
 80008e4:	b508      	push	{r3, lr}
 80008e6:	f7ff ffa5 	bl	8000834 <LCD_WR_REG>
 80008ea:	e8bd 4008 	ldmia.w	sp!, {r3, lr}
 80008ee:	f7ff bfb3 	b.w	8000858 <LCD_RD_DATA>
	...

080008f4 <LCD_WriteRAM_Prepare>:
 80008f4:	4b01      	ldr	r3, [pc, #4]	; (80008fc <LCD_WriteRAM_Prepare+0x8>)
 80008f6:	8918      	ldrh	r0, [r3, #8]
 80008f8:	f7ff bf9c 	b.w	8000834 <LCD_WR_REG>
 80008fc:	2000007e 	.word	0x2000007e

08000900 <LCD_WriteRAM>:
 8000900:	f44f 7280 	mov.w	r2, #256	; 0x100
 8000904:	4b05      	ldr	r3, [pc, #20]	; (800091c <LCD_WriteRAM+0x1c>)
 8000906:	4906      	ldr	r1, [pc, #24]	; (8000920 <LCD_WriteRAM+0x20>)
 8000908:	611a      	str	r2, [r3, #16]
 800090a:	f44f 7200 	mov.w	r2, #512	; 0x200
 800090e:	615a      	str	r2, [r3, #20]
 8000910:	60c8      	str	r0, [r1, #12]
 8000912:	2180      	movs	r1, #128	; 0x80
 8000914:	6159      	str	r1, [r3, #20]
 8000916:	6119      	str	r1, [r3, #16]
 8000918:	611a      	str	r2, [r3, #16]
 800091a:	4770      	bx	lr
 800091c:	40011000 	.word	0x40011000
 8000920:	40010c00 	.word	0x40010c00

08000924 <LCD_SetCursor>:
 8000924:	f249 3241 	movw	r2, #37697	; 0x9341
 8000928:	e92d 4ff8 	stmdb	sp!, {r3, r4, r5, r6, r7, r8, r9, sl, fp, lr}
 800092c:	f8df 923c 	ldr.w	r9, [pc, #572]	; 8000b6c <LCD_SetCursor+0x248>
 8000930:	4605      	mov	r5, r0
 8000932:	f8b9 3004 	ldrh.w	r3, [r9, #4]
 8000936:	460e      	mov	r6, r1
 8000938:	4293      	cmp	r3, r2
 800093a:	f8b9 000a 	ldrh.w	r0, [r9, #10]
 800093e:	f8b9 800c 	ldrh.w	r8, [r9, #12]
 8000942:	d003      	beq.n	800094c <LCD_SetCursor+0x28>
 8000944:	f245 3210 	movw	r2, #21264	; 0x5310
 8000948:	4293      	cmp	r3, r2
 800094a:	d13a      	bne.n	80009c2 <LCD_SetCursor+0x9e>
 800094c:	f44f 7700 	mov.w	r7, #512	; 0x200
 8000950:	f04f 0980 	mov.w	r9, #128	; 0x80
 8000954:	f44f 7b80 	mov.w	fp, #256	; 0x100
 8000958:	4c85      	ldr	r4, [pc, #532]	; (8000b70 <LCD_SetCursor+0x24c>)
 800095a:	f8df a218 	ldr.w	sl, [pc, #536]	; 8000b74 <LCD_SetCursor+0x250>
 800095e:	f7ff ff69 	bl	8000834 <LCD_WR_REG>
 8000962:	0a2b      	lsrs	r3, r5, #8
 8000964:	b2ed      	uxtb	r5, r5
 8000966:	f8c4 b010 	str.w	fp, [r4, #16]
 800096a:	4640      	mov	r0, r8
 800096c:	6167      	str	r7, [r4, #20]
 800096e:	f8ca 300c 	str.w	r3, [sl, #12]
 8000972:	f8c4 9014 	str.w	r9, [r4, #20]
 8000976:	f8c4 9010 	str.w	r9, [r4, #16]
 800097a:	6127      	str	r7, [r4, #16]
 800097c:	f8c4 b010 	str.w	fp, [r4, #16]
 8000980:	6167      	str	r7, [r4, #20]
 8000982:	f8ca 500c 	str.w	r5, [sl, #12]
 8000986:	f8c4 9014 	str.w	r9, [r4, #20]
 800098a:	f8c4 9010 	str.w	r9, [r4, #16]
 800098e:	6127      	str	r7, [r4, #16]
 8000990:	f7ff ff50 	bl	8000834 <LCD_WR_REG>
 8000994:	0a33      	lsrs	r3, r6, #8
 8000996:	f8c4 b010 	str.w	fp, [r4, #16]
 800099a:	6167      	str	r7, [r4, #20]
 800099c:	f8ca 300c 	str.w	r3, [sl, #12]
 80009a0:	f8c4 9014 	str.w	r9, [r4, #20]
 80009a4:	f8c4 9010 	str.w	r9, [r4, #16]
 80009a8:	6127      	str	r7, [r4, #16]
 80009aa:	b2f6      	uxtb	r6, r6
 80009ac:	f8c4 b010 	str.w	fp, [r4, #16]
 80009b0:	6167      	str	r7, [r4, #20]
 80009b2:	f8ca 600c 	str.w	r6, [sl, #12]
 80009b6:	f8c4 9014 	str.w	r9, [r4, #20]
 80009ba:	f8c4 9010 	str.w	r9, [r4, #16]
 80009be:	6127      	str	r7, [r4, #16]
 80009c0:	e069      	b.n	8000a96 <LCD_SetCursor+0x172>
 80009c2:	f646 0204 	movw	r2, #26628	; 0x6804
 80009c6:	4293      	cmp	r3, r2
 80009c8:	d10a      	bne.n	80009e0 <LCD_SetCursor+0xbc>
 80009ca:	f899 3006 	ldrb.w	r3, [r9, #6]
 80009ce:	2b01      	cmp	r3, #1
 80009d0:	bf01      	itttt	eq
 80009d2:	f8b9 3000 	ldrheq.w	r3, [r9]
 80009d6:	f103 33ff 	addeq.w	r3, r3, #4294967295
 80009da:	1b5b      	subeq	r3, r3, r5
 80009dc:	b29d      	uxtheq	r5, r3
 80009de:	e7b5      	b.n	800094c <LCD_SetCursor+0x28>
 80009e0:	f641 1263 	movw	r2, #6499	; 0x1963
 80009e4:	4293      	cmp	r3, r2
 80009e6:	d172      	bne.n	8000ace <LCD_SetCursor+0x1aa>
 80009e8:	f8b9 7000 	ldrh.w	r7, [r9]
 80009ec:	f899 a006 	ldrb.w	sl, [r9, #6]
 80009f0:	4c5f      	ldr	r4, [pc, #380]	; (8000b70 <LCD_SetCursor+0x24c>)
 80009f2:	3f01      	subs	r7, #1
 80009f4:	f1ba 0f00 	cmp.w	sl, #0
 80009f8:	d14f      	bne.n	8000a9a <LCD_SetCursor+0x176>
 80009fa:	f7ff ff1b 	bl	8000834 <LCD_WR_REG>
 80009fe:	f44f 7300 	mov.w	r3, #512	; 0x200
 8000a02:	2280      	movs	r2, #128	; 0x80
 8000a04:	f44f 7080 	mov.w	r0, #256	; 0x100
 8000a08:	495a      	ldr	r1, [pc, #360]	; (8000b74 <LCD_SetCursor+0x250>)
 8000a0a:	1b7f      	subs	r7, r7, r5
 8000a0c:	b2bf      	uxth	r7, r7
 8000a0e:	6120      	str	r0, [r4, #16]
 8000a10:	0a3d      	lsrs	r5, r7, #8
 8000a12:	6163      	str	r3, [r4, #20]
 8000a14:	f8c1 a00c 	str.w	sl, [r1, #12]
 8000a18:	6162      	str	r2, [r4, #20]
 8000a1a:	6122      	str	r2, [r4, #16]
 8000a1c:	6123      	str	r3, [r4, #16]
 8000a1e:	6120      	str	r0, [r4, #16]
 8000a20:	6163      	str	r3, [r4, #20]
 8000a22:	f8c1 a00c 	str.w	sl, [r1, #12]
 8000a26:	6162      	str	r2, [r4, #20]
 8000a28:	6122      	str	r2, [r4, #16]
 8000a2a:	6123      	str	r3, [r4, #16]
 8000a2c:	6120      	str	r0, [r4, #16]
 8000a2e:	6163      	str	r3, [r4, #20]
 8000a30:	b2ff      	uxtb	r7, r7
 8000a32:	60cd      	str	r5, [r1, #12]
 8000a34:	6162      	str	r2, [r4, #20]
 8000a36:	6122      	str	r2, [r4, #16]
 8000a38:	6123      	str	r3, [r4, #16]
 8000a3a:	6120      	str	r0, [r4, #16]
 8000a3c:	6163      	str	r3, [r4, #20]
 8000a3e:	4640      	mov	r0, r8
 8000a40:	60cf      	str	r7, [r1, #12]
 8000a42:	6162      	str	r2, [r4, #20]
 8000a44:	6122      	str	r2, [r4, #16]
 8000a46:	6123      	str	r3, [r4, #16]
 8000a48:	f7ff fef4 	bl	8000834 <LCD_WR_REG>
 8000a4c:	f44f 7580 	mov.w	r5, #256	; 0x100
 8000a50:	f44f 7300 	mov.w	r3, #512	; 0x200
 8000a54:	4847      	ldr	r0, [pc, #284]	; (8000b74 <LCD_SetCursor+0x250>)
 8000a56:	0a32      	lsrs	r2, r6, #8
 8000a58:	6125      	str	r5, [r4, #16]
 8000a5a:	6163      	str	r3, [r4, #20]
 8000a5c:	60c2      	str	r2, [r0, #12]
 8000a5e:	2280      	movs	r2, #128	; 0x80
 8000a60:	f8b9 1002 	ldrh.w	r1, [r9, #2]
 8000a64:	b2f6      	uxtb	r6, r6
 8000a66:	3901      	subs	r1, #1
 8000a68:	6162      	str	r2, [r4, #20]
 8000a6a:	6122      	str	r2, [r4, #16]
 8000a6c:	6123      	str	r3, [r4, #16]
 8000a6e:	6125      	str	r5, [r4, #16]
 8000a70:	6163      	str	r3, [r4, #20]
 8000a72:	60c6      	str	r6, [r0, #12]
 8000a74:	120e      	asrs	r6, r1, #8
 8000a76:	b2c9      	uxtb	r1, r1
 8000a78:	6162      	str	r2, [r4, #20]
 8000a7a:	6122      	str	r2, [r4, #16]
 8000a7c:	6123      	str	r3, [r4, #16]
 8000a7e:	6125      	str	r5, [r4, #16]
 8000a80:	6163      	str	r3, [r4, #20]
 8000a82:	60c6      	str	r6, [r0, #12]
 8000a84:	6162      	str	r2, [r4, #20]
 8000a86:	6122      	str	r2, [r4, #16]
 8000a88:	6123      	str	r3, [r4, #16]
 8000a8a:	6125      	str	r5, [r4, #16]
 8000a8c:	6163      	str	r3, [r4, #20]
 8000a8e:	60c1      	str	r1, [r0, #12]
 8000a90:	6162      	str	r2, [r4, #20]
 8000a92:	6122      	str	r2, [r4, #16]
 8000a94:	6123      	str	r3, [r4, #16]
 8000a96:	e8bd 8ff8 	ldmia.w	sp!, {r3, r4, r5, r6, r7, r8, r9, sl, fp, pc}
 8000a9a:	f7ff fecb 	bl	8000834 <LCD_WR_REG>
 8000a9e:	f44f 7300 	mov.w	r3, #512	; 0x200
 8000aa2:	f44f 7080 	mov.w	r0, #256	; 0x100
 8000aa6:	4933      	ldr	r1, [pc, #204]	; (8000b74 <LCD_SetCursor+0x250>)
 8000aa8:	0a2a      	lsrs	r2, r5, #8
 8000aaa:	6120      	str	r0, [r4, #16]
 8000aac:	6163      	str	r3, [r4, #20]
 8000aae:	60ca      	str	r2, [r1, #12]
 8000ab0:	2280      	movs	r2, #128	; 0x80
 8000ab2:	b2ed      	uxtb	r5, r5
 8000ab4:	6162      	str	r2, [r4, #20]
 8000ab6:	6122      	str	r2, [r4, #16]
 8000ab8:	6123      	str	r3, [r4, #16]
 8000aba:	6120      	str	r0, [r4, #16]
 8000abc:	6163      	str	r3, [r4, #20]
 8000abe:	60cd      	str	r5, [r1, #12]
 8000ac0:	6162      	str	r2, [r4, #20]
 8000ac2:	123d      	asrs	r5, r7, #8
 8000ac4:	6122      	str	r2, [r4, #16]
 8000ac6:	6123      	str	r3, [r4, #16]
 8000ac8:	6120      	str	r0, [r4, #16]
 8000aca:	6163      	str	r3, [r4, #20]
 8000acc:	e7b0      	b.n	8000a30 <LCD_SetCursor+0x10c>
 8000ace:	f245 5210 	movw	r2, #21776	; 0x5510
 8000ad2:	4293      	cmp	r3, r2
 8000ad4:	d137      	bne.n	8000b46 <LCD_SetCursor+0x222>
 8000ad6:	f44f 7700 	mov.w	r7, #512	; 0x200
 8000ada:	f04f 0980 	mov.w	r9, #128	; 0x80
 8000ade:	f44f 7b80 	mov.w	fp, #256	; 0x100
 8000ae2:	4c23      	ldr	r4, [pc, #140]	; (8000b70 <LCD_SetCursor+0x24c>)
 8000ae4:	f8df a08c 	ldr.w	sl, [pc, #140]	; 8000b74 <LCD_SetCursor+0x250>
 8000ae8:	f7ff fea4 	bl	8000834 <LCD_WR_REG>
 8000aec:	0a2b      	lsrs	r3, r5, #8
 8000aee:	3001      	adds	r0, #1
 8000af0:	f8c4 b010 	str.w	fp, [r4, #16]
 8000af4:	b280      	uxth	r0, r0
 8000af6:	6167      	str	r7, [r4, #20]
 8000af8:	f8ca 300c 	str.w	r3, [sl, #12]
 8000afc:	f8c4 9014 	str.w	r9, [r4, #20]
 8000b00:	f8c4 9010 	str.w	r9, [r4, #16]
 8000b04:	6127      	str	r7, [r4, #16]
 8000b06:	f7ff fe95 	bl	8000834 <LCD_WR_REG>
 8000b0a:	4640      	mov	r0, r8
 8000b0c:	b2ed      	uxtb	r5, r5
 8000b0e:	f8c4 b010 	str.w	fp, [r4, #16]
 8000b12:	6167      	str	r7, [r4, #20]
 8000b14:	f8ca 500c 	str.w	r5, [sl, #12]
 8000b18:	f8c4 9014 	str.w	r9, [r4, #20]
 8000b1c:	f8c4 9010 	str.w	r9, [r4, #16]
 8000b20:	6127      	str	r7, [r4, #16]
 8000b22:	f7ff fe87 	bl	8000834 <LCD_WR_REG>
 8000b26:	0a33      	lsrs	r3, r6, #8
 8000b28:	3001      	adds	r0, #1
 8000b2a:	f8c4 b010 	str.w	fp, [r4, #16]
 8000b2e:	b280      	uxth	r0, r0
 8000b30:	6167      	str	r7, [r4, #20]
 8000b32:	f8ca 300c 	str.w	r3, [sl, #12]
 8000b36:	f8c4 9014 	str.w	r9, [r4, #20]
 8000b3a:	f8c4 9010 	str.w	r9, [r4, #16]
 8000b3e:	6127      	str	r7, [r4, #16]
 8000b40:	f7ff fe78 	bl	8000834 <LCD_WR_REG>
 8000b44:	e731      	b.n	80009aa <LCD_SetCursor+0x86>
 8000b46:	f899 3006 	ldrb.w	r3, [r9, #6]
 8000b4a:	2b01      	cmp	r3, #1
 8000b4c:	bf01      	itttt	eq
 8000b4e:	f8b9 3000 	ldrheq.w	r3, [r9]
 8000b52:	f103 33ff 	addeq.w	r3, r3, #4294967295
 8000b56:	1b5b      	subeq	r3, r3, r5
 8000b58:	b29d      	uxtheq	r5, r3
 8000b5a:	4629      	mov	r1, r5
 8000b5c:	f7ff feac 	bl	80008b8 <LCD_WriteReg>
 8000b60:	4631      	mov	r1, r6
 8000b62:	4640      	mov	r0, r8
 8000b64:	e8bd 4ff8 	ldmia.w	sp!, {r3, r4, r5, r6, r7, r8, r9, sl, fp, lr}
 8000b68:	f7ff bea6 	b.w	80008b8 <LCD_WriteReg>
 8000b6c:	2000007e 	.word	0x2000007e
 8000b70:	40011000 	.word	0x40011000
 8000b74:	40010c00 	.word	0x40010c00

08000b78 <LCD_Scan_Dir>:
 8000b78:	e92d 4ff7 	stmdb	sp!, {r0, r1, r2, r4, r5, r6, r7, r8, r9, sl, fp, lr}
 8000b7c:	4da8      	ldr	r5, [pc, #672]	; (8000e20 <LCD_Scan_Dir+0x2a8>)
 8000b7e:	f641 1363 	movw	r3, #6499	; 0x1963
 8000b82:	79aa      	ldrb	r2, [r5, #6]
 8000b84:	88ae      	ldrh	r6, [r5, #4]
 8000b86:	2a01      	cmp	r2, #1
 8000b88:	d125      	bne.n	8000bd6 <LCD_Scan_Dir+0x5e>
 8000b8a:	f646 0204 	movw	r2, #26628	; 0x6804
 8000b8e:	4296      	cmp	r6, r2
 8000b90:	d001      	beq.n	8000b96 <LCD_Scan_Dir+0x1e>
 8000b92:	429e      	cmp	r6, r3
 8000b94:	d122      	bne.n	8000bdc <LCD_Scan_Dir+0x64>
 8000b96:	3801      	subs	r0, #1
 8000b98:	b2c0      	uxtb	r0, r0
 8000b9a:	2806      	cmp	r0, #6
 8000b9c:	bf96      	itet	ls
 8000b9e:	4ba1      	ldrls	r3, [pc, #644]	; (8000e24 <LCD_Scan_Dir+0x2ac>)
 8000ba0:	2700      	movhi	r7, #0
 8000ba2:	5c1f      	ldrbls	r7, [r3, r0]
 8000ba4:	f245 5310 	movw	r3, #21776	; 0x5510
 8000ba8:	429e      	cmp	r6, r3
 8000baa:	f040 8125 	bne.w	8000df8 <LCD_Scan_Dir+0x280>
 8000bae:	f44f 5058 	mov.w	r0, #13824	; 0x3600
 8000bb2:	4639      	mov	r1, r7
 8000bb4:	f7ff fe80 	bl	80008b8 <LCD_WriteReg>
 8000bb8:	f641 1163 	movw	r1, #6499	; 0x1963
 8000bbc:	428e      	cmp	r6, r1
 8000bbe:	882b      	ldrh	r3, [r5, #0]
 8000bc0:	886a      	ldrh	r2, [r5, #2]
 8000bc2:	4c99      	ldr	r4, [pc, #612]	; (8000e28 <LCD_Scan_Dir+0x2b0>)
 8000bc4:	f000 80c0 	beq.w	8000d48 <LCD_Scan_Dir+0x1d0>
 8000bc8:	06b9      	lsls	r1, r7, #26
 8000bca:	d52e      	bpl.n	8000c2a <LCD_Scan_Dir+0xb2>
 8000bcc:	4293      	cmp	r3, r2
 8000bce:	d22e      	bcs.n	8000c2e <LCD_Scan_Dir+0xb6>
 8000bd0:	802a      	strh	r2, [r5, #0]
 8000bd2:	806b      	strh	r3, [r5, #2]
 8000bd4:	e02b      	b.n	8000c2e <LCD_Scan_Dir+0xb6>
 8000bd6:	b92a      	cbnz	r2, 8000be4 <LCD_Scan_Dir+0x6c>
 8000bd8:	429e      	cmp	r6, r3
 8000bda:	d103      	bne.n	8000be4 <LCD_Scan_Dir+0x6c>
 8000bdc:	2807      	cmp	r0, #7
 8000bde:	bf9c      	itt	ls
 8000be0:	4b92      	ldrls	r3, [pc, #584]	; (8000e2c <LCD_Scan_Dir+0x2b4>)
 8000be2:	5c18      	ldrbls	r0, [r3, r0]
 8000be4:	f249 3341 	movw	r3, #37697	; 0x9341
 8000be8:	429e      	cmp	r6, r3
 8000bea:	d0d4      	beq.n	8000b96 <LCD_Scan_Dir+0x1e>
 8000bec:	f646 0304 	movw	r3, #26628	; 0x6804
 8000bf0:	429e      	cmp	r6, r3
 8000bf2:	d0d0      	beq.n	8000b96 <LCD_Scan_Dir+0x1e>
 8000bf4:	f245 3310 	movw	r3, #21264	; 0x5310
 8000bf8:	429e      	cmp	r6, r3
 8000bfa:	d0cc      	beq.n	8000b96 <LCD_Scan_Dir+0x1e>
 8000bfc:	f245 5310 	movw	r3, #21776	; 0x5510
 8000c00:	429e      	cmp	r6, r3
 8000c02:	d0c8      	beq.n	8000b96 <LCD_Scan_Dir+0x1e>
 8000c04:	f641 1363 	movw	r3, #6499	; 0x1963
 8000c08:	429e      	cmp	r6, r3
 8000c0a:	d0c4      	beq.n	8000b96 <LCD_Scan_Dir+0x1e>
 8000c0c:	2807      	cmp	r0, #7
 8000c0e:	bf96      	itet	ls
 8000c10:	4b87      	ldrls	r3, [pc, #540]	; (8000e30 <LCD_Scan_Dir+0x2b8>)
 8000c12:	2100      	movhi	r1, #0
 8000c14:	5c19      	ldrbls	r1, [r3, r0]
 8000c16:	2003      	movs	r0, #3
 8000c18:	f441 5180 	orr.w	r1, r1, #4096	; 0x1000
 8000c1c:	b003      	add	sp, #12
 8000c1e:	e8bd 4ff0 	ldmia.w	sp!, {r4, r5, r6, r7, r8, r9, sl, fp, lr}
 8000c22:	f7ff be49 	b.w	80008b8 <LCD_WriteReg>
 8000c26:	461f      	mov	r7, r3
 8000c28:	e0f7      	b.n	8000e1a <LCD_Scan_Dir+0x2a2>
 8000c2a:	4293      	cmp	r3, r2
 8000c2c:	d8d0      	bhi.n	8000bd0 <LCD_Scan_Dir+0x58>
 8000c2e:	f245 5310 	movw	r3, #21776	; 0x5510
 8000c32:	429e      	cmp	r6, r3
 8000c34:	f8b5 9000 	ldrh.w	r9, [r5]
 8000c38:	886f      	ldrh	r7, [r5, #2]
 8000c3a:	f8b5 a00a 	ldrh.w	sl, [r5, #10]
 8000c3e:	f8b5 800c 	ldrh.w	r8, [r5, #12]
 8000c42:	f040 8081 	bne.w	8000d48 <LCD_Scan_Dir+0x1d0>
 8000c46:	f109 33ff 	add.w	r3, r9, #4294967295
 8000c4a:	f44f 7680 	mov.w	r6, #256	; 0x100
 8000c4e:	f04f 0980 	mov.w	r9, #128	; 0x80
 8000c52:	f04f 0b00 	mov.w	fp, #0
 8000c56:	9301      	str	r3, [sp, #4]
 8000c58:	1e7b      	subs	r3, r7, #1
 8000c5a:	f44f 7700 	mov.w	r7, #512	; 0x200
 8000c5e:	4d75      	ldr	r5, [pc, #468]	; (8000e34 <LCD_Scan_Dir+0x2bc>)
 8000c60:	4650      	mov	r0, sl
 8000c62:	9300      	str	r3, [sp, #0]
 8000c64:	f7ff fde6 	bl	8000834 <LCD_WR_REG>
 8000c68:	f10a 0001 	add.w	r0, sl, #1
 8000c6c:	6126      	str	r6, [r4, #16]
 8000c6e:	b280      	uxth	r0, r0
 8000c70:	6167      	str	r7, [r4, #20]
 8000c72:	f8c5 b00c 	str.w	fp, [r5, #12]
 8000c76:	f8c4 9014 	str.w	r9, [r4, #20]
 8000c7a:	f8c4 9010 	str.w	r9, [r4, #16]
 8000c7e:	6127      	str	r7, [r4, #16]
 8000c80:	f7ff fdd8 	bl	8000834 <LCD_WR_REG>
 8000c84:	f10a 0002 	add.w	r0, sl, #2
 8000c88:	6126      	str	r6, [r4, #16]
 8000c8a:	b280      	uxth	r0, r0
 8000c8c:	6167      	str	r7, [r4, #20]
 8000c8e:	f8c5 b00c 	str.w	fp, [r5, #12]
 8000c92:	f8c4 9014 	str.w	r9, [r4, #20]
 8000c96:	f8c4 9010 	str.w	r9, [r4, #16]
 8000c9a:	6127      	str	r7, [r4, #16]
 8000c9c:	f7ff fdca 	bl	8000834 <LCD_WR_REG>
 8000ca0:	9b01      	ldr	r3, [sp, #4]
 8000ca2:	f10a 0003 	add.w	r0, sl, #3
 8000ca6:	1219      	asrs	r1, r3, #8
 8000ca8:	6126      	str	r6, [r4, #16]
 8000caa:	b280      	uxth	r0, r0
 8000cac:	6167      	str	r7, [r4, #20]
 8000cae:	60e9      	str	r1, [r5, #12]
 8000cb0:	f8c4 9014 	str.w	r9, [r4, #20]
 8000cb4:	f8c4 9010 	str.w	r9, [r4, #16]
 8000cb8:	6127      	str	r7, [r4, #16]
 8000cba:	f7ff fdbb 	bl	8000834 <LCD_WR_REG>
 8000cbe:	f89d 1004 	ldrb.w	r1, [sp, #4]
 8000cc2:	6126      	str	r6, [r4, #16]
 8000cc4:	4640      	mov	r0, r8
 8000cc6:	6167      	str	r7, [r4, #20]
 8000cc8:	60e9      	str	r1, [r5, #12]
 8000cca:	f8c4 9014 	str.w	r9, [r4, #20]
 8000cce:	f8c4 9010 	str.w	r9, [r4, #16]
 8000cd2:	6127      	str	r7, [r4, #16]
 8000cd4:	f7ff fdae 	bl	8000834 <LCD_WR_REG>
 8000cd8:	f108 0001 	add.w	r0, r8, #1
 8000cdc:	6126      	str	r6, [r4, #16]
 8000cde:	b280      	uxth	r0, r0
 8000ce0:	6167      	str	r7, [r4, #20]
 8000ce2:	f8c5 b00c 	str.w	fp, [r5, #12]
 8000ce6:	f8c4 9014 	str.w	r9, [r4, #20]
 8000cea:	f8c4 9010 	str.w	r9, [r4, #16]
 8000cee:	6127      	str	r7, [r4, #16]
 8000cf0:	f7ff fda0 	bl	8000834 <LCD_WR_REG>
 8000cf4:	f108 0002 	add.w	r0, r8, #2
 8000cf8:	6126      	str	r6, [r4, #16]
 8000cfa:	b280      	uxth	r0, r0
 8000cfc:	6167      	str	r7, [r4, #20]
 8000cfe:	f8c5 b00c 	str.w	fp, [r5, #12]
 8000d02:	f8c4 9014 	str.w	r9, [r4, #20]
 8000d06:	f8c4 9010 	str.w	r9, [r4, #16]
 8000d0a:	6127      	str	r7, [r4, #16]
 8000d0c:	f7ff fd92 	bl	8000834 <LCD_WR_REG>
 8000d10:	9b00      	ldr	r3, [sp, #0]
 8000d12:	f108 0003 	add.w	r0, r8, #3
 8000d16:	1219      	asrs	r1, r3, #8
 8000d18:	6126      	str	r6, [r4, #16]
 8000d1a:	b280      	uxth	r0, r0
 8000d1c:	6167      	str	r7, [r4, #20]
 8000d1e:	60e9      	str	r1, [r5, #12]
 8000d20:	f8c4 9014 	str.w	r9, [r4, #20]
 8000d24:	f8c4 9010 	str.w	r9, [r4, #16]
 8000d28:	6127      	str	r7, [r4, #16]
 8000d2a:	f7ff fd83 	bl	8000834 <LCD_WR_REG>
 8000d2e:	f89d 3000 	ldrb.w	r3, [sp]
 8000d32:	6126      	str	r6, [r4, #16]
 8000d34:	6167      	str	r7, [r4, #20]
 8000d36:	60eb      	str	r3, [r5, #12]
 8000d38:	f8c4 9014 	str.w	r9, [r4, #20]
 8000d3c:	f8c4 9010 	str.w	r9, [r4, #16]
 8000d40:	6127      	str	r7, [r4, #16]
 8000d42:	b003      	add	sp, #12
 8000d44:	e8bd 8ff0 	ldmia.w	sp!, {r4, r5, r6, r7, r8, r9, sl, fp, pc}
 8000d48:	f44f 7600 	mov.w	r6, #512	; 0x200
 8000d4c:	2780      	movs	r7, #128	; 0x80
 8000d4e:	f44f 7980 	mov.w	r9, #256	; 0x100
 8000d52:	f04f 0a00 	mov.w	sl, #0
 8000d56:	8968      	ldrh	r0, [r5, #10]
 8000d58:	f7ff fd6c 	bl	8000834 <LCD_WR_REG>
 8000d5c:	882b      	ldrh	r3, [r5, #0]
 8000d5e:	f8df 80d4 	ldr.w	r8, [pc, #212]	; 8000e34 <LCD_Scan_Dir+0x2bc>
 8000d62:	3b01      	subs	r3, #1
 8000d64:	121a      	asrs	r2, r3, #8
 8000d66:	b2db      	uxtb	r3, r3
 8000d68:	f8c4 9010 	str.w	r9, [r4, #16]
 8000d6c:	89a8      	ldrh	r0, [r5, #12]
 8000d6e:	6166      	str	r6, [r4, #20]
 8000d70:	f8c8 a00c 	str.w	sl, [r8, #12]
 8000d74:	6167      	str	r7, [r4, #20]
 8000d76:	6127      	str	r7, [r4, #16]
 8000d78:	6126      	str	r6, [r4, #16]
 8000d7a:	f8c4 9010 	str.w	r9, [r4, #16]
 8000d7e:	6166      	str	r6, [r4, #20]
 8000d80:	f8c8 a00c 	str.w	sl, [r8, #12]
 8000d84:	6167      	str	r7, [r4, #20]
 8000d86:	6127      	str	r7, [r4, #16]
 8000d88:	6126      	str	r6, [r4, #16]
 8000d8a:	f8c4 9010 	str.w	r9, [r4, #16]
 8000d8e:	6166      	str	r6, [r4, #20]
 8000d90:	f8c8 200c 	str.w	r2, [r8, #12]
 8000d94:	6167      	str	r7, [r4, #20]
 8000d96:	6127      	str	r7, [r4, #16]
 8000d98:	6126      	str	r6, [r4, #16]
 8000d9a:	f8c4 9010 	str.w	r9, [r4, #16]
 8000d9e:	6166      	str	r6, [r4, #20]
 8000da0:	f8c8 300c 	str.w	r3, [r8, #12]
 8000da4:	6167      	str	r7, [r4, #20]
 8000da6:	6127      	str	r7, [r4, #16]
 8000da8:	6126      	str	r6, [r4, #16]
 8000daa:	f7ff fd43 	bl	8000834 <LCD_WR_REG>
 8000dae:	886b      	ldrh	r3, [r5, #2]
 8000db0:	f8c4 9010 	str.w	r9, [r4, #16]
 8000db4:	3b01      	subs	r3, #1
 8000db6:	121a      	asrs	r2, r3, #8
 8000db8:	b2db      	uxtb	r3, r3
 8000dba:	6166      	str	r6, [r4, #20]
 8000dbc:	f8c8 a00c 	str.w	sl, [r8, #12]
 8000dc0:	6167      	str	r7, [r4, #20]
 8000dc2:	6127      	str	r7, [r4, #16]
 8000dc4:	6126      	str	r6, [r4, #16]
 8000dc6:	f8c4 9010 	str.w	r9, [r4, #16]
 8000dca:	6166      	str	r6, [r4, #20]
 8000dcc:	f8c8 a00c 	str.w	sl, [r8, #12]
 8000dd0:	6167      	str	r7, [r4, #20]
 8000dd2:	6127      	str	r7, [r4, #16]
 8000dd4:	6126      	str	r6, [r4, #16]
 8000dd6:	f8c4 9010 	str.w	r9, [r4, #16]
 8000dda:	6166      	str	r6, [r4, #20]
 8000ddc:	f8c8 200c 	str.w	r2, [r8, #12]
 8000de0:	6167      	str	r7, [r4, #20]
 8000de2:	6127      	str	r7, [r4, #16]
 8000de4:	6126      	str	r6, [r4, #16]
 8000de6:	f8c4 9010 	str.w	r9, [r4, #16]
 8000dea:	6166      	str	r6, [r4, #20]
 8000dec:	f8c8 300c 	str.w	r3, [r8, #12]
 8000df0:	6167      	str	r7, [r4, #20]
 8000df2:	6127      	str	r7, [r4, #16]
 8000df4:	6126      	str	r6, [r4, #16]
 8000df6:	e7a4      	b.n	8000d42 <LCD_Scan_Dir+0x1ca>
 8000df8:	f245 3310 	movw	r3, #21264	; 0x5310
 8000dfc:	429e      	cmp	r6, r3
 8000dfe:	d00c      	beq.n	8000e1a <LCD_Scan_Dir+0x2a2>
 8000e00:	f641 1363 	movw	r3, #6499	; 0x1963
 8000e04:	429e      	cmp	r6, r3
 8000e06:	d008      	beq.n	8000e1a <LCD_Scan_Dir+0x2a2>
 8000e08:	f646 0204 	movw	r2, #26628	; 0x6804
 8000e0c:	4296      	cmp	r6, r2
 8000e0e:	f047 0308 	orr.w	r3, r7, #8
 8000e12:	f47f af08 	bne.w	8000c26 <LCD_Scan_Dir+0xae>
 8000e16:	f047 070a 	orr.w	r7, r7, #10
 8000e1a:	2036      	movs	r0, #54	; 0x36
 8000e1c:	e6c9      	b.n	8000bb2 <LCD_Scan_Dir+0x3a>
 8000e1e:	bf00      	nop
 8000e20:	2000007e 	.word	0x2000007e
 8000e24:	08006234 	.word	0x08006234
 8000e28:	40011000 	.word	0x40011000
 8000e2c:	0800622c 	.word	0x0800622c
 8000e30:	0800623b 	.word	0x0800623b
 8000e34:	40010c00 	.word	0x40010c00

08000e38 <LCD_DrawPoint>:
 8000e38:	b508      	push	{r3, lr}
 8000e3a:	f7ff fd73 	bl	8000924 <LCD_SetCursor>
 8000e3e:	f7ff fd59 	bl	80008f4 <LCD_WriteRAM_Prepare>
 8000e42:	f44f 7280 	mov.w	r2, #256	; 0x100
 8000e46:	4b07      	ldr	r3, [pc, #28]	; (8000e64 <LCD_DrawPoint+0x2c>)
 8000e48:	4907      	ldr	r1, [pc, #28]	; (8000e68 <LCD_DrawPoint+0x30>)
 8000e4a:	611a      	str	r2, [r3, #16]
 8000e4c:	f44f 7200 	mov.w	r2, #512	; 0x200
 8000e50:	8808      	ldrh	r0, [r1, #0]
 8000e52:	4906      	ldr	r1, [pc, #24]	; (8000e6c <LCD_DrawPoint+0x34>)
 8000e54:	615a      	str	r2, [r3, #20]
 8000e56:	60c8      	str	r0, [r1, #12]
 8000e58:	2180      	movs	r1, #128	; 0x80
 8000e5a:	6159      	str	r1, [r3, #20]
 8000e5c:	6119      	str	r1, [r3, #16]
 8000e5e:	611a      	str	r2, [r3, #16]
 8000e60:	bd08      	pop	{r3, pc}
 8000e62:	bf00      	nop
 8000e64:	40011000 	.word	0x40011000
 8000e68:	2000007c 	.word	0x2000007c
 8000e6c:	40010c00 	.word	0x40010c00

08000e70 <LCD_Fast_DrawPoint>:
 8000e70:	e92d 4ff7 	stmdb	sp!, {r0, r1, r2, r4, r5, r6, r7, r8, r9, sl, fp, lr}
 8000e74:	9201      	str	r2, [sp, #4]
 8000e76:	f249 3241 	movw	r2, #37697	; 0x9341
 8000e7a:	f8df 8290 	ldr.w	r8, [pc, #656]	; 800110c <LCD_Fast_DrawPoint+0x29c>
 8000e7e:	4605      	mov	r5, r0
 8000e80:	f8b8 3004 	ldrh.w	r3, [r8, #4]
 8000e84:	460e      	mov	r6, r1
 8000e86:	4293      	cmp	r3, r2
 8000e88:	f8b8 000a 	ldrh.w	r0, [r8, #10]
 8000e8c:	f8b8 b00c 	ldrh.w	fp, [r8, #12]
 8000e90:	4c9f      	ldr	r4, [pc, #636]	; (8001110 <LCD_Fast_DrawPoint+0x2a0>)
 8000e92:	d003      	beq.n	8000e9c <LCD_Fast_DrawPoint+0x2c>
 8000e94:	f245 3210 	movw	r2, #21264	; 0x5310
 8000e98:	4293      	cmp	r3, r2
 8000e9a:	d136      	bne.n	8000f0a <LCD_Fast_DrawPoint+0x9a>
 8000e9c:	f7ff fcca 	bl	8000834 <LCD_WR_REG>
 8000ea0:	f44f 7700 	mov.w	r7, #512	; 0x200
 8000ea4:	f04f 0a80 	mov.w	sl, #128	; 0x80
 8000ea8:	f44f 7280 	mov.w	r2, #256	; 0x100
 8000eac:	f8df 9264 	ldr.w	r9, [pc, #612]	; 8001114 <LCD_Fast_DrawPoint+0x2a4>
 8000eb0:	0a29      	lsrs	r1, r5, #8
 8000eb2:	b2ed      	uxtb	r5, r5
 8000eb4:	6122      	str	r2, [r4, #16]
 8000eb6:	4658      	mov	r0, fp
 8000eb8:	6167      	str	r7, [r4, #20]
 8000eba:	f8c9 100c 	str.w	r1, [r9, #12]
 8000ebe:	f8c4 a014 	str.w	sl, [r4, #20]
 8000ec2:	f8c4 a010 	str.w	sl, [r4, #16]
 8000ec6:	6127      	str	r7, [r4, #16]
 8000ec8:	6122      	str	r2, [r4, #16]
 8000eca:	6167      	str	r7, [r4, #20]
 8000ecc:	f8c9 500c 	str.w	r5, [r9, #12]
 8000ed0:	f8c4 a014 	str.w	sl, [r4, #20]
 8000ed4:	f8c4 a010 	str.w	sl, [r4, #16]
 8000ed8:	6127      	str	r7, [r4, #16]
 8000eda:	f7ff fcab 	bl	8000834 <LCD_WR_REG>
 8000ede:	f44f 7280 	mov.w	r2, #256	; 0x100
 8000ee2:	0a31      	lsrs	r1, r6, #8
 8000ee4:	b2f6      	uxtb	r6, r6
 8000ee6:	6122      	str	r2, [r4, #16]
 8000ee8:	6167      	str	r7, [r4, #20]
 8000eea:	f8c9 100c 	str.w	r1, [r9, #12]
 8000eee:	f8c4 a014 	str.w	sl, [r4, #20]
 8000ef2:	f8c4 a010 	str.w	sl, [r4, #16]
 8000ef6:	6127      	str	r7, [r4, #16]
 8000ef8:	6122      	str	r2, [r4, #16]
 8000efa:	6167      	str	r7, [r4, #20]
 8000efc:	f8c9 600c 	str.w	r6, [r9, #12]
 8000f00:	f8c4 a014 	str.w	sl, [r4, #20]
 8000f04:	f8c4 a010 	str.w	sl, [r4, #16]
 8000f08:	e0b1      	b.n	800106e <LCD_Fast_DrawPoint+0x1fe>
 8000f0a:	f245 5210 	movw	r2, #21776	; 0x5510
 8000f0e:	4293      	cmp	r3, r2
 8000f10:	d157      	bne.n	8000fc2 <LCD_Fast_DrawPoint+0x152>
 8000f12:	f7ff fc8f 	bl	8000834 <LCD_WR_REG>
 8000f16:	f44f 7900 	mov.w	r9, #512	; 0x200
 8000f1a:	2780      	movs	r7, #128	; 0x80
 8000f1c:	f44f 7380 	mov.w	r3, #256	; 0x100
 8000f20:	f8df a1f0 	ldr.w	sl, [pc, #496]	; 8001114 <LCD_Fast_DrawPoint+0x2a4>
 8000f24:	0a2a      	lsrs	r2, r5, #8
 8000f26:	3001      	adds	r0, #1
 8000f28:	6123      	str	r3, [r4, #16]
 8000f2a:	b280      	uxth	r0, r0
 8000f2c:	f8c4 9014 	str.w	r9, [r4, #20]
 8000f30:	f8ca 200c 	str.w	r2, [sl, #12]
 8000f34:	6167      	str	r7, [r4, #20]
 8000f36:	6127      	str	r7, [r4, #16]
 8000f38:	f8c4 9010 	str.w	r9, [r4, #16]
 8000f3c:	f7ff fc7a 	bl	8000834 <LCD_WR_REG>
 8000f40:	f44f 7380 	mov.w	r3, #256	; 0x100
 8000f44:	4658      	mov	r0, fp
 8000f46:	b2ed      	uxtb	r5, r5
 8000f48:	6123      	str	r3, [r4, #16]
 8000f4a:	f8c4 9014 	str.w	r9, [r4, #20]
 8000f4e:	f8ca 500c 	str.w	r5, [sl, #12]
 8000f52:	f44f 7580 	mov.w	r5, #256	; 0x100
 8000f56:	6167      	str	r7, [r4, #20]
 8000f58:	6127      	str	r7, [r4, #16]
 8000f5a:	f8c4 9010 	str.w	r9, [r4, #16]
 8000f5e:	f7ff fc69 	bl	8000834 <LCD_WR_REG>
 8000f62:	0a31      	lsrs	r1, r6, #8
 8000f64:	3001      	adds	r0, #1
 8000f66:	6125      	str	r5, [r4, #16]
 8000f68:	b280      	uxth	r0, r0
 8000f6a:	f8c4 9014 	str.w	r9, [r4, #20]
 8000f6e:	b2f6      	uxtb	r6, r6
 8000f70:	f8ca 100c 	str.w	r1, [sl, #12]
 8000f74:	6167      	str	r7, [r4, #20]
 8000f76:	6127      	str	r7, [r4, #16]
 8000f78:	f8c4 9010 	str.w	r9, [r4, #16]
 8000f7c:	f7ff fc5a 	bl	8000834 <LCD_WR_REG>
 8000f80:	6125      	str	r5, [r4, #16]
 8000f82:	f8c4 9014 	str.w	r9, [r4, #20]
 8000f86:	f8ca 600c 	str.w	r6, [sl, #12]
 8000f8a:	6167      	str	r7, [r4, #20]
 8000f8c:	6127      	str	r7, [r4, #16]
 8000f8e:	f8c4 9010 	str.w	r9, [r4, #16]
 8000f92:	f44f 7300 	mov.w	r3, #512	; 0x200
 8000f96:	f44f 7080 	mov.w	r0, #256	; 0x100
 8000f9a:	f8b8 2008 	ldrh.w	r2, [r8, #8]
 8000f9e:	495d      	ldr	r1, [pc, #372]	; (8001114 <LCD_Fast_DrawPoint+0x2a4>)
 8000fa0:	6160      	str	r0, [r4, #20]
 8000fa2:	6163      	str	r3, [r4, #20]
 8000fa4:	60ca      	str	r2, [r1, #12]
 8000fa6:	2280      	movs	r2, #128	; 0x80
 8000fa8:	6162      	str	r2, [r4, #20]
 8000faa:	6122      	str	r2, [r4, #16]
 8000fac:	6123      	str	r3, [r4, #16]
 8000fae:	6120      	str	r0, [r4, #16]
 8000fb0:	9801      	ldr	r0, [sp, #4]
 8000fb2:	6163      	str	r3, [r4, #20]
 8000fb4:	60c8      	str	r0, [r1, #12]
 8000fb6:	6162      	str	r2, [r4, #20]
 8000fb8:	6122      	str	r2, [r4, #16]
 8000fba:	6123      	str	r3, [r4, #16]
 8000fbc:	b003      	add	sp, #12
 8000fbe:	e8bd 8ff0 	ldmia.w	sp!, {r4, r5, r6, r7, r8, r9, sl, fp, pc}
 8000fc2:	f641 1163 	movw	r1, #6499	; 0x1963
 8000fc6:	428b      	cmp	r3, r1
 8000fc8:	f898 2006 	ldrb.w	r2, [r8, #6]
 8000fcc:	d151      	bne.n	8001072 <LCD_Fast_DrawPoint+0x202>
 8000fce:	b922      	cbnz	r2, 8000fda <LCD_Fast_DrawPoint+0x16a>
 8000fd0:	f8b8 3000 	ldrh.w	r3, [r8]
 8000fd4:	3b01      	subs	r3, #1
 8000fd6:	1b5b      	subs	r3, r3, r5
 8000fd8:	b29d      	uxth	r5, r3
 8000fda:	f7ff fc2b 	bl	8000834 <LCD_WR_REG>
 8000fde:	f44f 7700 	mov.w	r7, #512	; 0x200
 8000fe2:	2380      	movs	r3, #128	; 0x80
 8000fe4:	f44f 7280 	mov.w	r2, #256	; 0x100
 8000fe8:	f8df a128 	ldr.w	sl, [pc, #296]	; 8001114 <LCD_Fast_DrawPoint+0x2a4>
 8000fec:	0a29      	lsrs	r1, r5, #8
 8000fee:	b2ed      	uxtb	r5, r5
 8000ff0:	6122      	str	r2, [r4, #16]
 8000ff2:	4658      	mov	r0, fp
 8000ff4:	6167      	str	r7, [r4, #20]
 8000ff6:	f8ca 100c 	str.w	r1, [sl, #12]
 8000ffa:	6163      	str	r3, [r4, #20]
 8000ffc:	6123      	str	r3, [r4, #16]
 8000ffe:	6127      	str	r7, [r4, #16]
 8001000:	6122      	str	r2, [r4, #16]
 8001002:	6167      	str	r7, [r4, #20]
 8001004:	f8ca 500c 	str.w	r5, [sl, #12]
 8001008:	6163      	str	r3, [r4, #20]
 800100a:	6123      	str	r3, [r4, #16]
 800100c:	6127      	str	r7, [r4, #16]
 800100e:	6122      	str	r2, [r4, #16]
 8001010:	6167      	str	r7, [r4, #20]
 8001012:	f8ca 100c 	str.w	r1, [sl, #12]
 8001016:	6163      	str	r3, [r4, #20]
 8001018:	6123      	str	r3, [r4, #16]
 800101a:	6127      	str	r7, [r4, #16]
 800101c:	6122      	str	r2, [r4, #16]
 800101e:	6167      	str	r7, [r4, #20]
 8001020:	f8ca 500c 	str.w	r5, [sl, #12]
 8001024:	6163      	str	r3, [r4, #20]
 8001026:	6123      	str	r3, [r4, #16]
 8001028:	6127      	str	r7, [r4, #16]
 800102a:	f7ff fc03 	bl	8000834 <LCD_WR_REG>
 800102e:	2380      	movs	r3, #128	; 0x80
 8001030:	f44f 7280 	mov.w	r2, #256	; 0x100
 8001034:	0a31      	lsrs	r1, r6, #8
 8001036:	b2f6      	uxtb	r6, r6
 8001038:	6122      	str	r2, [r4, #16]
 800103a:	6167      	str	r7, [r4, #20]
 800103c:	f8ca 100c 	str.w	r1, [sl, #12]
 8001040:	6163      	str	r3, [r4, #20]
 8001042:	6123      	str	r3, [r4, #16]
 8001044:	6127      	str	r7, [r4, #16]
 8001046:	6122      	str	r2, [r4, #16]
 8001048:	6167      	str	r7, [r4, #20]
 800104a:	f8ca 600c 	str.w	r6, [sl, #12]
 800104e:	6163      	str	r3, [r4, #20]
 8001050:	6123      	str	r3, [r4, #16]
 8001052:	6127      	str	r7, [r4, #16]
 8001054:	6122      	str	r2, [r4, #16]
 8001056:	6167      	str	r7, [r4, #20]
 8001058:	f8ca 100c 	str.w	r1, [sl, #12]
 800105c:	6163      	str	r3, [r4, #20]
 800105e:	6123      	str	r3, [r4, #16]
 8001060:	6127      	str	r7, [r4, #16]
 8001062:	6122      	str	r2, [r4, #16]
 8001064:	6167      	str	r7, [r4, #20]
 8001066:	f8ca 600c 	str.w	r6, [sl, #12]
 800106a:	6163      	str	r3, [r4, #20]
 800106c:	6123      	str	r3, [r4, #16]
 800106e:	6127      	str	r7, [r4, #16]
 8001070:	e78f      	b.n	8000f92 <LCD_Fast_DrawPoint+0x122>
 8001072:	f646 0104 	movw	r1, #26628	; 0x6804
 8001076:	428b      	cmp	r3, r1
 8001078:	d138      	bne.n	80010ec <LCD_Fast_DrawPoint+0x27c>
 800107a:	2a01      	cmp	r2, #1
 800107c:	bf08      	it	eq
 800107e:	f8b8 3000 	ldrheq.w	r3, [r8]
 8001082:	f44f 7700 	mov.w	r7, #512	; 0x200
 8001086:	bf04      	itt	eq
 8001088:	f103 33ff 	addeq.w	r3, r3, #4294967295
 800108c:	1b5b      	subeq	r3, r3, r5
 800108e:	f04f 0a80 	mov.w	sl, #128	; 0x80
 8001092:	bf08      	it	eq
 8001094:	b29d      	uxtheq	r5, r3
 8001096:	f7ff fbcd 	bl	8000834 <LCD_WR_REG>
 800109a:	f44f 7280 	mov.w	r2, #256	; 0x100
 800109e:	4b1d      	ldr	r3, [pc, #116]	; (8001114 <LCD_Fast_DrawPoint+0x2a4>)
 80010a0:	0a29      	lsrs	r1, r5, #8
 80010a2:	b2ed      	uxtb	r5, r5
 80010a4:	6122      	str	r2, [r4, #16]
 80010a6:	4658      	mov	r0, fp
 80010a8:	6167      	str	r7, [r4, #20]
 80010aa:	60d9      	str	r1, [r3, #12]
 80010ac:	f8c4 a014 	str.w	sl, [r4, #20]
 80010b0:	f8c4 a010 	str.w	sl, [r4, #16]
 80010b4:	6127      	str	r7, [r4, #16]
 80010b6:	6122      	str	r2, [r4, #16]
 80010b8:	6167      	str	r7, [r4, #20]
 80010ba:	60dd      	str	r5, [r3, #12]
 80010bc:	f8c4 a014 	str.w	sl, [r4, #20]
 80010c0:	f8c4 a010 	str.w	sl, [r4, #16]
 80010c4:	6127      	str	r7, [r4, #16]
 80010c6:	f7ff fbb5 	bl	8000834 <LCD_WR_REG>
 80010ca:	f44f 7280 	mov.w	r2, #256	; 0x100
 80010ce:	4b11      	ldr	r3, [pc, #68]	; (8001114 <LCD_Fast_DrawPoint+0x2a4>)
 80010d0:	0a31      	lsrs	r1, r6, #8
 80010d2:	b2f6      	uxtb	r6, r6
 80010d4:	6122      	str	r2, [r4, #16]
 80010d6:	6167      	str	r7, [r4, #20]
 80010d8:	60d9      	str	r1, [r3, #12]
 80010da:	f8c4 a014 	str.w	sl, [r4, #20]
 80010de:	f8c4 a010 	str.w	sl, [r4, #16]
 80010e2:	6127      	str	r7, [r4, #16]
 80010e4:	6122      	str	r2, [r4, #16]
 80010e6:	6167      	str	r7, [r4, #20]
 80010e8:	60de      	str	r6, [r3, #12]
 80010ea:	e709      	b.n	8000f00 <LCD_Fast_DrawPoint+0x90>
 80010ec:	2a01      	cmp	r2, #1
 80010ee:	bf01      	itttt	eq
 80010f0:	f8b8 3000 	ldrheq.w	r3, [r8]
 80010f4:	f103 33ff 	addeq.w	r3, r3, #4294967295
 80010f8:	1b5b      	subeq	r3, r3, r5
 80010fa:	b29d      	uxtheq	r5, r3
 80010fc:	4629      	mov	r1, r5
 80010fe:	f7ff fbdb 	bl	80008b8 <LCD_WriteReg>
 8001102:	4631      	mov	r1, r6
 8001104:	4658      	mov	r0, fp
 8001106:	f7ff fbd7 	bl	80008b8 <LCD_WriteReg>
 800110a:	e742      	b.n	8000f92 <LCD_Fast_DrawPoint+0x122>
 800110c:	2000007e 	.word	0x2000007e
 8001110:	40011000 	.word	0x40011000
 8001114:	40010c00 	.word	0x40010c00

08001118 <LCD_SSD_BackLightSet>:
 8001118:	e92d 43f8 	stmdb	sp!, {r3, r4, r5, r6, r7, r8, r9, lr}
 800111c:	4681      	mov	r9, r0
 800111e:	20be      	movs	r0, #190	; 0xbe
 8001120:	f7ff fb88 	bl	8000834 <LCD_WR_REG>
 8001124:	f44f 7500 	mov.w	r5, #512	; 0x200
 8001128:	2680      	movs	r6, #128	; 0x80
 800112a:	f44f 7880 	mov.w	r8, #256	; 0x100
 800112e:	2305      	movs	r3, #5
 8001130:	4c1f      	ldr	r4, [pc, #124]	; (80011b0 <LCD_SSD_BackLightSet+0x98>)
 8001132:	4f20      	ldr	r7, [pc, #128]	; (80011b4 <LCD_SSD_BackLightSet+0x9c>)
 8001134:	f8c4 8010 	str.w	r8, [r4, #16]
 8001138:	4648      	mov	r0, r9
 800113a:	6165      	str	r5, [r4, #20]
 800113c:	60fb      	str	r3, [r7, #12]
 800113e:	6166      	str	r6, [r4, #20]
 8001140:	6126      	str	r6, [r4, #16]
 8001142:	6125      	str	r5, [r4, #16]
 8001144:	f8c4 8010 	str.w	r8, [r4, #16]
 8001148:	6165      	str	r5, [r4, #20]
 800114a:	f7ff fae9 	bl	8000720 <__aeabi_i2d>
 800114e:	a316      	add	r3, pc, #88	; (adr r3, 80011a8 <LCD_SSD_BackLightSet+0x90>)
 8001150:	e9d3 2300 	ldrd	r2, r3, [r3]
 8001154:	f7ff f868 	bl	8000228 <__aeabi_dmul>
 8001158:	f7ff fb4c 	bl	80007f4 <__aeabi_d2uiz>
 800115c:	2301      	movs	r3, #1
 800115e:	60f8      	str	r0, [r7, #12]
 8001160:	6166      	str	r6, [r4, #20]
 8001162:	6126      	str	r6, [r4, #16]
 8001164:	6125      	str	r5, [r4, #16]
 8001166:	f8c4 8010 	str.w	r8, [r4, #16]
 800116a:	6165      	str	r5, [r4, #20]
 800116c:	60fb      	str	r3, [r7, #12]
 800116e:	23ff      	movs	r3, #255	; 0xff
 8001170:	6166      	str	r6, [r4, #20]
 8001172:	6126      	str	r6, [r4, #16]
 8001174:	6125      	str	r5, [r4, #16]
 8001176:	f8c4 8010 	str.w	r8, [r4, #16]
 800117a:	6165      	str	r5, [r4, #20]
 800117c:	60fb      	str	r3, [r7, #12]
 800117e:	2300      	movs	r3, #0
 8001180:	6166      	str	r6, [r4, #20]
 8001182:	6126      	str	r6, [r4, #16]
 8001184:	6125      	str	r5, [r4, #16]
 8001186:	f8c4 8010 	str.w	r8, [r4, #16]
 800118a:	6165      	str	r5, [r4, #20]
 800118c:	60fb      	str	r3, [r7, #12]
 800118e:	6166      	str	r6, [r4, #20]
 8001190:	6126      	str	r6, [r4, #16]
 8001192:	6125      	str	r5, [r4, #16]
 8001194:	f8c4 8010 	str.w	r8, [r4, #16]
 8001198:	6165      	str	r5, [r4, #20]
 800119a:	60fb      	str	r3, [r7, #12]
 800119c:	6166      	str	r6, [r4, #20]
 800119e:	6126      	str	r6, [r4, #16]
 80011a0:	6125      	str	r5, [r4, #16]
 80011a2:	e8bd 83f8 	ldmia.w	sp!, {r3, r4, r5, r6, r7, r8, r9, pc}
 80011a6:	bf00      	nop
 80011a8:	66666666 	.word	0x66666666
 80011ac:	40046666 	.word	0x40046666
 80011b0:	40011000 	.word	0x40011000
 80011b4:	40010c00 	.word	0x40010c00

080011b8 <LCD_Display_Dir>:
 80011b8:	4b4e      	ldr	r3, [pc, #312]	; (80012f4 <LCD_Display_Dir+0x13c>)
 80011ba:	f44f 71a0 	mov.w	r1, #320	; 0x140
 80011be:	889a      	ldrh	r2, [r3, #4]
 80011c0:	2800      	cmp	r0, #0
 80011c2:	d14a      	bne.n	800125a <LCD_Display_Dir+0xa2>
 80011c4:	8059      	strh	r1, [r3, #2]
 80011c6:	f249 3141 	movw	r1, #37697	; 0x9341
 80011ca:	7198      	strb	r0, [r3, #6]
 80011cc:	20f0      	movs	r0, #240	; 0xf0
 80011ce:	428a      	cmp	r2, r1
 80011d0:	8018      	strh	r0, [r3, #0]
 80011d2:	d007      	beq.n	80011e4 <LCD_Display_Dir+0x2c>
 80011d4:	f646 0104 	movw	r1, #26628	; 0x6804
 80011d8:	428a      	cmp	r2, r1
 80011da:	d003      	beq.n	80011e4 <LCD_Display_Dir+0x2c>
 80011dc:	f245 3110 	movw	r1, #21264	; 0x5310
 80011e0:	428a      	cmp	r2, r1
 80011e2:	d113      	bne.n	800120c <LCD_Display_Dir+0x54>
 80011e4:	212c      	movs	r1, #44	; 0x2c
 80011e6:	8119      	strh	r1, [r3, #8]
 80011e8:	212a      	movs	r1, #42	; 0x2a
 80011ea:	8159      	strh	r1, [r3, #10]
 80011ec:	212b      	movs	r1, #43	; 0x2b
 80011ee:	8199      	strh	r1, [r3, #12]
 80011f0:	f646 0104 	movw	r1, #26628	; 0x6804
 80011f4:	428a      	cmp	r2, r1
 80011f6:	d003      	beq.n	8001200 <LCD_Display_Dir+0x48>
 80011f8:	f245 3110 	movw	r1, #21264	; 0x5310
 80011fc:	428a      	cmp	r2, r1
 80011fe:	d129      	bne.n	8001254 <LCD_Display_Dir+0x9c>
 8001200:	f44f 72a0 	mov.w	r2, #320	; 0x140
 8001204:	801a      	strh	r2, [r3, #0]
 8001206:	f44f 72f0 	mov.w	r2, #480	; 0x1e0
 800120a:	e011      	b.n	8001230 <LCD_Display_Dir+0x78>
 800120c:	f245 5110 	movw	r1, #21776	; 0x5510
 8001210:	428a      	cmp	r2, r1
 8001212:	d10f      	bne.n	8001234 <LCD_Display_Dir+0x7c>
 8001214:	f44f 5230 	mov.w	r2, #11264	; 0x2c00
 8001218:	811a      	strh	r2, [r3, #8]
 800121a:	f44f 5228 	mov.w	r2, #10752	; 0x2a00
 800121e:	815a      	strh	r2, [r3, #10]
 8001220:	f44f 522c 	mov.w	r2, #11008	; 0x2b00
 8001224:	819a      	strh	r2, [r3, #12]
 8001226:	f44f 72f0 	mov.w	r2, #480	; 0x1e0
 800122a:	801a      	strh	r2, [r3, #0]
 800122c:	f44f 7248 	mov.w	r2, #800	; 0x320
 8001230:	805a      	strh	r2, [r3, #2]
 8001232:	e00f      	b.n	8001254 <LCD_Display_Dir+0x9c>
 8001234:	f641 1163 	movw	r1, #6499	; 0x1963
 8001238:	428a      	cmp	r2, r1
 800123a:	d105      	bne.n	8001248 <LCD_Display_Dir+0x90>
 800123c:	222c      	movs	r2, #44	; 0x2c
 800123e:	811a      	strh	r2, [r3, #8]
 8001240:	222b      	movs	r2, #43	; 0x2b
 8001242:	815a      	strh	r2, [r3, #10]
 8001244:	222a      	movs	r2, #42	; 0x2a
 8001246:	e7ed      	b.n	8001224 <LCD_Display_Dir+0x6c>
 8001248:	2222      	movs	r2, #34	; 0x22
 800124a:	811a      	strh	r2, [r3, #8]
 800124c:	2220      	movs	r2, #32
 800124e:	815a      	strh	r2, [r3, #10]
 8001250:	2221      	movs	r2, #33	; 0x21
 8001252:	819a      	strh	r2, [r3, #12]
 8001254:	2000      	movs	r0, #0
 8001256:	f7ff bc8f 	b.w	8000b78 <LCD_Scan_Dir>
 800125a:	8019      	strh	r1, [r3, #0]
 800125c:	21f0      	movs	r1, #240	; 0xf0
 800125e:	8059      	strh	r1, [r3, #2]
 8001260:	f249 3141 	movw	r1, #37697	; 0x9341
 8001264:	2001      	movs	r0, #1
 8001266:	428a      	cmp	r2, r1
 8001268:	7198      	strb	r0, [r3, #6]
 800126a:	d003      	beq.n	8001274 <LCD_Display_Dir+0xbc>
 800126c:	f245 3110 	movw	r1, #21264	; 0x5310
 8001270:	428a      	cmp	r2, r1
 8001272:	d10f      	bne.n	8001294 <LCD_Display_Dir+0xdc>
 8001274:	212c      	movs	r1, #44	; 0x2c
 8001276:	8119      	strh	r1, [r3, #8]
 8001278:	212a      	movs	r1, #42	; 0x2a
 800127a:	8159      	strh	r1, [r3, #10]
 800127c:	212b      	movs	r1, #43	; 0x2b
 800127e:	8199      	strh	r1, [r3, #12]
 8001280:	f646 0104 	movw	r1, #26628	; 0x6804
 8001284:	428a      	cmp	r2, r1
 8001286:	d130      	bne.n	80012ea <LCD_Display_Dir+0x132>
 8001288:	f44f 72f0 	mov.w	r2, #480	; 0x1e0
 800128c:	801a      	strh	r2, [r3, #0]
 800128e:	f44f 72a0 	mov.w	r2, #320	; 0x140
 8001292:	e7cd      	b.n	8001230 <LCD_Display_Dir+0x78>
 8001294:	f646 0104 	movw	r1, #26628	; 0x6804
 8001298:	428a      	cmp	r2, r1
 800129a:	d106      	bne.n	80012aa <LCD_Display_Dir+0xf2>
 800129c:	222c      	movs	r2, #44	; 0x2c
 800129e:	811a      	strh	r2, [r3, #8]
 80012a0:	222b      	movs	r2, #43	; 0x2b
 80012a2:	815a      	strh	r2, [r3, #10]
 80012a4:	222a      	movs	r2, #42	; 0x2a
 80012a6:	819a      	strh	r2, [r3, #12]
 80012a8:	e7ee      	b.n	8001288 <LCD_Display_Dir+0xd0>
 80012aa:	f245 5110 	movw	r1, #21776	; 0x5510
 80012ae:	428a      	cmp	r2, r1
 80012b0:	d10b      	bne.n	80012ca <LCD_Display_Dir+0x112>
 80012b2:	f44f 5230 	mov.w	r2, #11264	; 0x2c00
 80012b6:	811a      	strh	r2, [r3, #8]
 80012b8:	f44f 5228 	mov.w	r2, #10752	; 0x2a00
 80012bc:	815a      	strh	r2, [r3, #10]
 80012be:	f44f 522c 	mov.w	r2, #11008	; 0x2b00
 80012c2:	819a      	strh	r2, [r3, #12]
 80012c4:	f44f 7248 	mov.w	r2, #800	; 0x320
 80012c8:	e79c      	b.n	8001204 <LCD_Display_Dir+0x4c>
 80012ca:	f641 1163 	movw	r1, #6499	; 0x1963
 80012ce:	428a      	cmp	r2, r1
 80012d0:	d105      	bne.n	80012de <LCD_Display_Dir+0x126>
 80012d2:	222c      	movs	r2, #44	; 0x2c
 80012d4:	811a      	strh	r2, [r3, #8]
 80012d6:	222a      	movs	r2, #42	; 0x2a
 80012d8:	815a      	strh	r2, [r3, #10]
 80012da:	222b      	movs	r2, #43	; 0x2b
 80012dc:	e7f1      	b.n	80012c2 <LCD_Display_Dir+0x10a>
 80012de:	2222      	movs	r2, #34	; 0x22
 80012e0:	811a      	strh	r2, [r3, #8]
 80012e2:	2221      	movs	r2, #33	; 0x21
 80012e4:	815a      	strh	r2, [r3, #10]
 80012e6:	2220      	movs	r2, #32
 80012e8:	e7b3      	b.n	8001252 <LCD_Display_Dir+0x9a>
 80012ea:	f245 3110 	movw	r1, #21264	; 0x5310
 80012ee:	428a      	cmp	r2, r1
 80012f0:	d0ca      	beq.n	8001288 <LCD_Display_Dir+0xd0>
 80012f2:	e7af      	b.n	8001254 <LCD_Display_Dir+0x9c>
 80012f4:	2000007e 	.word	0x2000007e

080012f8 <LCD_Clear>:
 80012f8:	e92d 43f8 	stmdb	sp!, {r3, r4, r5, r6, r7, r8, r9, lr}
 80012fc:	4c1c      	ldr	r4, [pc, #112]	; (8001370 <LCD_Clear+0x78>)
 80012fe:	4606      	mov	r6, r0
 8001300:	8823      	ldrh	r3, [r4, #0]
 8001302:	8865      	ldrh	r5, [r4, #2]
 8001304:	88a2      	ldrh	r2, [r4, #4]
 8001306:	435d      	muls	r5, r3
 8001308:	f646 0304 	movw	r3, #26628	; 0x6804
 800130c:	429a      	cmp	r2, r3
 800130e:	f04f 0100 	mov.w	r1, #0
 8001312:	d121      	bne.n	8001358 <LCD_Clear+0x60>
 8001314:	f894 9006 	ldrb.w	r9, [r4, #6]
 8001318:	f1b9 0f01 	cmp.w	r9, #1
 800131c:	d11c      	bne.n	8001358 <LCD_Clear+0x60>
 800131e:	272a      	movs	r7, #42	; 0x2a
 8001320:	f04f 082b 	mov.w	r8, #43	; 0x2b
 8001324:	4608      	mov	r0, r1
 8001326:	71a1      	strb	r1, [r4, #6]
 8001328:	8167      	strh	r7, [r4, #10]
 800132a:	f8a4 800c 	strh.w	r8, [r4, #12]
 800132e:	f7ff faf9 	bl	8000924 <LCD_SetCursor>
 8001332:	f884 9006 	strb.w	r9, [r4, #6]
 8001336:	f8a4 800a 	strh.w	r8, [r4, #10]
 800133a:	81a7      	strh	r7, [r4, #12]
 800133c:	f7ff fada 	bl	80008f4 <LCD_WriteRAM_Prepare>
 8001340:	f44f 7480 	mov.w	r4, #256	; 0x100
 8001344:	2200      	movs	r2, #0
 8001346:	f44f 7100 	mov.w	r1, #512	; 0x200
 800134a:	2080      	movs	r0, #128	; 0x80
 800134c:	4b09      	ldr	r3, [pc, #36]	; (8001374 <LCD_Clear+0x7c>)
 800134e:	4f0a      	ldr	r7, [pc, #40]	; (8001378 <LCD_Clear+0x80>)
 8001350:	42aa      	cmp	r2, r5
 8001352:	d105      	bne.n	8001360 <LCD_Clear+0x68>
 8001354:	e8bd 83f8 	ldmia.w	sp!, {r3, r4, r5, r6, r7, r8, r9, pc}
 8001358:	4608      	mov	r0, r1
 800135a:	f7ff fae3 	bl	8000924 <LCD_SetCursor>
 800135e:	e7ed      	b.n	800133c <LCD_Clear+0x44>
 8001360:	611c      	str	r4, [r3, #16]
 8001362:	3201      	adds	r2, #1
 8001364:	6159      	str	r1, [r3, #20]
 8001366:	60fe      	str	r6, [r7, #12]
 8001368:	6158      	str	r0, [r3, #20]
 800136a:	6118      	str	r0, [r3, #16]
 800136c:	6119      	str	r1, [r3, #16]
 800136e:	e7ef      	b.n	8001350 <LCD_Clear+0x58>
 8001370:	2000007e 	.word	0x2000007e
 8001374:	40011000 	.word	0x40011000
 8001378:	40010c00 	.word	0x40010c00

0800137c <LCD_Init>:
 800137c:	4b4f      	ldr	r3, [pc, #316]	; (80014bc <LCD_Init+0x140>)
 800137e:	e92d 4ff0 	stmdb	sp!, {r4, r5, r6, r7, r8, r9, sl, fp, lr}
 8001382:	699a      	ldr	r2, [r3, #24]
 8001384:	b087      	sub	sp, #28
 8001386:	f042 0208 	orr.w	r2, r2, #8
 800138a:	619a      	str	r2, [r3, #24]
 800138c:	699a      	ldr	r2, [r3, #24]
 800138e:	2401      	movs	r4, #1
 8001390:	f002 0208 	and.w	r2, r2, #8
 8001394:	9200      	str	r2, [sp, #0]
 8001396:	9a00      	ldr	r2, [sp, #0]
 8001398:	699a      	ldr	r2, [r3, #24]
 800139a:	4849      	ldr	r0, [pc, #292]	; (80014c0 <LCD_Init+0x144>)
 800139c:	f042 0210 	orr.w	r2, r2, #16
 80013a0:	619a      	str	r2, [r3, #24]
 80013a2:	699b      	ldr	r3, [r3, #24]
 80013a4:	a902      	add	r1, sp, #8
 80013a6:	f003 0310 	and.w	r3, r3, #16
 80013aa:	9301      	str	r3, [sp, #4]
 80013ac:	9b01      	ldr	r3, [sp, #4]
 80013ae:	f44f 63f8 	mov.w	r3, #1984	; 0x7c0
 80013b2:	e9cd 3402 	strd	r3, r4, [sp, #8]
 80013b6:	2303      	movs	r3, #3
 80013b8:	9404      	str	r4, [sp, #16]
 80013ba:	9305      	str	r3, [sp, #20]
 80013bc:	f003 ff1e 	bl	80051fc <HAL_GPIO_Init>
 80013c0:	f64f 73ff 	movw	r3, #65535	; 0xffff
 80013c4:	a902      	add	r1, sp, #8
 80013c6:	483f      	ldr	r0, [pc, #252]	; (80014c4 <LCD_Init+0x148>)
 80013c8:	9302      	str	r3, [sp, #8]
 80013ca:	f003 ff17 	bl	80051fc <HAL_GPIO_Init>
 80013ce:	2032      	movs	r0, #50	; 0x32
 80013d0:	f003 feac 	bl	800512c <HAL_Delay>
 80013d4:	4621      	mov	r1, r4
 80013d6:	2000      	movs	r0, #0
 80013d8:	f7ff fa6e 	bl	80008b8 <LCD_WriteReg>
 80013dc:	2032      	movs	r0, #50	; 0x32
 80013de:	f003 fea5 	bl	800512c <HAL_Delay>
 80013e2:	2000      	movs	r0, #0
 80013e4:	f7ff fa7e 	bl	80008e4 <LCD_ReadReg>
 80013e8:	f1a0 03ff 	sub.w	r3, r0, #255	; 0xff
 80013ec:	4c36      	ldr	r4, [pc, #216]	; (80014c8 <LCD_Init+0x14c>)
 80013ee:	b29b      	uxth	r3, r3
 80013f0:	f5b3 4f7f 	cmp.w	r3, #65280	; 0xff00
 80013f4:	80a0      	strh	r0, [r4, #4]
 80013f6:	d202      	bcs.n	80013fe <LCD_Init+0x82>
 80013f8:	f5b0 4f13 	cmp.w	r0, #37632	; 0x9300
 80013fc:	d17e      	bne.n	80014fc <LCD_Init+0x180>
 80013fe:	20d3      	movs	r0, #211	; 0xd3
 8001400:	f7ff fa18 	bl	8000834 <LCD_WR_REG>
 8001404:	f7ff fa28 	bl	8000858 <LCD_RD_DATA>
 8001408:	f7ff fa26 	bl	8000858 <LCD_RD_DATA>
 800140c:	f7ff fa24 	bl	8000858 <LCD_RD_DATA>
 8001410:	0200      	lsls	r0, r0, #8
 8001412:	80a0      	strh	r0, [r4, #4]
 8001414:	f7ff fa20 	bl	8000858 <LCD_RD_DATA>
 8001418:	88a3      	ldrh	r3, [r4, #4]
 800141a:	4318      	orrs	r0, r3
 800141c:	f249 3341 	movw	r3, #37697	; 0x9341
 8001420:	b280      	uxth	r0, r0
 8001422:	4298      	cmp	r0, r3
 8001424:	80a0      	strh	r0, [r4, #4]
 8001426:	d069      	beq.n	80014fc <LCD_Init+0x180>
 8001428:	20bf      	movs	r0, #191	; 0xbf
 800142a:	f7ff fa03 	bl	8000834 <LCD_WR_REG>
 800142e:	f7ff fa13 	bl	8000858 <LCD_RD_DATA>
 8001432:	f7ff fa11 	bl	8000858 <LCD_RD_DATA>
 8001436:	f7ff fa0f 	bl	8000858 <LCD_RD_DATA>
 800143a:	f7ff fa0d 	bl	8000858 <LCD_RD_DATA>
 800143e:	0200      	lsls	r0, r0, #8
 8001440:	80a0      	strh	r0, [r4, #4]
 8001442:	f7ff fa09 	bl	8000858 <LCD_RD_DATA>
 8001446:	88a3      	ldrh	r3, [r4, #4]
 8001448:	4318      	orrs	r0, r3
 800144a:	f646 0304 	movw	r3, #26628	; 0x6804
 800144e:	b280      	uxth	r0, r0
 8001450:	4298      	cmp	r0, r3
 8001452:	80a0      	strh	r0, [r4, #4]
 8001454:	d052      	beq.n	80014fc <LCD_Init+0x180>
 8001456:	20d4      	movs	r0, #212	; 0xd4
 8001458:	f7ff f9ec 	bl	8000834 <LCD_WR_REG>
 800145c:	f7ff f9fc 	bl	8000858 <LCD_RD_DATA>
 8001460:	f7ff f9fa 	bl	8000858 <LCD_RD_DATA>
 8001464:	f7ff f9f8 	bl	8000858 <LCD_RD_DATA>
 8001468:	0200      	lsls	r0, r0, #8
 800146a:	80a0      	strh	r0, [r4, #4]
 800146c:	f7ff f9f4 	bl	8000858 <LCD_RD_DATA>
 8001470:	88a3      	ldrh	r3, [r4, #4]
 8001472:	4318      	orrs	r0, r3
 8001474:	f245 3310 	movw	r3, #21264	; 0x5310
 8001478:	b280      	uxth	r0, r0
 800147a:	4298      	cmp	r0, r3
 800147c:	80a0      	strh	r0, [r4, #4]
 800147e:	d03d      	beq.n	80014fc <LCD_Init+0x180>
 8001480:	f44f 405a 	mov.w	r0, #55808	; 0xda00
 8001484:	f7ff f9d6 	bl	8000834 <LCD_WR_REG>
 8001488:	f7ff f9e6 	bl	8000858 <LCD_RD_DATA>
 800148c:	f44f 405b 	mov.w	r0, #56064	; 0xdb00
 8001490:	f7ff f9d0 	bl	8000834 <LCD_WR_REG>
 8001494:	f7ff f9e0 	bl	8000858 <LCD_RD_DATA>
 8001498:	0200      	lsls	r0, r0, #8
 800149a:	80a0      	strh	r0, [r4, #4]
 800149c:	f44f 405c 	mov.w	r0, #56320	; 0xdc00
 80014a0:	f7ff f9c8 	bl	8000834 <LCD_WR_REG>
 80014a4:	f7ff f9d8 	bl	8000858 <LCD_RD_DATA>
 80014a8:	88a3      	ldrh	r3, [r4, #4]
 80014aa:	4318      	orrs	r0, r3
 80014ac:	b280      	uxth	r0, r0
 80014ae:	f5b0 4f00 	cmp.w	r0, #32768	; 0x8000
 80014b2:	f245 5310 	movw	r3, #21776	; 0x5510
 80014b6:	d109      	bne.n	80014cc <LCD_Init+0x150>
 80014b8:	80a3      	strh	r3, [r4, #4]
 80014ba:	e01f      	b.n	80014fc <LCD_Init+0x180>
 80014bc:	40021000 	.word	0x40021000
 80014c0:	40011000 	.word	0x40011000
 80014c4:	40010c00 	.word	0x40010c00
 80014c8:	2000007e 	.word	0x2000007e
 80014cc:	4298      	cmp	r0, r3
 80014ce:	80a0      	strh	r0, [r4, #4]
 80014d0:	d014      	beq.n	80014fc <LCD_Init+0x180>
 80014d2:	20a1      	movs	r0, #161	; 0xa1
 80014d4:	f7ff f9ae 	bl	8000834 <LCD_WR_REG>
 80014d8:	f7ff f9be 	bl	8000858 <LCD_RD_DATA>
 80014dc:	80a0      	strh	r0, [r4, #4]
 80014de:	f7ff f9bb 	bl	8000858 <LCD_RD_DATA>
 80014e2:	0200      	lsls	r0, r0, #8
 80014e4:	80a0      	strh	r0, [r4, #4]
 80014e6:	f7ff f9b7 	bl	8000858 <LCD_RD_DATA>
 80014ea:	88a3      	ldrh	r3, [r4, #4]
 80014ec:	4318      	orrs	r0, r3
 80014ee:	f245 7361 	movw	r3, #22369	; 0x5761
 80014f2:	b280      	uxth	r0, r0
 80014f4:	4298      	cmp	r0, r3
 80014f6:	f000 8113 	beq.w	8001720 <LCD_Init+0x3a4>
 80014fa:	80a0      	strh	r0, [r4, #4]
 80014fc:	f249 3241 	movw	r2, #37697	; 0x9341
 8001500:	88a3      	ldrh	r3, [r4, #4]
 8001502:	4293      	cmp	r3, r2
 8001504:	f040 810f 	bne.w	8001726 <LCD_Init+0x3aa>
 8001508:	20cf      	movs	r0, #207	; 0xcf
 800150a:	f7ff f993 	bl	8000834 <LCD_WR_REG>
 800150e:	2000      	movs	r0, #0
 8001510:	f7ff f9f6 	bl	8000900 <LCD_WriteRAM>
 8001514:	20c1      	movs	r0, #193	; 0xc1
 8001516:	f7ff f9f3 	bl	8000900 <LCD_WriteRAM>
 800151a:	2030      	movs	r0, #48	; 0x30
 800151c:	f7ff f9f0 	bl	8000900 <LCD_WriteRAM>
 8001520:	20ed      	movs	r0, #237	; 0xed
 8001522:	f7ff f987 	bl	8000834 <LCD_WR_REG>
 8001526:	2064      	movs	r0, #100	; 0x64
 8001528:	f7ff f9ea 	bl	8000900 <LCD_WriteRAM>
 800152c:	2003      	movs	r0, #3
 800152e:	f7ff f9e7 	bl	8000900 <LCD_WriteRAM>
 8001532:	2012      	movs	r0, #18
 8001534:	f7ff f9e4 	bl	8000900 <LCD_WriteRAM>
 8001538:	2081      	movs	r0, #129	; 0x81
 800153a:	f7ff f9e1 	bl	8000900 <LCD_WriteRAM>
 800153e:	20e8      	movs	r0, #232	; 0xe8
 8001540:	f7ff f978 	bl	8000834 <LCD_WR_REG>
 8001544:	2085      	movs	r0, #133	; 0x85
 8001546:	f7ff f9db 	bl	8000900 <LCD_WriteRAM>
 800154a:	2010      	movs	r0, #16
 800154c:	f7ff f9d8 	bl	8000900 <LCD_WriteRAM>
 8001550:	207a      	movs	r0, #122	; 0x7a
 8001552:	f7ff f9d5 	bl	8000900 <LCD_WriteRAM>
 8001556:	20cb      	movs	r0, #203	; 0xcb
 8001558:	f7ff f96c 	bl	8000834 <LCD_WR_REG>
 800155c:	2039      	movs	r0, #57	; 0x39
 800155e:	f7ff f9cf 	bl	8000900 <LCD_WriteRAM>
 8001562:	202c      	movs	r0, #44	; 0x2c
 8001564:	f7ff f9cc 	bl	8000900 <LCD_WriteRAM>
 8001568:	2000      	movs	r0, #0
 800156a:	f7ff f9c9 	bl	8000900 <LCD_WriteRAM>
 800156e:	2034      	movs	r0, #52	; 0x34
 8001570:	f7ff f9c6 	bl	8000900 <LCD_WriteRAM>
 8001574:	2002      	movs	r0, #2
 8001576:	f7ff f9c3 	bl	8000900 <LCD_WriteRAM>
 800157a:	20f7      	movs	r0, #247	; 0xf7
 800157c:	f7ff f95a 	bl	8000834 <LCD_WR_REG>
 8001580:	2020      	movs	r0, #32
 8001582:	f7ff f9bd 	bl	8000900 <LCD_WriteRAM>
 8001586:	20ea      	movs	r0, #234	; 0xea
 8001588:	f7ff f954 	bl	8000834 <LCD_WR_REG>
 800158c:	2000      	movs	r0, #0
 800158e:	f7ff f9b7 	bl	8000900 <LCD_WriteRAM>
 8001592:	f7ff f9b5 	bl	8000900 <LCD_WriteRAM>
 8001596:	20c0      	movs	r0, #192	; 0xc0
 8001598:	f7ff f94c 	bl	8000834 <LCD_WR_REG>
 800159c:	201b      	movs	r0, #27
 800159e:	f7ff f9af 	bl	8000900 <LCD_WriteRAM>
 80015a2:	20c1      	movs	r0, #193	; 0xc1
 80015a4:	f7ff f946 	bl	8000834 <LCD_WR_REG>
 80015a8:	2001      	movs	r0, #1
 80015aa:	f7ff f9a9 	bl	8000900 <LCD_WriteRAM>
 80015ae:	20c5      	movs	r0, #197	; 0xc5
 80015b0:	f7ff f940 	bl	8000834 <LCD_WR_REG>
 80015b4:	2030      	movs	r0, #48	; 0x30
 80015b6:	f7ff f9a3 	bl	8000900 <LCD_WriteRAM>
 80015ba:	f7ff f9a1 	bl	8000900 <LCD_WriteRAM>
 80015be:	20c7      	movs	r0, #199	; 0xc7
 80015c0:	f7ff f938 	bl	8000834 <LCD_WR_REG>
 80015c4:	20b7      	movs	r0, #183	; 0xb7
 80015c6:	f7ff f99b 	bl	8000900 <LCD_WriteRAM>
 80015ca:	2036      	movs	r0, #54	; 0x36
 80015cc:	f7ff f932 	bl	8000834 <LCD_WR_REG>
 80015d0:	2048      	movs	r0, #72	; 0x48
 80015d2:	f7ff f995 	bl	8000900 <LCD_WriteRAM>
 80015d6:	203a      	movs	r0, #58	; 0x3a
 80015d8:	f7ff f92c 	bl	8000834 <LCD_WR_REG>
 80015dc:	2055      	movs	r0, #85	; 0x55
 80015de:	f7ff f98f 	bl	8000900 <LCD_WriteRAM>
 80015e2:	20b1      	movs	r0, #177	; 0xb1
 80015e4:	f7ff f926 	bl	8000834 <LCD_WR_REG>
 80015e8:	2000      	movs	r0, #0
 80015ea:	f7ff f989 	bl	8000900 <LCD_WriteRAM>
 80015ee:	201a      	movs	r0, #26
 80015f0:	f7ff f986 	bl	8000900 <LCD_WriteRAM>
 80015f4:	20b6      	movs	r0, #182	; 0xb6
 80015f6:	f7ff f91d 	bl	8000834 <LCD_WR_REG>
 80015fa:	200a      	movs	r0, #10
 80015fc:	f7ff f980 	bl	8000900 <LCD_WriteRAM>
 8001600:	20a2      	movs	r0, #162	; 0xa2
 8001602:	f7ff f97d 	bl	8000900 <LCD_WriteRAM>
 8001606:	20f2      	movs	r0, #242	; 0xf2
 8001608:	f7ff f914 	bl	8000834 <LCD_WR_REG>
 800160c:	2000      	movs	r0, #0
 800160e:	f7ff f977 	bl	8000900 <LCD_WriteRAM>
 8001612:	2026      	movs	r0, #38	; 0x26
 8001614:	f7ff f90e 	bl	8000834 <LCD_WR_REG>
 8001618:	2001      	movs	r0, #1
 800161a:	f7ff f971 	bl	8000900 <LCD_WriteRAM>
 800161e:	20e0      	movs	r0, #224	; 0xe0
 8001620:	f7ff f908 	bl	8000834 <LCD_WR_REG>
 8001624:	200f      	movs	r0, #15
 8001626:	f7ff f96b 	bl	8000900 <LCD_WriteRAM>
 800162a:	202a      	movs	r0, #42	; 0x2a
 800162c:	f7ff f968 	bl	8000900 <LCD_WriteRAM>
 8001630:	2028      	movs	r0, #40	; 0x28
 8001632:	f7ff f965 	bl	8000900 <LCD_WriteRAM>
 8001636:	2008      	movs	r0, #8
 8001638:	f7ff f962 	bl	8000900 <LCD_WriteRAM>
 800163c:	200e      	movs	r0, #14
 800163e:	f7ff f95f 	bl	8000900 <LCD_WriteRAM>
 8001642:	2008      	movs	r0, #8
 8001644:	f7ff f95c 	bl	8000900 <LCD_WriteRAM>
 8001648:	2054      	movs	r0, #84	; 0x54
 800164a:	f7ff f959 	bl	8000900 <LCD_WriteRAM>
 800164e:	20a9      	movs	r0, #169	; 0xa9
 8001650:	f7ff f956 	bl	8000900 <LCD_WriteRAM>
 8001654:	2043      	movs	r0, #67	; 0x43
 8001656:	f7ff f953 	bl	8000900 <LCD_WriteRAM>
 800165a:	200a      	movs	r0, #10
 800165c:	f7ff f950 	bl	8000900 <LCD_WriteRAM>
 8001660:	200f      	movs	r0, #15
 8001662:	f7ff f94d 	bl	8000900 <LCD_WriteRAM>
 8001666:	2000      	movs	r0, #0
 8001668:	f7ff f94a 	bl	8000900 <LCD_WriteRAM>
 800166c:	f7ff f948 	bl	8000900 <LCD_WriteRAM>
 8001670:	f7ff f946 	bl	8000900 <LCD_WriteRAM>
 8001674:	f7ff f944 	bl	8000900 <LCD_WriteRAM>
 8001678:	20e1      	movs	r0, #225	; 0xe1
 800167a:	f7ff f8db 	bl	8000834 <LCD_WR_REG>
 800167e:	2000      	movs	r0, #0
 8001680:	f7ff f93e 	bl	8000900 <LCD_WriteRAM>
 8001684:	2015      	movs	r0, #21
 8001686:	f7ff f93b 	bl	8000900 <LCD_WriteRAM>
 800168a:	2017      	movs	r0, #23
 800168c:	f7ff f938 	bl	8000900 <LCD_WriteRAM>
 8001690:	2007      	movs	r0, #7
 8001692:	f7ff f935 	bl	8000900 <LCD_WriteRAM>
 8001696:	2011      	movs	r0, #17
 8001698:	f7ff f932 	bl	8000900 <LCD_WriteRAM>
 800169c:	2006      	movs	r0, #6
 800169e:	f7ff f92f 	bl	8000900 <LCD_WriteRAM>
 80016a2:	202b      	movs	r0, #43	; 0x2b
 80016a4:	f7ff f92c 	bl	8000900 <LCD_WriteRAM>
 80016a8:	2056      	movs	r0, #86	; 0x56
 80016aa:	f7ff f929 	bl	8000900 <LCD_WriteRAM>
 80016ae:	203c      	movs	r0, #60	; 0x3c
 80016b0:	f7ff f926 	bl	8000900 <LCD_WriteRAM>
 80016b4:	2005      	movs	r0, #5
 80016b6:	f7ff f923 	bl	8000900 <LCD_WriteRAM>
 80016ba:	2010      	movs	r0, #16
 80016bc:	f7ff f920 	bl	8000900 <LCD_WriteRAM>
 80016c0:	200f      	movs	r0, #15
 80016c2:	f7ff f91d 	bl	8000900 <LCD_WriteRAM>
 80016c6:	203f      	movs	r0, #63	; 0x3f
 80016c8:	f7ff f91a 	bl	8000900 <LCD_WriteRAM>
 80016cc:	f7ff f918 	bl	8000900 <LCD_WriteRAM>
 80016d0:	200f      	movs	r0, #15
 80016d2:	f7ff f915 	bl	8000900 <LCD_WriteRAM>
 80016d6:	202b      	movs	r0, #43	; 0x2b
 80016d8:	f7ff f8ac 	bl	8000834 <LCD_WR_REG>
 80016dc:	2000      	movs	r0, #0
 80016de:	f7ff f90f 	bl	8000900 <LCD_WriteRAM>
 80016e2:	f7ff f90d 	bl	8000900 <LCD_WriteRAM>
 80016e6:	2001      	movs	r0, #1
 80016e8:	f7ff f90a 	bl	8000900 <LCD_WriteRAM>
 80016ec:	203f      	movs	r0, #63	; 0x3f
 80016ee:	f7ff f907 	bl	8000900 <LCD_WriteRAM>
 80016f2:	202a      	movs	r0, #42	; 0x2a
 80016f4:	f7ff f89e 	bl	8000834 <LCD_WR_REG>
 80016f8:	2000      	movs	r0, #0
 80016fa:	f7ff f901 	bl	8000900 <LCD_WriteRAM>
 80016fe:	f7ff f8ff 	bl	8000900 <LCD_WriteRAM>
 8001702:	f7ff f8fd 	bl	8000900 <LCD_WriteRAM>
 8001706:	20ef      	movs	r0, #239	; 0xef
 8001708:	f7ff f8fa 	bl	8000900 <LCD_WriteRAM>
 800170c:	2011      	movs	r0, #17
 800170e:	f7ff f891 	bl	8000834 <LCD_WR_REG>
 8001712:	2078      	movs	r0, #120	; 0x78
 8001714:	f003 fd0a 	bl	800512c <HAL_Delay>
 8001718:	2029      	movs	r0, #41	; 0x29
 800171a:	f7ff f88b 	bl	8000834 <LCD_WR_REG>
 800171e:	e01e      	b.n	800175e <LCD_Init+0x3e2>
 8001720:	f641 1363 	movw	r3, #6499	; 0x1963
 8001724:	e6c8      	b.n	80014b8 <LCD_Init+0x13c>
 8001726:	f646 0204 	movw	r2, #26628	; 0x6804
 800172a:	4293      	cmp	r3, r2
 800172c:	f001 80eb 	beq.w	8002906 <LCD_Init+0x158a>
 8001730:	f200 8758 	bhi.w	80025e4 <LCD_Init+0x1268>
 8001734:	f244 5235 	movw	r2, #17717	; 0x4535
 8001738:	4293      	cmp	r3, r2
 800173a:	f002 879d 	beq.w	8004678 <LCD_Init+0x32fc>
 800173e:	d81f      	bhi.n	8001780 <LCD_Init+0x404>
 8001740:	f641 1263 	movw	r2, #6499	; 0x1963
 8001744:	4293      	cmp	r3, r2
 8001746:	f003 8042 	beq.w	80047ce <LCD_Init+0x3452>
 800174a:	f244 5231 	movw	r2, #17713	; 0x4531
 800174e:	4293      	cmp	r3, r2
 8001750:	f002 86dd 	beq.w	800450e <LCD_Init+0x3192>
 8001754:	f241 5205 	movw	r2, #5381	; 0x1505
 8001758:	4293      	cmp	r3, r2
 800175a:	f002 8406 	beq.w	8003f6a <LCD_Init+0x2bee>
 800175e:	2000      	movs	r0, #0
 8001760:	f7ff fd2a 	bl	80011b8 <LCD_Display_Dir>
 8001764:	2201      	movs	r2, #1
 8001766:	4b05      	ldr	r3, [pc, #20]	; (800177c <LCD_Init+0x400>)
 8001768:	f64f 70ff 	movw	r0, #65535	; 0xffff
 800176c:	f8c3 21a8 	str.w	r2, [r3, #424]	; 0x1a8
 8001770:	f7ff fdc2 	bl	80012f8 <LCD_Clear>
 8001774:	b007      	add	sp, #28
 8001776:	e8bd 8ff0 	ldmia.w	sp!, {r4, r5, r6, r7, r8, r9, sl, fp, pc}
 800177a:	bf00      	nop
 800177c:	42220000 	.word	0x42220000
 8001780:	f245 4208 	movw	r2, #21512	; 0x5408
 8001784:	4293      	cmp	r3, r2
 8001786:	f002 834d 	beq.w	8003e24 <LCD_Init+0x2aa8>
 800178a:	f245 5210 	movw	r2, #21776	; 0x5510
 800178e:	4293      	cmp	r3, r2
 8001790:	f001 815b 	beq.w	8002a4a <LCD_Init+0x16ce>
 8001794:	f245 3210 	movw	r2, #21264	; 0x5310
 8001798:	4293      	cmp	r3, r2
 800179a:	d1e0      	bne.n	800175e <LCD_Init+0x3e2>
 800179c:	20ed      	movs	r0, #237	; 0xed
 800179e:	f7ff f849 	bl	8000834 <LCD_WR_REG>
 80017a2:	2001      	movs	r0, #1
 80017a4:	f7ff f8ac 	bl	8000900 <LCD_WriteRAM>
 80017a8:	20fe      	movs	r0, #254	; 0xfe
 80017aa:	f7ff f8a9 	bl	8000900 <LCD_WriteRAM>
 80017ae:	20ee      	movs	r0, #238	; 0xee
 80017b0:	f7ff f840 	bl	8000834 <LCD_WR_REG>
 80017b4:	20de      	movs	r0, #222	; 0xde
 80017b6:	f7ff f8a3 	bl	8000900 <LCD_WriteRAM>
 80017ba:	2021      	movs	r0, #33	; 0x21
 80017bc:	f7ff f8a0 	bl	8000900 <LCD_WriteRAM>
 80017c0:	20f1      	movs	r0, #241	; 0xf1
 80017c2:	f7ff f837 	bl	8000834 <LCD_WR_REG>
 80017c6:	2001      	movs	r0, #1
 80017c8:	f7ff f89a 	bl	8000900 <LCD_WriteRAM>
 80017cc:	20df      	movs	r0, #223	; 0xdf
 80017ce:	f7ff f831 	bl	8000834 <LCD_WR_REG>
 80017d2:	2010      	movs	r0, #16
 80017d4:	f7ff f894 	bl	8000900 <LCD_WriteRAM>
 80017d8:	20c4      	movs	r0, #196	; 0xc4
 80017da:	f7ff f82b 	bl	8000834 <LCD_WR_REG>
 80017de:	208f      	movs	r0, #143	; 0x8f
 80017e0:	f7ff f88e 	bl	8000900 <LCD_WriteRAM>
 80017e4:	20c6      	movs	r0, #198	; 0xc6
 80017e6:	f7ff f825 	bl	8000834 <LCD_WR_REG>
 80017ea:	2000      	movs	r0, #0
 80017ec:	f7ff f888 	bl	8000900 <LCD_WriteRAM>
 80017f0:	20e2      	movs	r0, #226	; 0xe2
 80017f2:	f7ff f885 	bl	8000900 <LCD_WriteRAM>
 80017f6:	f7ff f883 	bl	8000900 <LCD_WriteRAM>
 80017fa:	f7ff f881 	bl	8000900 <LCD_WriteRAM>
 80017fe:	20bf      	movs	r0, #191	; 0xbf
 8001800:	f7ff f818 	bl	8000834 <LCD_WR_REG>
 8001804:	20aa      	movs	r0, #170	; 0xaa
 8001806:	f7ff f87b 	bl	8000900 <LCD_WriteRAM>
 800180a:	20b0      	movs	r0, #176	; 0xb0
 800180c:	f7ff f812 	bl	8000834 <LCD_WR_REG>
 8001810:	200d      	movs	r0, #13
 8001812:	f7ff f875 	bl	8000900 <LCD_WriteRAM>
 8001816:	2000      	movs	r0, #0
 8001818:	f7ff f872 	bl	8000900 <LCD_WriteRAM>
 800181c:	200d      	movs	r0, #13
 800181e:	f7ff f86f 	bl	8000900 <LCD_WriteRAM>
 8001822:	2000      	movs	r0, #0
 8001824:	f7ff f86c 	bl	8000900 <LCD_WriteRAM>
 8001828:	2011      	movs	r0, #17
 800182a:	f7ff f869 	bl	8000900 <LCD_WriteRAM>
 800182e:	2000      	movs	r0, #0
 8001830:	f7ff f866 	bl	8000900 <LCD_WriteRAM>
 8001834:	2019      	movs	r0, #25
 8001836:	f7ff f863 	bl	8000900 <LCD_WriteRAM>
 800183a:	2000      	movs	r0, #0
 800183c:	f7ff f860 	bl	8000900 <LCD_WriteRAM>
 8001840:	2021      	movs	r0, #33	; 0x21
 8001842:	f7ff f85d 	bl	8000900 <LCD_WriteRAM>
 8001846:	2000      	movs	r0, #0
 8001848:	f7ff f85a 	bl	8000900 <LCD_WriteRAM>
 800184c:	202d      	movs	r0, #45	; 0x2d
 800184e:	f7ff f857 	bl	8000900 <LCD_WriteRAM>
 8001852:	2000      	movs	r0, #0
 8001854:	f7ff f854 	bl	8000900 <LCD_WriteRAM>
 8001858:	203d      	movs	r0, #61	; 0x3d
 800185a:	f7ff f851 	bl	8000900 <LCD_WriteRAM>
 800185e:	2000      	movs	r0, #0
 8001860:	f7ff f84e 	bl	8000900 <LCD_WriteRAM>
 8001864:	205d      	movs	r0, #93	; 0x5d
 8001866:	f7ff f84b 	bl	8000900 <LCD_WriteRAM>
 800186a:	2000      	movs	r0, #0
 800186c:	f7ff f848 	bl	8000900 <LCD_WriteRAM>
 8001870:	205d      	movs	r0, #93	; 0x5d
 8001872:	f7ff f845 	bl	8000900 <LCD_WriteRAM>
 8001876:	2000      	movs	r0, #0
 8001878:	f7ff f842 	bl	8000900 <LCD_WriteRAM>
 800187c:	20b1      	movs	r0, #177	; 0xb1
 800187e:	f7fe ffd9 	bl	8000834 <LCD_WR_REG>
 8001882:	2080      	movs	r0, #128	; 0x80
 8001884:	f7ff f83c 	bl	8000900 <LCD_WriteRAM>
 8001888:	2000      	movs	r0, #0
 800188a:	f7ff f839 	bl	8000900 <LCD_WriteRAM>
 800188e:	208b      	movs	r0, #139	; 0x8b
 8001890:	f7ff f836 	bl	8000900 <LCD_WriteRAM>
 8001894:	2000      	movs	r0, #0
 8001896:	f7ff f833 	bl	8000900 <LCD_WriteRAM>
 800189a:	2096      	movs	r0, #150	; 0x96
 800189c:	f7ff f830 	bl	8000900 <LCD_WriteRAM>
 80018a0:	2000      	movs	r0, #0
 80018a2:	f7ff f82d 	bl	8000900 <LCD_WriteRAM>
 80018a6:	20b2      	movs	r0, #178	; 0xb2
 80018a8:	f7fe ffc4 	bl	8000834 <LCD_WR_REG>
 80018ac:	2000      	movs	r0, #0
 80018ae:	f7ff f827 	bl	8000900 <LCD_WriteRAM>
 80018b2:	f7ff f825 	bl	8000900 <LCD_WriteRAM>
 80018b6:	2002      	movs	r0, #2
 80018b8:	f7ff f822 	bl	8000900 <LCD_WriteRAM>
 80018bc:	2000      	movs	r0, #0
 80018be:	f7ff f81f 	bl	8000900 <LCD_WriteRAM>
 80018c2:	2003      	movs	r0, #3
 80018c4:	f7ff f81c 	bl	8000900 <LCD_WriteRAM>
 80018c8:	2000      	movs	r0, #0
 80018ca:	f7ff f819 	bl	8000900 <LCD_WriteRAM>
 80018ce:	20b3      	movs	r0, #179	; 0xb3
 80018d0:	f7fe ffb0 	bl	8000834 <LCD_WR_REG>
 80018d4:	2000      	movs	r0, #0
 80018d6:	f7ff f813 	bl	8000900 <LCD_WriteRAM>
 80018da:	f7ff f811 	bl	8000900 <LCD_WriteRAM>
 80018de:	f7ff f80f 	bl	8000900 <LCD_WriteRAM>
 80018e2:	f7ff f80d 	bl	8000900 <LCD_WriteRAM>
 80018e6:	f7ff f80b 	bl	8000900 <LCD_WriteRAM>
 80018ea:	f7ff f809 	bl	8000900 <LCD_WriteRAM>
 80018ee:	f7ff f807 	bl	8000900 <LCD_WriteRAM>
 80018f2:	f7ff f805 	bl	8000900 <LCD_WriteRAM>
 80018f6:	f7ff f803 	bl	8000900 <LCD_WriteRAM>
 80018fa:	f7ff f801 	bl	8000900 <LCD_WriteRAM>
 80018fe:	f7fe ffff 	bl	8000900 <LCD_WriteRAM>
 8001902:	f7fe fffd 	bl	8000900 <LCD_WriteRAM>
 8001906:	f7fe fffb 	bl	8000900 <LCD_WriteRAM>
 800190a:	f7fe fff9 	bl	8000900 <LCD_WriteRAM>
 800190e:	f7fe fff7 	bl	8000900 <LCD_WriteRAM>
 8001912:	f7fe fff5 	bl	8000900 <LCD_WriteRAM>
 8001916:	f7fe fff3 	bl	8000900 <LCD_WriteRAM>
 800191a:	f7fe fff1 	bl	8000900 <LCD_WriteRAM>
 800191e:	f7fe ffef 	bl	8000900 <LCD_WriteRAM>
 8001922:	f7fe ffed 	bl	8000900 <LCD_WriteRAM>
 8001926:	f7fe ffeb 	bl	8000900 <LCD_WriteRAM>
 800192a:	f7fe ffe9 	bl	8000900 <LCD_WriteRAM>
 800192e:	f7fe ffe7 	bl	8000900 <LCD_WriteRAM>
 8001932:	f7fe ffe5 	bl	8000900 <LCD_WriteRAM>
 8001936:	20b4      	movs	r0, #180	; 0xb4
 8001938:	f7fe ff7c 	bl	8000834 <LCD_WR_REG>
 800193c:	208b      	movs	r0, #139	; 0x8b
 800193e:	f7fe ffdf 	bl	8000900 <LCD_WriteRAM>
 8001942:	2000      	movs	r0, #0
 8001944:	f7fe ffdc 	bl	8000900 <LCD_WriteRAM>
 8001948:	2096      	movs	r0, #150	; 0x96
 800194a:	f7fe ffd9 	bl	8000900 <LCD_WriteRAM>
 800194e:	2000      	movs	r0, #0
 8001950:	f7fe ffd6 	bl	8000900 <LCD_WriteRAM>
 8001954:	20a1      	movs	r0, #161	; 0xa1
 8001956:	f7fe ffd3 	bl	8000900 <LCD_WriteRAM>
 800195a:	2000      	movs	r0, #0
 800195c:	f7fe ffd0 	bl	8000900 <LCD_WriteRAM>
 8001960:	20b5      	movs	r0, #181	; 0xb5
 8001962:	f7fe ff67 	bl	8000834 <LCD_WR_REG>
 8001966:	2002      	movs	r0, #2
 8001968:	f7fe ffca 	bl	8000900 <LCD_WriteRAM>
 800196c:	2000      	movs	r0, #0
 800196e:	f7fe ffc7 	bl	8000900 <LCD_WriteRAM>
 8001972:	2003      	movs	r0, #3
 8001974:	f7fe ffc4 	bl	8000900 <LCD_WriteRAM>
 8001978:	2000      	movs	r0, #0
 800197a:	f7fe ffc1 	bl	8000900 <LCD_WriteRAM>
 800197e:	2004      	movs	r0, #4
 8001980:	f7fe ffbe 	bl	8000900 <LCD_WriteRAM>
 8001984:	2000      	movs	r0, #0
 8001986:	f7fe ffbb 	bl	8000900 <LCD_WriteRAM>
 800198a:	20b6      	movs	r0, #182	; 0xb6
 800198c:	f7fe ff52 	bl	8000834 <LCD_WR_REG>
 8001990:	2000      	movs	r0, #0
 8001992:	f7fe ffb5 	bl	8000900 <LCD_WriteRAM>
 8001996:	f7fe ffb3 	bl	8000900 <LCD_WriteRAM>
 800199a:	20b7      	movs	r0, #183	; 0xb7
 800199c:	f7fe ff4a 	bl	8000834 <LCD_WR_REG>
 80019a0:	2000      	movs	r0, #0
 80019a2:	f7fe ffad 	bl	8000900 <LCD_WriteRAM>
 80019a6:	f7fe ffab 	bl	8000900 <LCD_WriteRAM>
 80019aa:	203f      	movs	r0, #63	; 0x3f
 80019ac:	f7fe ffa8 	bl	8000900 <LCD_WriteRAM>
 80019b0:	2000      	movs	r0, #0
 80019b2:	f7fe ffa5 	bl	8000900 <LCD_WriteRAM>
 80019b6:	205e      	movs	r0, #94	; 0x5e
 80019b8:	f7fe ffa2 	bl	8000900 <LCD_WriteRAM>
 80019bc:	2000      	movs	r0, #0
 80019be:	f7fe ff9f 	bl	8000900 <LCD_WriteRAM>
 80019c2:	2064      	movs	r0, #100	; 0x64
 80019c4:	f7fe ff9c 	bl	8000900 <LCD_WriteRAM>
 80019c8:	2000      	movs	r0, #0
 80019ca:	f7fe ff99 	bl	8000900 <LCD_WriteRAM>
 80019ce:	208c      	movs	r0, #140	; 0x8c
 80019d0:	f7fe ff96 	bl	8000900 <LCD_WriteRAM>
 80019d4:	2000      	movs	r0, #0
 80019d6:	f7fe ff93 	bl	8000900 <LCD_WriteRAM>
 80019da:	20ac      	movs	r0, #172	; 0xac
 80019dc:	f7fe ff90 	bl	8000900 <LCD_WriteRAM>
 80019e0:	2000      	movs	r0, #0
 80019e2:	f7fe ff8d 	bl	8000900 <LCD_WriteRAM>
 80019e6:	20dc      	movs	r0, #220	; 0xdc
 80019e8:	f7fe ff8a 	bl	8000900 <LCD_WriteRAM>
 80019ec:	2000      	movs	r0, #0
 80019ee:	f7fe ff87 	bl	8000900 <LCD_WriteRAM>
 80019f2:	2070      	movs	r0, #112	; 0x70
 80019f4:	f7fe ff84 	bl	8000900 <LCD_WriteRAM>
 80019f8:	2000      	movs	r0, #0
 80019fa:	f7fe ff81 	bl	8000900 <LCD_WriteRAM>
 80019fe:	2090      	movs	r0, #144	; 0x90
 8001a00:	f7fe ff7e 	bl	8000900 <LCD_WriteRAM>
 8001a04:	2000      	movs	r0, #0
 8001a06:	f7fe ff7b 	bl	8000900 <LCD_WriteRAM>
 8001a0a:	20eb      	movs	r0, #235	; 0xeb
 8001a0c:	f7fe ff78 	bl	8000900 <LCD_WriteRAM>
 8001a10:	2000      	movs	r0, #0
 8001a12:	f7fe ff75 	bl	8000900 <LCD_WriteRAM>
 8001a16:	20dc      	movs	r0, #220	; 0xdc
 8001a18:	f7fe ff72 	bl	8000900 <LCD_WriteRAM>
 8001a1c:	2000      	movs	r0, #0
 8001a1e:	f7fe ff6f 	bl	8000900 <LCD_WriteRAM>
 8001a22:	20b8      	movs	r0, #184	; 0xb8
 8001a24:	f7fe ff06 	bl	8000834 <LCD_WR_REG>
 8001a28:	2000      	movs	r0, #0
 8001a2a:	f7fe ff69 	bl	8000900 <LCD_WriteRAM>
 8001a2e:	f7fe ff67 	bl	8000900 <LCD_WriteRAM>
 8001a32:	f7fe ff65 	bl	8000900 <LCD_WriteRAM>
 8001a36:	f7fe ff63 	bl	8000900 <LCD_WriteRAM>
 8001a3a:	f7fe ff61 	bl	8000900 <LCD_WriteRAM>
 8001a3e:	f7fe ff5f 	bl	8000900 <LCD_WriteRAM>
 8001a42:	f7fe ff5d 	bl	8000900 <LCD_WriteRAM>
 8001a46:	f7fe ff5b 	bl	8000900 <LCD_WriteRAM>
 8001a4a:	20ba      	movs	r0, #186	; 0xba
 8001a4c:	f7fe fef2 	bl	8000834 <LCD_WR_REG>
 8001a50:	2024      	movs	r0, #36	; 0x24
 8001a52:	f7fe ff55 	bl	8000900 <LCD_WriteRAM>
 8001a56:	2000      	movs	r0, #0
 8001a58:	f7fe ff52 	bl	8000900 <LCD_WriteRAM>
 8001a5c:	f7fe ff50 	bl	8000900 <LCD_WriteRAM>
 8001a60:	f7fe ff4e 	bl	8000900 <LCD_WriteRAM>
 8001a64:	20c1      	movs	r0, #193	; 0xc1
 8001a66:	f7fe fee5 	bl	8000834 <LCD_WR_REG>
 8001a6a:	2020      	movs	r0, #32
 8001a6c:	f7fe ff48 	bl	8000900 <LCD_WriteRAM>
 8001a70:	2000      	movs	r0, #0
 8001a72:	f7fe ff45 	bl	8000900 <LCD_WriteRAM>
 8001a76:	2054      	movs	r0, #84	; 0x54
 8001a78:	f7fe ff42 	bl	8000900 <LCD_WriteRAM>
 8001a7c:	2000      	movs	r0, #0
 8001a7e:	f7fe ff3f 	bl	8000900 <LCD_WriteRAM>
 8001a82:	20ff      	movs	r0, #255	; 0xff
 8001a84:	f7fe ff3c 	bl	8000900 <LCD_WriteRAM>
 8001a88:	2000      	movs	r0, #0
 8001a8a:	f7fe ff39 	bl	8000900 <LCD_WriteRAM>
 8001a8e:	20c2      	movs	r0, #194	; 0xc2
 8001a90:	f7fe fed0 	bl	8000834 <LCD_WR_REG>
 8001a94:	200a      	movs	r0, #10
 8001a96:	f7fe ff33 	bl	8000900 <LCD_WriteRAM>
 8001a9a:	2000      	movs	r0, #0
 8001a9c:	f7fe ff30 	bl	8000900 <LCD_WriteRAM>
 8001aa0:	2004      	movs	r0, #4
 8001aa2:	f7fe ff2d 	bl	8000900 <LCD_WriteRAM>
 8001aa6:	2000      	movs	r0, #0
 8001aa8:	f7fe ff2a 	bl	8000900 <LCD_WriteRAM>
 8001aac:	20c3      	movs	r0, #195	; 0xc3
 8001aae:	f7fe fec1 	bl	8000834 <LCD_WR_REG>
 8001ab2:	203c      	movs	r0, #60	; 0x3c
 8001ab4:	f7fe ff24 	bl	8000900 <LCD_WriteRAM>
 8001ab8:	2000      	movs	r0, #0
 8001aba:	f7fe ff21 	bl	8000900 <LCD_WriteRAM>
 8001abe:	203a      	movs	r0, #58	; 0x3a
 8001ac0:	f7fe ff1e 	bl	8000900 <LCD_WriteRAM>
 8001ac4:	2000      	movs	r0, #0
 8001ac6:	f7fe ff1b 	bl	8000900 <LCD_WriteRAM>
 8001aca:	2039      	movs	r0, #57	; 0x39
 8001acc:	f7fe ff18 	bl	8000900 <LCD_WriteRAM>
 8001ad0:	2000      	movs	r0, #0
 8001ad2:	f7fe ff15 	bl	8000900 <LCD_WriteRAM>
 8001ad6:	2037      	movs	r0, #55	; 0x37
 8001ad8:	f7fe ff12 	bl	8000900 <LCD_WriteRAM>
 8001adc:	2000      	movs	r0, #0
 8001ade:	f7fe ff0f 	bl	8000900 <LCD_WriteRAM>
 8001ae2:	203c      	movs	r0, #60	; 0x3c
 8001ae4:	f7fe ff0c 	bl	8000900 <LCD_WriteRAM>
 8001ae8:	2000      	movs	r0, #0
 8001aea:	f7fe ff09 	bl	8000900 <LCD_WriteRAM>
 8001aee:	2036      	movs	r0, #54	; 0x36
 8001af0:	f7fe ff06 	bl	8000900 <LCD_WriteRAM>
 8001af4:	2000      	movs	r0, #0
 8001af6:	f7fe ff03 	bl	8000900 <LCD_WriteRAM>
 8001afa:	2032      	movs	r0, #50	; 0x32
 8001afc:	f7fe ff00 	bl	8000900 <LCD_WriteRAM>
 8001b00:	2000      	movs	r0, #0
 8001b02:	f7fe fefd 	bl	8000900 <LCD_WriteRAM>
 8001b06:	202f      	movs	r0, #47	; 0x2f
 8001b08:	f7fe fefa 	bl	8000900 <LCD_WriteRAM>
 8001b0c:	2000      	movs	r0, #0
 8001b0e:	f7fe fef7 	bl	8000900 <LCD_WriteRAM>
 8001b12:	202c      	movs	r0, #44	; 0x2c
 8001b14:	f7fe fef4 	bl	8000900 <LCD_WriteRAM>
 8001b18:	2000      	movs	r0, #0
 8001b1a:	f7fe fef1 	bl	8000900 <LCD_WriteRAM>
 8001b1e:	2029      	movs	r0, #41	; 0x29
 8001b20:	f7fe feee 	bl	8000900 <LCD_WriteRAM>
 8001b24:	2000      	movs	r0, #0
 8001b26:	f7fe feeb 	bl	8000900 <LCD_WriteRAM>
 8001b2a:	2026      	movs	r0, #38	; 0x26
 8001b2c:	f7fe fee8 	bl	8000900 <LCD_WriteRAM>
 8001b30:	2000      	movs	r0, #0
 8001b32:	f7fe fee5 	bl	8000900 <LCD_WriteRAM>
 8001b36:	2024      	movs	r0, #36	; 0x24
 8001b38:	f7fe fee2 	bl	8000900 <LCD_WriteRAM>
 8001b3c:	2000      	movs	r0, #0
 8001b3e:	f7fe fedf 	bl	8000900 <LCD_WriteRAM>
 8001b42:	2024      	movs	r0, #36	; 0x24
 8001b44:	f7fe fedc 	bl	8000900 <LCD_WriteRAM>
 8001b48:	2000      	movs	r0, #0
 8001b4a:	f7fe fed9 	bl	8000900 <LCD_WriteRAM>
 8001b4e:	2023      	movs	r0, #35	; 0x23
 8001b50:	f7fe fed6 	bl	8000900 <LCD_WriteRAM>
 8001b54:	2000      	movs	r0, #0
 8001b56:	f7fe fed3 	bl	8000900 <LCD_WriteRAM>
 8001b5a:	203c      	movs	r0, #60	; 0x3c
 8001b5c:	f7fe fed0 	bl	8000900 <LCD_WriteRAM>
 8001b60:	2000      	movs	r0, #0
 8001b62:	f7fe fecd 	bl	8000900 <LCD_WriteRAM>
 8001b66:	2036      	movs	r0, #54	; 0x36
 8001b68:	f7fe feca 	bl	8000900 <LCD_WriteRAM>
 8001b6c:	2000      	movs	r0, #0
 8001b6e:	f7fe fec7 	bl	8000900 <LCD_WriteRAM>
 8001b72:	2032      	movs	r0, #50	; 0x32
 8001b74:	f7fe fec4 	bl	8000900 <LCD_WriteRAM>
 8001b78:	2000      	movs	r0, #0
 8001b7a:	f7fe fec1 	bl	8000900 <LCD_WriteRAM>
 8001b7e:	202f      	movs	r0, #47	; 0x2f
 8001b80:	f7fe febe 	bl	8000900 <LCD_WriteRAM>
 8001b84:	2000      	movs	r0, #0
 8001b86:	f7fe febb 	bl	8000900 <LCD_WriteRAM>
 8001b8a:	202c      	movs	r0, #44	; 0x2c
 8001b8c:	f7fe feb8 	bl	8000900 <LCD_WriteRAM>
 8001b90:	2000      	movs	r0, #0
 8001b92:	f7fe feb5 	bl	8000900 <LCD_WriteRAM>
 8001b96:	2029      	movs	r0, #41	; 0x29
 8001b98:	f7fe feb2 	bl	8000900 <LCD_WriteRAM>
 8001b9c:	2000      	movs	r0, #0
 8001b9e:	f7fe feaf 	bl	8000900 <LCD_WriteRAM>
 8001ba2:	2026      	movs	r0, #38	; 0x26
 8001ba4:	f7fe feac 	bl	8000900 <LCD_WriteRAM>
 8001ba8:	2000      	movs	r0, #0
 8001baa:	f7fe fea9 	bl	8000900 <LCD_WriteRAM>
 8001bae:	2024      	movs	r0, #36	; 0x24
 8001bb0:	f7fe fea6 	bl	8000900 <LCD_WriteRAM>
 8001bb4:	2000      	movs	r0, #0
 8001bb6:	f7fe fea3 	bl	8000900 <LCD_WriteRAM>
 8001bba:	2024      	movs	r0, #36	; 0x24
 8001bbc:	f7fe fea0 	bl	8000900 <LCD_WriteRAM>
 8001bc0:	2000      	movs	r0, #0
 8001bc2:	f7fe fe9d 	bl	8000900 <LCD_WriteRAM>
 8001bc6:	2023      	movs	r0, #35	; 0x23
 8001bc8:	f7fe fe9a 	bl	8000900 <LCD_WriteRAM>
 8001bcc:	2000      	movs	r0, #0
 8001bce:	f7fe fe97 	bl	8000900 <LCD_WriteRAM>
 8001bd2:	20c4      	movs	r0, #196	; 0xc4
 8001bd4:	f7fe fe2e 	bl	8000834 <LCD_WR_REG>
 8001bd8:	2062      	movs	r0, #98	; 0x62
 8001bda:	f7fe fe91 	bl	8000900 <LCD_WriteRAM>
 8001bde:	2000      	movs	r0, #0
 8001be0:	f7fe fe8e 	bl	8000900 <LCD_WriteRAM>
 8001be4:	2005      	movs	r0, #5
 8001be6:	f7fe fe8b 	bl	8000900 <LCD_WriteRAM>
 8001bea:	2000      	movs	r0, #0
 8001bec:	f7fe fe88 	bl	8000900 <LCD_WriteRAM>
 8001bf0:	2084      	movs	r0, #132	; 0x84
 8001bf2:	f7fe fe85 	bl	8000900 <LCD_WriteRAM>
 8001bf6:	2000      	movs	r0, #0
 8001bf8:	f7fe fe82 	bl	8000900 <LCD_WriteRAM>
 8001bfc:	20f0      	movs	r0, #240	; 0xf0
 8001bfe:	f7fe fe7f 	bl	8000900 <LCD_WriteRAM>
 8001c02:	2000      	movs	r0, #0
 8001c04:	f7fe fe7c 	bl	8000900 <LCD_WriteRAM>
 8001c08:	2018      	movs	r0, #24
 8001c0a:	f7fe fe79 	bl	8000900 <LCD_WriteRAM>
 8001c0e:	2000      	movs	r0, #0
 8001c10:	f7fe fe76 	bl	8000900 <LCD_WriteRAM>
 8001c14:	20a4      	movs	r0, #164	; 0xa4
 8001c16:	f7fe fe73 	bl	8000900 <LCD_WriteRAM>
 8001c1a:	2000      	movs	r0, #0
 8001c1c:	f7fe fe70 	bl	8000900 <LCD_WriteRAM>
 8001c20:	2018      	movs	r0, #24
 8001c22:	f7fe fe6d 	bl	8000900 <LCD_WriteRAM>
 8001c26:	2000      	movs	r0, #0
 8001c28:	f7fe fe6a 	bl	8000900 <LCD_WriteRAM>
 8001c2c:	2050      	movs	r0, #80	; 0x50
 8001c2e:	f7fe fe67 	bl	8000900 <LCD_WriteRAM>
 8001c32:	2000      	movs	r0, #0
 8001c34:	f7fe fe64 	bl	8000900 <LCD_WriteRAM>
 8001c38:	200c      	movs	r0, #12
 8001c3a:	f7fe fe61 	bl	8000900 <LCD_WriteRAM>
 8001c3e:	2000      	movs	r0, #0
 8001c40:	f7fe fe5e 	bl	8000900 <LCD_WriteRAM>
 8001c44:	2017      	movs	r0, #23
 8001c46:	f7fe fe5b 	bl	8000900 <LCD_WriteRAM>
 8001c4a:	2000      	movs	r0, #0
 8001c4c:	f7fe fe58 	bl	8000900 <LCD_WriteRAM>
 8001c50:	2095      	movs	r0, #149	; 0x95
 8001c52:	f7fe fe55 	bl	8000900 <LCD_WriteRAM>
 8001c56:	2000      	movs	r0, #0
 8001c58:	f7fe fe52 	bl	8000900 <LCD_WriteRAM>
 8001c5c:	20f3      	movs	r0, #243	; 0xf3
 8001c5e:	f7fe fe4f 	bl	8000900 <LCD_WriteRAM>
 8001c62:	2000      	movs	r0, #0
 8001c64:	f7fe fe4c 	bl	8000900 <LCD_WriteRAM>
 8001c68:	20e6      	movs	r0, #230	; 0xe6
 8001c6a:	f7fe fe49 	bl	8000900 <LCD_WriteRAM>
 8001c6e:	2000      	movs	r0, #0
 8001c70:	f7fe fe46 	bl	8000900 <LCD_WriteRAM>
 8001c74:	20c5      	movs	r0, #197	; 0xc5
 8001c76:	f7fe fddd 	bl	8000834 <LCD_WR_REG>
 8001c7a:	2032      	movs	r0, #50	; 0x32
 8001c7c:	f7fe fe40 	bl	8000900 <LCD_WriteRAM>
 8001c80:	2000      	movs	r0, #0
 8001c82:	f7fe fe3d 	bl	8000900 <LCD_WriteRAM>
 8001c86:	2044      	movs	r0, #68	; 0x44
 8001c88:	f7fe fe3a 	bl	8000900 <LCD_WriteRAM>
 8001c8c:	2000      	movs	r0, #0
 8001c8e:	f7fe fe37 	bl	8000900 <LCD_WriteRAM>
 8001c92:	2065      	movs	r0, #101	; 0x65
 8001c94:	f7fe fe34 	bl	8000900 <LCD_WriteRAM>
 8001c98:	2000      	movs	r0, #0
 8001c9a:	f7fe fe31 	bl	8000900 <LCD_WriteRAM>
 8001c9e:	2076      	movs	r0, #118	; 0x76
 8001ca0:	f7fe fe2e 	bl	8000900 <LCD_WriteRAM>
 8001ca4:	2000      	movs	r0, #0
 8001ca6:	f7fe fe2b 	bl	8000900 <LCD_WriteRAM>
 8001caa:	2088      	movs	r0, #136	; 0x88
 8001cac:	f7fe fe28 	bl	8000900 <LCD_WriteRAM>
 8001cb0:	2000      	movs	r0, #0
 8001cb2:	f7fe fe25 	bl	8000900 <LCD_WriteRAM>
 8001cb6:	20c6      	movs	r0, #198	; 0xc6
 8001cb8:	f7fe fdbc 	bl	8000834 <LCD_WR_REG>
 8001cbc:	2020      	movs	r0, #32
 8001cbe:	f7fe fe1f 	bl	8000900 <LCD_WriteRAM>
 8001cc2:	2000      	movs	r0, #0
 8001cc4:	f7fe fe1c 	bl	8000900 <LCD_WriteRAM>
 8001cc8:	2017      	movs	r0, #23
 8001cca:	f7fe fe19 	bl	8000900 <LCD_WriteRAM>
 8001cce:	2000      	movs	r0, #0
 8001cd0:	f7fe fe16 	bl	8000900 <LCD_WriteRAM>
 8001cd4:	2001      	movs	r0, #1
 8001cd6:	f7fe fe13 	bl	8000900 <LCD_WriteRAM>
 8001cda:	2000      	movs	r0, #0
 8001cdc:	f7fe fe10 	bl	8000900 <LCD_WriteRAM>
 8001ce0:	20c7      	movs	r0, #199	; 0xc7
 8001ce2:	f7fe fda7 	bl	8000834 <LCD_WR_REG>
 8001ce6:	2000      	movs	r0, #0
 8001ce8:	f7fe fe0a 	bl	8000900 <LCD_WriteRAM>
 8001cec:	f7fe fe08 	bl	8000900 <LCD_WriteRAM>
 8001cf0:	f7fe fe06 	bl	8000900 <LCD_WriteRAM>
 8001cf4:	f7fe fe04 	bl	8000900 <LCD_WriteRAM>
 8001cf8:	20c8      	movs	r0, #200	; 0xc8
 8001cfa:	f7fe fd9b 	bl	8000834 <LCD_WR_REG>
 8001cfe:	2000      	movs	r0, #0
 8001d00:	f7fe fdfe 	bl	8000900 <LCD_WriteRAM>
 8001d04:	f7fe fdfc 	bl	8000900 <LCD_WriteRAM>
 8001d08:	f7fe fdfa 	bl	8000900 <LCD_WriteRAM>
 8001d0c:	f7fe fdf8 	bl	8000900 <LCD_WriteRAM>
 8001d10:	20c9      	movs	r0, #201	; 0xc9
 8001d12:	f7fe fd8f 	bl	8000834 <LCD_WR_REG>
 8001d16:	2000      	movs	r0, #0
 8001d18:	f7fe fdf2 	bl	8000900 <LCD_WriteRAM>
 8001d1c:	f7fe fdf0 	bl	8000900 <LCD_WriteRAM>
 8001d20:	f7fe fdee 	bl	8000900 <LCD_WriteRAM>
 8001d24:	f7fe fdec 	bl	8000900 <LCD_WriteRAM>
 8001d28:	f7fe fdea 	bl	8000900 <LCD_WriteRAM>
 8001d2c:	f7fe fde8 	bl	8000900 <LCD_WriteRAM>
 8001d30:	f7fe fde6 	bl	8000900 <LCD_WriteRAM>
 8001d34:	f7fe fde4 	bl	8000900 <LCD_WriteRAM>
 8001d38:	f7fe fde2 	bl	8000900 <LCD_WriteRAM>
 8001d3c:	f7fe fde0 	bl	8000900 <LCD_WriteRAM>
 8001d40:	f7fe fdde 	bl	8000900 <LCD_WriteRAM>
 8001d44:	f7fe fddc 	bl	8000900 <LCD_WriteRAM>
 8001d48:	f7fe fdda 	bl	8000900 <LCD_WriteRAM>
 8001d4c:	f7fe fdd8 	bl	8000900 <LCD_WriteRAM>
 8001d50:	f7fe fdd6 	bl	8000900 <LCD_WriteRAM>
 8001d54:	f7fe fdd4 	bl	8000900 <LCD_WriteRAM>
 8001d58:	20e0      	movs	r0, #224	; 0xe0
 8001d5a:	f7fe fd6b 	bl	8000834 <LCD_WR_REG>
 8001d5e:	2016      	movs	r0, #22
 8001d60:	f7fe fdce 	bl	8000900 <LCD_WriteRAM>
 8001d64:	2000      	movs	r0, #0
 8001d66:	f7fe fdcb 	bl	8000900 <LCD_WriteRAM>
 8001d6a:	201c      	movs	r0, #28
 8001d6c:	f7fe fdc8 	bl	8000900 <LCD_WriteRAM>
 8001d70:	2000      	movs	r0, #0
 8001d72:	f7fe fdc5 	bl	8000900 <LCD_WriteRAM>
 8001d76:	2021      	movs	r0, #33	; 0x21
 8001d78:	f7fe fdc2 	bl	8000900 <LCD_WriteRAM>
 8001d7c:	2000      	movs	r0, #0
 8001d7e:	f7fe fdbf 	bl	8000900 <LCD_WriteRAM>
 8001d82:	2036      	movs	r0, #54	; 0x36
 8001d84:	f7fe fdbc 	bl	8000900 <LCD_WriteRAM>
 8001d88:	2000      	movs	r0, #0
 8001d8a:	f7fe fdb9 	bl	8000900 <LCD_WriteRAM>
 8001d8e:	2046      	movs	r0, #70	; 0x46
 8001d90:	f7fe fdb6 	bl	8000900 <LCD_WriteRAM>
 8001d94:	2000      	movs	r0, #0
 8001d96:	f7fe fdb3 	bl	8000900 <LCD_WriteRAM>
 8001d9a:	2052      	movs	r0, #82	; 0x52
 8001d9c:	f7fe fdb0 	bl	8000900 <LCD_WriteRAM>
 8001da0:	2000      	movs	r0, #0
 8001da2:	f7fe fdad 	bl	8000900 <LCD_WriteRAM>
 8001da6:	2064      	movs	r0, #100	; 0x64
 8001da8:	f7fe fdaa 	bl	8000900 <LCD_WriteRAM>
 8001dac:	2000      	movs	r0, #0
 8001dae:	f7fe fda7 	bl	8000900 <LCD_WriteRAM>
 8001db2:	207a      	movs	r0, #122	; 0x7a
 8001db4:	f7fe fda4 	bl	8000900 <LCD_WriteRAM>
 8001db8:	2000      	movs	r0, #0
 8001dba:	f7fe fda1 	bl	8000900 <LCD_WriteRAM>
 8001dbe:	208b      	movs	r0, #139	; 0x8b
 8001dc0:	f7fe fd9e 	bl	8000900 <LCD_WriteRAM>
 8001dc4:	2000      	movs	r0, #0
 8001dc6:	f7fe fd9b 	bl	8000900 <LCD_WriteRAM>
 8001dca:	2099      	movs	r0, #153	; 0x99
 8001dcc:	f7fe fd98 	bl	8000900 <LCD_WriteRAM>
 8001dd0:	2000      	movs	r0, #0
 8001dd2:	f7fe fd95 	bl	8000900 <LCD_WriteRAM>
 8001dd6:	20a8      	movs	r0, #168	; 0xa8
 8001dd8:	f7fe fd92 	bl	8000900 <LCD_WriteRAM>
 8001ddc:	2000      	movs	r0, #0
 8001dde:	f7fe fd8f 	bl	8000900 <LCD_WriteRAM>
 8001de2:	20b9      	movs	r0, #185	; 0xb9
 8001de4:	f7fe fd8c 	bl	8000900 <LCD_WriteRAM>
 8001de8:	2000      	movs	r0, #0
 8001dea:	f7fe fd89 	bl	8000900 <LCD_WriteRAM>
 8001dee:	20c4      	movs	r0, #196	; 0xc4
 8001df0:	f7fe fd86 	bl	8000900 <LCD_WriteRAM>
 8001df4:	2000      	movs	r0, #0
 8001df6:	f7fe fd83 	bl	8000900 <LCD_WriteRAM>
 8001dfa:	20ca      	movs	r0, #202	; 0xca
 8001dfc:	f7fe fd80 	bl	8000900 <LCD_WriteRAM>
 8001e00:	2000      	movs	r0, #0
 8001e02:	f7fe fd7d 	bl	8000900 <LCD_WriteRAM>
 8001e06:	20d2      	movs	r0, #210	; 0xd2
 8001e08:	f7fe fd7a 	bl	8000900 <LCD_WriteRAM>
 8001e0c:	2000      	movs	r0, #0
 8001e0e:	f7fe fd77 	bl	8000900 <LCD_WriteRAM>
 8001e12:	20d9      	movs	r0, #217	; 0xd9
 8001e14:	f7fe fd74 	bl	8000900 <LCD_WriteRAM>
 8001e18:	2000      	movs	r0, #0
 8001e1a:	f7fe fd71 	bl	8000900 <LCD_WriteRAM>
 8001e1e:	20e0      	movs	r0, #224	; 0xe0
 8001e20:	f7fe fd6e 	bl	8000900 <LCD_WriteRAM>
 8001e24:	2000      	movs	r0, #0
 8001e26:	f7fe fd6b 	bl	8000900 <LCD_WriteRAM>
 8001e2a:	20f3      	movs	r0, #243	; 0xf3
 8001e2c:	f7fe fd68 	bl	8000900 <LCD_WriteRAM>
 8001e30:	2000      	movs	r0, #0
 8001e32:	f7fe fd65 	bl	8000900 <LCD_WriteRAM>
 8001e36:	20e1      	movs	r0, #225	; 0xe1
 8001e38:	f7fe fcfc 	bl	8000834 <LCD_WR_REG>
 8001e3c:	2016      	movs	r0, #22
 8001e3e:	f7fe fd5f 	bl	8000900 <LCD_WriteRAM>
 8001e42:	2000      	movs	r0, #0
 8001e44:	f7fe fd5c 	bl	8000900 <LCD_WriteRAM>
 8001e48:	201c      	movs	r0, #28
 8001e4a:	f7fe fd59 	bl	8000900 <LCD_WriteRAM>
 8001e4e:	2000      	movs	r0, #0
 8001e50:	f7fe fd56 	bl	8000900 <LCD_WriteRAM>
 8001e54:	2022      	movs	r0, #34	; 0x22
 8001e56:	f7fe fd53 	bl	8000900 <LCD_WriteRAM>
 8001e5a:	2000      	movs	r0, #0
 8001e5c:	f7fe fd50 	bl	8000900 <LCD_WriteRAM>
 8001e60:	2036      	movs	r0, #54	; 0x36
 8001e62:	f7fe fd4d 	bl	8000900 <LCD_WriteRAM>
 8001e66:	2000      	movs	r0, #0
 8001e68:	f7fe fd4a 	bl	8000900 <LCD_WriteRAM>
 8001e6c:	2045      	movs	r0, #69	; 0x45
 8001e6e:	f7fe fd47 	bl	8000900 <LCD_WriteRAM>
 8001e72:	2000      	movs	r0, #0
 8001e74:	f7fe fd44 	bl	8000900 <LCD_WriteRAM>
 8001e78:	2052      	movs	r0, #82	; 0x52
 8001e7a:	f7fe fd41 	bl	8000900 <LCD_WriteRAM>
 8001e7e:	2000      	movs	r0, #0
 8001e80:	f7fe fd3e 	bl	8000900 <LCD_WriteRAM>
 8001e84:	2064      	movs	r0, #100	; 0x64
 8001e86:	f7fe fd3b 	bl	8000900 <LCD_WriteRAM>
 8001e8a:	2000      	movs	r0, #0
 8001e8c:	f7fe fd38 	bl	8000900 <LCD_WriteRAM>
 8001e90:	207a      	movs	r0, #122	; 0x7a
 8001e92:	f7fe fd35 	bl	8000900 <LCD_WriteRAM>
 8001e96:	2000      	movs	r0, #0
 8001e98:	f7fe fd32 	bl	8000900 <LCD_WriteRAM>
 8001e9c:	208b      	movs	r0, #139	; 0x8b
 8001e9e:	f7fe fd2f 	bl	8000900 <LCD_WriteRAM>
 8001ea2:	2000      	movs	r0, #0
 8001ea4:	f7fe fd2c 	bl	8000900 <LCD_WriteRAM>
 8001ea8:	2099      	movs	r0, #153	; 0x99
 8001eaa:	f7fe fd29 	bl	8000900 <LCD_WriteRAM>
 8001eae:	2000      	movs	r0, #0
 8001eb0:	f7fe fd26 	bl	8000900 <LCD_WriteRAM>
 8001eb4:	20a8      	movs	r0, #168	; 0xa8
 8001eb6:	f7fe fd23 	bl	8000900 <LCD_WriteRAM>
 8001eba:	2000      	movs	r0, #0
 8001ebc:	f7fe fd20 	bl	8000900 <LCD_WriteRAM>
 8001ec0:	20b9      	movs	r0, #185	; 0xb9
 8001ec2:	f7fe fd1d 	bl	8000900 <LCD_WriteRAM>
 8001ec6:	2000      	movs	r0, #0
 8001ec8:	f7fe fd1a 	bl	8000900 <LCD_WriteRAM>
 8001ecc:	20c4      	movs	r0, #196	; 0xc4
 8001ece:	f7fe fd17 	bl	8000900 <LCD_WriteRAM>
 8001ed2:	2000      	movs	r0, #0
 8001ed4:	f7fe fd14 	bl	8000900 <LCD_WriteRAM>
 8001ed8:	20ca      	movs	r0, #202	; 0xca
 8001eda:	f7fe fd11 	bl	8000900 <LCD_WriteRAM>
 8001ede:	2000      	movs	r0, #0
 8001ee0:	f7fe fd0e 	bl	8000900 <LCD_WriteRAM>
 8001ee4:	20d2      	movs	r0, #210	; 0xd2
 8001ee6:	f7fe fd0b 	bl	8000900 <LCD_WriteRAM>
 8001eea:	2000      	movs	r0, #0
 8001eec:	f7fe fd08 	bl	8000900 <LCD_WriteRAM>
 8001ef0:	20d8      	movs	r0, #216	; 0xd8
 8001ef2:	f7fe fd05 	bl	8000900 <LCD_WriteRAM>
 8001ef6:	2000      	movs	r0, #0
 8001ef8:	f7fe fd02 	bl	8000900 <LCD_WriteRAM>
 8001efc:	20e0      	movs	r0, #224	; 0xe0
 8001efe:	f7fe fcff 	bl	8000900 <LCD_WriteRAM>
 8001f02:	2000      	movs	r0, #0
 8001f04:	f7fe fcfc 	bl	8000900 <LCD_WriteRAM>
 8001f08:	20f3      	movs	r0, #243	; 0xf3
 8001f0a:	f7fe fcf9 	bl	8000900 <LCD_WriteRAM>
 8001f0e:	2000      	movs	r0, #0
 8001f10:	f7fe fcf6 	bl	8000900 <LCD_WriteRAM>
 8001f14:	20e2      	movs	r0, #226	; 0xe2
 8001f16:	f7fe fc8d 	bl	8000834 <LCD_WR_REG>
 8001f1a:	2005      	movs	r0, #5
 8001f1c:	f7fe fcf0 	bl	8000900 <LCD_WriteRAM>
 8001f20:	2000      	movs	r0, #0
 8001f22:	f7fe fced 	bl	8000900 <LCD_WriteRAM>
 8001f26:	200b      	movs	r0, #11
 8001f28:	f7fe fcea 	bl	8000900 <LCD_WriteRAM>
 8001f2c:	2000      	movs	r0, #0
 8001f2e:	f7fe fce7 	bl	8000900 <LCD_WriteRAM>
 8001f32:	201b      	movs	r0, #27
 8001f34:	f7fe fce4 	bl	8000900 <LCD_WriteRAM>
 8001f38:	2000      	movs	r0, #0
 8001f3a:	f7fe fce1 	bl	8000900 <LCD_WriteRAM>
 8001f3e:	2034      	movs	r0, #52	; 0x34
 8001f40:	f7fe fcde 	bl	8000900 <LCD_WriteRAM>
 8001f44:	2000      	movs	r0, #0
 8001f46:	f7fe fcdb 	bl	8000900 <LCD_WriteRAM>
 8001f4a:	2044      	movs	r0, #68	; 0x44
 8001f4c:	f7fe fcd8 	bl	8000900 <LCD_WriteRAM>
 8001f50:	2000      	movs	r0, #0
 8001f52:	f7fe fcd5 	bl	8000900 <LCD_WriteRAM>
 8001f56:	204f      	movs	r0, #79	; 0x4f
 8001f58:	f7fe fcd2 	bl	8000900 <LCD_WriteRAM>
 8001f5c:	2000      	movs	r0, #0
 8001f5e:	f7fe fccf 	bl	8000900 <LCD_WriteRAM>
 8001f62:	2061      	movs	r0, #97	; 0x61
 8001f64:	f7fe fccc 	bl	8000900 <LCD_WriteRAM>
 8001f68:	2000      	movs	r0, #0
 8001f6a:	f7fe fcc9 	bl	8000900 <LCD_WriteRAM>
 8001f6e:	2079      	movs	r0, #121	; 0x79
 8001f70:	f7fe fcc6 	bl	8000900 <LCD_WriteRAM>
 8001f74:	2000      	movs	r0, #0
 8001f76:	f7fe fcc3 	bl	8000900 <LCD_WriteRAM>
 8001f7a:	2088      	movs	r0, #136	; 0x88
 8001f7c:	f7fe fcc0 	bl	8000900 <LCD_WriteRAM>
 8001f80:	2000      	movs	r0, #0
 8001f82:	f7fe fcbd 	bl	8000900 <LCD_WriteRAM>
 8001f86:	2097      	movs	r0, #151	; 0x97
 8001f88:	f7fe fcba 	bl	8000900 <LCD_WriteRAM>
 8001f8c:	2000      	movs	r0, #0
 8001f8e:	f7fe fcb7 	bl	8000900 <LCD_WriteRAM>
 8001f92:	20a6      	movs	r0, #166	; 0xa6
 8001f94:	f7fe fcb4 	bl	8000900 <LCD_WriteRAM>
 8001f98:	2000      	movs	r0, #0
 8001f9a:	f7fe fcb1 	bl	8000900 <LCD_WriteRAM>
 8001f9e:	20b7      	movs	r0, #183	; 0xb7
 8001fa0:	f7fe fcae 	bl	8000900 <LCD_WriteRAM>
 8001fa4:	2000      	movs	r0, #0
 8001fa6:	f7fe fcab 	bl	8000900 <LCD_WriteRAM>
 8001faa:	20c2      	movs	r0, #194	; 0xc2
 8001fac:	f7fe fca8 	bl	8000900 <LCD_WriteRAM>
 8001fb0:	2000      	movs	r0, #0
 8001fb2:	f7fe fca5 	bl	8000900 <LCD_WriteRAM>
 8001fb6:	20c7      	movs	r0, #199	; 0xc7
 8001fb8:	f7fe fca2 	bl	8000900 <LCD_WriteRAM>
 8001fbc:	2000      	movs	r0, #0
 8001fbe:	f7fe fc9f 	bl	8000900 <LCD_WriteRAM>
 8001fc2:	20d1      	movs	r0, #209	; 0xd1
 8001fc4:	f7fe fc9c 	bl	8000900 <LCD_WriteRAM>
 8001fc8:	2000      	movs	r0, #0
 8001fca:	f7fe fc99 	bl	8000900 <LCD_WriteRAM>
 8001fce:	20d6      	movs	r0, #214	; 0xd6
 8001fd0:	f7fe fc96 	bl	8000900 <LCD_WriteRAM>
 8001fd4:	2000      	movs	r0, #0
 8001fd6:	f7fe fc93 	bl	8000900 <LCD_WriteRAM>
 8001fda:	20dd      	movs	r0, #221	; 0xdd
 8001fdc:	f7fe fc90 	bl	8000900 <LCD_WriteRAM>
 8001fe0:	2000      	movs	r0, #0
 8001fe2:	f7fe fc8d 	bl	8000900 <LCD_WriteRAM>
 8001fe6:	20f3      	movs	r0, #243	; 0xf3
 8001fe8:	f7fe fc8a 	bl	8000900 <LCD_WriteRAM>
 8001fec:	2000      	movs	r0, #0
 8001fee:	f7fe fc87 	bl	8000900 <LCD_WriteRAM>
 8001ff2:	20e3      	movs	r0, #227	; 0xe3
 8001ff4:	f7fe fc1e 	bl	8000834 <LCD_WR_REG>
 8001ff8:	2005      	movs	r0, #5
 8001ffa:	f7fe fc81 	bl	8000900 <LCD_WriteRAM>
 8001ffe:	2000      	movs	r0, #0
 8002000:	f7fe fc7e 	bl	8000900 <LCD_WriteRAM>
 8002004:	200a      	movs	r0, #10
 8002006:	f7fe fc7b 	bl	8000900 <LCD_WriteRAM>
 800200a:	2000      	movs	r0, #0
 800200c:	f7fe fc78 	bl	8000900 <LCD_WriteRAM>
 8002010:	201c      	movs	r0, #28
 8002012:	f7fe fc75 	bl	8000900 <LCD_WriteRAM>
 8002016:	2000      	movs	r0, #0
 8002018:	f7fe fc72 	bl	8000900 <LCD_WriteRAM>
 800201c:	2033      	movs	r0, #51	; 0x33
 800201e:	f7fe fc6f 	bl	8000900 <LCD_WriteRAM>
 8002022:	2000      	movs	r0, #0
 8002024:	f7fe fc6c 	bl	8000900 <LCD_WriteRAM>
 8002028:	2044      	movs	r0, #68	; 0x44
 800202a:	f7fe fc69 	bl	8000900 <LCD_WriteRAM>
 800202e:	2000      	movs	r0, #0
 8002030:	f7fe fc66 	bl	8000900 <LCD_WriteRAM>
 8002034:	2050      	movs	r0, #80	; 0x50
 8002036:	f7fe fc63 	bl	8000900 <LCD_WriteRAM>
 800203a:	2000      	movs	r0, #0
 800203c:	f7fe fc60 	bl	8000900 <LCD_WriteRAM>
 8002040:	2062      	movs	r0, #98	; 0x62
 8002042:	f7fe fc5d 	bl	8000900 <LCD_WriteRAM>
 8002046:	2000      	movs	r0, #0
 8002048:	f7fe fc5a 	bl	8000900 <LCD_WriteRAM>
 800204c:	2078      	movs	r0, #120	; 0x78
 800204e:	f7fe fc57 	bl	8000900 <LCD_WriteRAM>
 8002052:	2000      	movs	r0, #0
 8002054:	f7fe fc54 	bl	8000900 <LCD_WriteRAM>
 8002058:	2088      	movs	r0, #136	; 0x88
 800205a:	f7fe fc51 	bl	8000900 <LCD_WriteRAM>
 800205e:	2000      	movs	r0, #0
 8002060:	f7fe fc4e 	bl	8000900 <LCD_WriteRAM>
 8002064:	2097      	movs	r0, #151	; 0x97
 8002066:	f7fe fc4b 	bl	8000900 <LCD_WriteRAM>
 800206a:	2000      	movs	r0, #0
 800206c:	f7fe fc48 	bl	8000900 <LCD_WriteRAM>
 8002070:	20a6      	movs	r0, #166	; 0xa6
 8002072:	f7fe fc45 	bl	8000900 <LCD_WriteRAM>
 8002076:	2000      	movs	r0, #0
 8002078:	f7fe fc42 	bl	8000900 <LCD_WriteRAM>
 800207c:	20b7      	movs	r0, #183	; 0xb7
 800207e:	f7fe fc3f 	bl	8000900 <LCD_WriteRAM>
 8002082:	2000      	movs	r0, #0
 8002084:	f7fe fc3c 	bl	8000900 <LCD_WriteRAM>
 8002088:	20c2      	movs	r0, #194	; 0xc2
 800208a:	f7fe fc39 	bl	8000900 <LCD_WriteRAM>
 800208e:	2000      	movs	r0, #0
 8002090:	f7fe fc36 	bl	8000900 <LCD_WriteRAM>
 8002094:	20c7      	movs	r0, #199	; 0xc7
 8002096:	f7fe fc33 	bl	8000900 <LCD_WriteRAM>
 800209a:	2000      	movs	r0, #0
 800209c:	f7fe fc30 	bl	8000900 <LCD_WriteRAM>
 80020a0:	20d1      	movs	r0, #209	; 0xd1
 80020a2:	f7fe fc2d 	bl	8000900 <LCD_WriteRAM>
 80020a6:	2000      	movs	r0, #0
 80020a8:	f7fe fc2a 	bl	8000900 <LCD_WriteRAM>
 80020ac:	20d5      	movs	r0, #213	; 0xd5
 80020ae:	f7fe fc27 	bl	8000900 <LCD_WriteRAM>
 80020b2:	2000      	movs	r0, #0
 80020b4:	f7fe fc24 	bl	8000900 <LCD_WriteRAM>
 80020b8:	20dd      	movs	r0, #221	; 0xdd
 80020ba:	f7fe fc21 	bl	8000900 <LCD_WriteRAM>
 80020be:	2000      	movs	r0, #0
 80020c0:	f7fe fc1e 	bl	8000900 <LCD_WriteRAM>
 80020c4:	20f3      	movs	r0, #243	; 0xf3
 80020c6:	f7fe fc1b 	bl	8000900 <LCD_WriteRAM>
 80020ca:	2000      	movs	r0, #0
 80020cc:	f7fe fc18 	bl	8000900 <LCD_WriteRAM>
 80020d0:	20e4      	movs	r0, #228	; 0xe4
 80020d2:	f7fe fbaf 	bl	8000834 <LCD_WR_REG>
 80020d6:	2001      	movs	r0, #1
 80020d8:	f7fe fc12 	bl	8000900 <LCD_WriteRAM>
 80020dc:	2000      	movs	r0, #0
 80020de:	f7fe fc0f 	bl	8000900 <LCD_WriteRAM>
 80020e2:	2001      	movs	r0, #1
 80020e4:	f7fe fc0c 	bl	8000900 <LCD_WriteRAM>
 80020e8:	2000      	movs	r0, #0
 80020ea:	f7fe fc09 	bl	8000900 <LCD_WriteRAM>
 80020ee:	2002      	movs	r0, #2
 80020f0:	f7fe fc06 	bl	8000900 <LCD_WriteRAM>
 80020f4:	2000      	movs	r0, #0
 80020f6:	f7fe fc03 	bl	8000900 <LCD_WriteRAM>
 80020fa:	202a      	movs	r0, #42	; 0x2a
 80020fc:	f7fe fc00 	bl	8000900 <LCD_WriteRAM>
 8002100:	2000      	movs	r0, #0
 8002102:	f7fe fbfd 	bl	8000900 <LCD_WriteRAM>
 8002106:	203c      	movs	r0, #60	; 0x3c
 8002108:	f7fe fbfa 	bl	8000900 <LCD_WriteRAM>
 800210c:	2000      	movs	r0, #0
 800210e:	f7fe fbf7 	bl	8000900 <LCD_WriteRAM>
 8002112:	204b      	movs	r0, #75	; 0x4b
 8002114:	f7fe fbf4 	bl	8000900 <LCD_WriteRAM>
 8002118:	2000      	movs	r0, #0
 800211a:	f7fe fbf1 	bl	8000900 <LCD_WriteRAM>
 800211e:	205d      	movs	r0, #93	; 0x5d
 8002120:	f7fe fbee 	bl	8000900 <LCD_WriteRAM>
 8002124:	2000      	movs	r0, #0
 8002126:	f7fe fbeb 	bl	8000900 <LCD_WriteRAM>
 800212a:	2074      	movs	r0, #116	; 0x74
 800212c:	f7fe fbe8 	bl	8000900 <LCD_WriteRAM>
 8002130:	2000      	movs	r0, #0
 8002132:	f7fe fbe5 	bl	8000900 <LCD_WriteRAM>
 8002136:	2084      	movs	r0, #132	; 0x84
 8002138:	f7fe fbe2 	bl	8000900 <LCD_WriteRAM>
 800213c:	2000      	movs	r0, #0
 800213e:	f7fe fbdf 	bl	8000900 <LCD_WriteRAM>
 8002142:	2093      	movs	r0, #147	; 0x93
 8002144:	f7fe fbdc 	bl	8000900 <LCD_WriteRAM>
 8002148:	2000      	movs	r0, #0
 800214a:	f7fe fbd9 	bl	8000900 <LCD_WriteRAM>
 800214e:	20a2      	movs	r0, #162	; 0xa2
 8002150:	f7fe fbd6 	bl	8000900 <LCD_WriteRAM>
 8002154:	2000      	movs	r0, #0
 8002156:	f7fe fbd3 	bl	8000900 <LCD_WriteRAM>
 800215a:	20b3      	movs	r0, #179	; 0xb3
 800215c:	f7fe fbd0 	bl	8000900 <LCD_WriteRAM>
 8002160:	2000      	movs	r0, #0
 8002162:	f7fe fbcd 	bl	8000900 <LCD_WriteRAM>
 8002166:	20be      	movs	r0, #190	; 0xbe
 8002168:	f7fe fbca 	bl	8000900 <LCD_WriteRAM>
 800216c:	2000      	movs	r0, #0
 800216e:	f7fe fbc7 	bl	8000900 <LCD_WriteRAM>
 8002172:	20c4      	movs	r0, #196	; 0xc4
 8002174:	f7fe fbc4 	bl	8000900 <LCD_WriteRAM>
 8002178:	2000      	movs	r0, #0
 800217a:	f7fe fbc1 	bl	8000900 <LCD_WriteRAM>
 800217e:	20cd      	movs	r0, #205	; 0xcd
 8002180:	f7fe fbbe 	bl	8000900 <LCD_WriteRAM>
 8002184:	2000      	movs	r0, #0
 8002186:	f7fe fbbb 	bl	8000900 <LCD_WriteRAM>
 800218a:	20d3      	movs	r0, #211	; 0xd3
 800218c:	f7fe fbb8 	bl	8000900 <LCD_WriteRAM>
 8002190:	2000      	movs	r0, #0
 8002192:	f7fe fbb5 	bl	8000900 <LCD_WriteRAM>
 8002196:	20dd      	movs	r0, #221	; 0xdd
 8002198:	f7fe fbb2 	bl	8000900 <LCD_WriteRAM>
 800219c:	2000      	movs	r0, #0
 800219e:	f7fe fbaf 	bl	8000900 <LCD_WriteRAM>
 80021a2:	20f3      	movs	r0, #243	; 0xf3
 80021a4:	f7fe fbac 	bl	8000900 <LCD_WriteRAM>
 80021a8:	2000      	movs	r0, #0
 80021aa:	f7fe fba9 	bl	8000900 <LCD_WriteRAM>
 80021ae:	20e5      	movs	r0, #229	; 0xe5
 80021b0:	f7fe fb40 	bl	8000834 <LCD_WR_REG>
 80021b4:	2000      	movs	r0, #0
 80021b6:	f7fe fba3 	bl	8000900 <LCD_WriteRAM>
 80021ba:	f7fe fba1 	bl	8000900 <LCD_WriteRAM>
 80021be:	f7fe fb9f 	bl	8000900 <LCD_WriteRAM>
 80021c2:	f7fe fb9d 	bl	8000900 <LCD_WriteRAM>
 80021c6:	2002      	movs	r0, #2
 80021c8:	f7fe fb9a 	bl	8000900 <LCD_WriteRAM>
 80021cc:	2000      	movs	r0, #0
 80021ce:	f7fe fb97 	bl	8000900 <LCD_WriteRAM>
 80021d2:	2029      	movs	r0, #41	; 0x29
 80021d4:	f7fe fb94 	bl	8000900 <LCD_WriteRAM>
 80021d8:	2000      	movs	r0, #0
 80021da:	f7fe fb91 	bl	8000900 <LCD_WriteRAM>
 80021de:	203c      	movs	r0, #60	; 0x3c
 80021e0:	f7fe fb8e 	bl	8000900 <LCD_WriteRAM>
 80021e4:	2000      	movs	r0, #0
 80021e6:	f7fe fb8b 	bl	8000900 <LCD_WriteRAM>
 80021ea:	204b      	movs	r0, #75	; 0x4b
 80021ec:	f7fe fb88 	bl	8000900 <LCD_WriteRAM>
 80021f0:	2000      	movs	r0, #0
 80021f2:	f7fe fb85 	bl	8000900 <LCD_WriteRAM>
 80021f6:	205d      	movs	r0, #93	; 0x5d
 80021f8:	f7fe fb82 	bl	8000900 <LCD_WriteRAM>
 80021fc:	2000      	movs	r0, #0
 80021fe:	f7fe fb7f 	bl	8000900 <LCD_WriteRAM>
 8002202:	2074      	movs	r0, #116	; 0x74
 8002204:	f7fe fb7c 	bl	8000900 <LCD_WriteRAM>
 8002208:	2000      	movs	r0, #0
 800220a:	f7fe fb79 	bl	8000900 <LCD_WriteRAM>
 800220e:	2084      	movs	r0, #132	; 0x84
 8002210:	f7fe fb76 	bl	8000900 <LCD_WriteRAM>
 8002214:	2000      	movs	r0, #0
 8002216:	f7fe fb73 	bl	8000900 <LCD_WriteRAM>
 800221a:	2093      	movs	r0, #147	; 0x93
 800221c:	f7fe fb70 	bl	8000900 <LCD_WriteRAM>
 8002220:	2000      	movs	r0, #0
 8002222:	f7fe fb6d 	bl	8000900 <LCD_WriteRAM>
 8002226:	20a2      	movs	r0, #162	; 0xa2
 8002228:	f7fe fb6a 	bl	8000900 <LCD_WriteRAM>
 800222c:	2000      	movs	r0, #0
 800222e:	f7fe fb67 	bl	8000900 <LCD_WriteRAM>
 8002232:	20b3      	movs	r0, #179	; 0xb3
 8002234:	f7fe fb64 	bl	8000900 <LCD_WriteRAM>
 8002238:	2000      	movs	r0, #0
 800223a:	f7fe fb61 	bl	8000900 <LCD_WriteRAM>
 800223e:	20be      	movs	r0, #190	; 0xbe
 8002240:	f7fe fb5e 	bl	8000900 <LCD_WriteRAM>
 8002244:	2000      	movs	r0, #0
 8002246:	f7fe fb5b 	bl	8000900 <LCD_WriteRAM>
 800224a:	20c4      	movs	r0, #196	; 0xc4
 800224c:	f7fe fb58 	bl	8000900 <LCD_WriteRAM>
 8002250:	2000      	movs	r0, #0
 8002252:	f7fe fb55 	bl	8000900 <LCD_WriteRAM>
 8002256:	20cd      	movs	r0, #205	; 0xcd
 8002258:	f7fe fb52 	bl	8000900 <LCD_WriteRAM>
 800225c:	2000      	movs	r0, #0
 800225e:	f7fe fb4f 	bl	8000900 <LCD_WriteRAM>
 8002262:	20d3      	movs	r0, #211	; 0xd3
 8002264:	f7fe fb4c 	bl	8000900 <LCD_WriteRAM>
 8002268:	2000      	movs	r0, #0
 800226a:	f7fe fb49 	bl	8000900 <LCD_WriteRAM>
 800226e:	20dc      	movs	r0, #220	; 0xdc
 8002270:	f7fe fb46 	bl	8000900 <LCD_WriteRAM>
 8002274:	2000      	movs	r0, #0
 8002276:	f7fe fb43 	bl	8000900 <LCD_WriteRAM>
 800227a:	20f3      	movs	r0, #243	; 0xf3
 800227c:	f7fe fb40 	bl	8000900 <LCD_WriteRAM>
 8002280:	2000      	movs	r0, #0
 8002282:	f7fe fb3d 	bl	8000900 <LCD_WriteRAM>
 8002286:	20e6      	movs	r0, #230	; 0xe6
 8002288:	f7fe fad4 	bl	8000834 <LCD_WR_REG>
 800228c:	2011      	movs	r0, #17
 800228e:	f7fe fb37 	bl	8000900 <LCD_WriteRAM>
 8002292:	2000      	movs	r0, #0
 8002294:	f7fe fb34 	bl	8000900 <LCD_WriteRAM>
 8002298:	2034      	movs	r0, #52	; 0x34
 800229a:	f7fe fb31 	bl	8000900 <LCD_WriteRAM>
 800229e:	2000      	movs	r0, #0
 80022a0:	f7fe fb2e 	bl	8000900 <LCD_WriteRAM>
 80022a4:	2056      	movs	r0, #86	; 0x56
 80022a6:	f7fe fb2b 	bl	8000900 <LCD_WriteRAM>
 80022aa:	2000      	movs	r0, #0
 80022ac:	f7fe fb28 	bl	8000900 <LCD_WriteRAM>
 80022b0:	2076      	movs	r0, #118	; 0x76
 80022b2:	f7fe fb25 	bl	8000900 <LCD_WriteRAM>
 80022b6:	2000      	movs	r0, #0
 80022b8:	f7fe fb22 	bl	8000900 <LCD_WriteRAM>
 80022bc:	2077      	movs	r0, #119	; 0x77
 80022be:	f7fe fb1f 	bl	8000900 <LCD_WriteRAM>
 80022c2:	2000      	movs	r0, #0
 80022c4:	f7fe fb1c 	bl	8000900 <LCD_WriteRAM>
 80022c8:	2066      	movs	r0, #102	; 0x66
 80022ca:	f7fe fb19 	bl	8000900 <LCD_WriteRAM>
 80022ce:	2000      	movs	r0, #0
 80022d0:	f7fe fb16 	bl	8000900 <LCD_WriteRAM>
 80022d4:	2088      	movs	r0, #136	; 0x88
 80022d6:	f7fe fb13 	bl	8000900 <LCD_WriteRAM>
 80022da:	2000      	movs	r0, #0
 80022dc:	f7fe fb10 	bl	8000900 <LCD_WriteRAM>
 80022e0:	2099      	movs	r0, #153	; 0x99
 80022e2:	f7fe fb0d 	bl	8000900 <LCD_WriteRAM>
 80022e6:	2000      	movs	r0, #0
 80022e8:	f7fe fb0a 	bl	8000900 <LCD_WriteRAM>
 80022ec:	20bb      	movs	r0, #187	; 0xbb
 80022ee:	f7fe fb07 	bl	8000900 <LCD_WriteRAM>
 80022f2:	2000      	movs	r0, #0
 80022f4:	f7fe fb04 	bl	8000900 <LCD_WriteRAM>
 80022f8:	2099      	movs	r0, #153	; 0x99
 80022fa:	f7fe fb01 	bl	8000900 <LCD_WriteRAM>
 80022fe:	2000      	movs	r0, #0
 8002300:	f7fe fafe 	bl	8000900 <LCD_WriteRAM>
 8002304:	2066      	movs	r0, #102	; 0x66
 8002306:	f7fe fafb 	bl	8000900 <LCD_WriteRAM>
 800230a:	2000      	movs	r0, #0
 800230c:	f7fe faf8 	bl	8000900 <LCD_WriteRAM>
 8002310:	2055      	movs	r0, #85	; 0x55
 8002312:	f7fe faf5 	bl	8000900 <LCD_WriteRAM>
 8002316:	2000      	movs	r0, #0
 8002318:	f7fe faf2 	bl	8000900 <LCD_WriteRAM>
 800231c:	2055      	movs	r0, #85	; 0x55
 800231e:	f7fe faef 	bl	8000900 <LCD_WriteRAM>
 8002322:	2000      	movs	r0, #0
 8002324:	f7fe faec 	bl	8000900 <LCD_WriteRAM>
 8002328:	2045      	movs	r0, #69	; 0x45
 800232a:	f7fe fae9 	bl	8000900 <LCD_WriteRAM>
 800232e:	2000      	movs	r0, #0
 8002330:	f7fe fae6 	bl	8000900 <LCD_WriteRAM>
 8002334:	2043      	movs	r0, #67	; 0x43
 8002336:	f7fe fae3 	bl	8000900 <LCD_WriteRAM>
 800233a:	2000      	movs	r0, #0
 800233c:	f7fe fae0 	bl	8000900 <LCD_WriteRAM>
 8002340:	2044      	movs	r0, #68	; 0x44
 8002342:	f7fe fadd 	bl	8000900 <LCD_WriteRAM>
 8002346:	2000      	movs	r0, #0
 8002348:	f7fe fada 	bl	8000900 <LCD_WriteRAM>
 800234c:	20e7      	movs	r0, #231	; 0xe7
 800234e:	f7fe fa71 	bl	8000834 <LCD_WR_REG>
 8002352:	2032      	movs	r0, #50	; 0x32
 8002354:	f7fe fad4 	bl	8000900 <LCD_WriteRAM>
 8002358:	2000      	movs	r0, #0
 800235a:	f7fe fad1 	bl	8000900 <LCD_WriteRAM>
 800235e:	2055      	movs	r0, #85	; 0x55
 8002360:	f7fe face 	bl	8000900 <LCD_WriteRAM>
 8002364:	2000      	movs	r0, #0
 8002366:	f7fe facb 	bl	8000900 <LCD_WriteRAM>
 800236a:	2076      	movs	r0, #118	; 0x76
 800236c:	f7fe fac8 	bl	8000900 <LCD_WriteRAM>
 8002370:	2000      	movs	r0, #0
 8002372:	f7fe fac5 	bl	8000900 <LCD_WriteRAM>
 8002376:	2066      	movs	r0, #102	; 0x66
 8002378:	f7fe fac2 	bl	8000900 <LCD_WriteRAM>
 800237c:	2000      	movs	r0, #0
 800237e:	f7fe fabf 	bl	8000900 <LCD_WriteRAM>
 8002382:	2067      	movs	r0, #103	; 0x67
 8002384:	f7fe fabc 	bl	8000900 <LCD_WriteRAM>
 8002388:	2000      	movs	r0, #0
 800238a:	f7fe fab9 	bl	8000900 <LCD_WriteRAM>
 800238e:	2067      	movs	r0, #103	; 0x67
 8002390:	f7fe fab6 	bl	8000900 <LCD_WriteRAM>
 8002394:	2000      	movs	r0, #0
 8002396:	f7fe fab3 	bl	8000900 <LCD_WriteRAM>
 800239a:	2087      	movs	r0, #135	; 0x87
 800239c:	f7fe fab0 	bl	8000900 <LCD_WriteRAM>
 80023a0:	2000      	movs	r0, #0
 80023a2:	f7fe faad 	bl	8000900 <LCD_WriteRAM>
 80023a6:	2099      	movs	r0, #153	; 0x99
 80023a8:	f7fe faaa 	bl	8000900 <LCD_WriteRAM>
 80023ac:	2000      	movs	r0, #0
 80023ae:	f7fe faa7 	bl	8000900 <LCD_WriteRAM>
 80023b2:	20bb      	movs	r0, #187	; 0xbb
 80023b4:	f7fe faa4 	bl	8000900 <LCD_WriteRAM>
 80023b8:	2000      	movs	r0, #0
 80023ba:	f7fe faa1 	bl	8000900 <LCD_WriteRAM>
 80023be:	2099      	movs	r0, #153	; 0x99
 80023c0:	f7fe fa9e 	bl	8000900 <LCD_WriteRAM>
 80023c4:	2000      	movs	r0, #0
 80023c6:	f7fe fa9b 	bl	8000900 <LCD_WriteRAM>
 80023ca:	2077      	movs	r0, #119	; 0x77
 80023cc:	f7fe fa98 	bl	8000900 <LCD_WriteRAM>
 80023d0:	2000      	movs	r0, #0
 80023d2:	f7fe fa95 	bl	8000900 <LCD_WriteRAM>
 80023d6:	2044      	movs	r0, #68	; 0x44
 80023d8:	f7fe fa92 	bl	8000900 <LCD_WriteRAM>
 80023dc:	2000      	movs	r0, #0
 80023de:	f7fe fa8f 	bl	8000900 <LCD_WriteRAM>
 80023e2:	2056      	movs	r0, #86	; 0x56
 80023e4:	f7fe fa8c 	bl	8000900 <LCD_WriteRAM>
 80023e8:	2000      	movs	r0, #0
 80023ea:	f7fe fa89 	bl	8000900 <LCD_WriteRAM>
 80023ee:	2023      	movs	r0, #35	; 0x23
 80023f0:	f7fe fa86 	bl	8000900 <LCD_WriteRAM>
 80023f4:	2000      	movs	r0, #0
 80023f6:	f7fe fa83 	bl	8000900 <LCD_WriteRAM>
 80023fa:	2033      	movs	r0, #51	; 0x33
 80023fc:	f7fe fa80 	bl	8000900 <LCD_WriteRAM>
 8002400:	2000      	movs	r0, #0
 8002402:	f7fe fa7d 	bl	8000900 <LCD_WriteRAM>
 8002406:	2045      	movs	r0, #69	; 0x45
 8002408:	f7fe fa7a 	bl	8000900 <LCD_WriteRAM>
 800240c:	2000      	movs	r0, #0
 800240e:	f7fe fa77 	bl	8000900 <LCD_WriteRAM>
 8002412:	20e8      	movs	r0, #232	; 0xe8
 8002414:	f7fe fa0e 	bl	8000834 <LCD_WR_REG>
 8002418:	2000      	movs	r0, #0
 800241a:	f7fe fa71 	bl	8000900 <LCD_WriteRAM>
 800241e:	f7fe fa6f 	bl	8000900 <LCD_WriteRAM>
 8002422:	2099      	movs	r0, #153	; 0x99
 8002424:	f7fe fa6c 	bl	8000900 <LCD_WriteRAM>
 8002428:	2000      	movs	r0, #0
 800242a:	f7fe fa69 	bl	8000900 <LCD_WriteRAM>
 800242e:	2087      	movs	r0, #135	; 0x87
 8002430:	f7fe fa66 	bl	8000900 <LCD_WriteRAM>
 8002434:	2000      	movs	r0, #0
 8002436:	f7fe fa63 	bl	8000900 <LCD_WriteRAM>
 800243a:	2088      	movs	r0, #136	; 0x88
 800243c:	f7fe fa60 	bl	8000900 <LCD_WriteRAM>
 8002440:	2000      	movs	r0, #0
 8002442:	f7fe fa5d 	bl	8000900 <LCD_WriteRAM>
 8002446:	2077      	movs	r0, #119	; 0x77
 8002448:	f7fe fa5a 	bl	8000900 <LCD_WriteRAM>
 800244c:	2000      	movs	r0, #0
 800244e:	f7fe fa57 	bl	8000900 <LCD_WriteRAM>
 8002452:	2066      	movs	r0, #102	; 0x66
 8002454:	f7fe fa54 	bl	8000900 <LCD_WriteRAM>
 8002458:	2000      	movs	r0, #0
 800245a:	f7fe fa51 	bl	8000900 <LCD_WriteRAM>
 800245e:	2088      	movs	r0, #136	; 0x88
 8002460:	f7fe fa4e 	bl	8000900 <LCD_WriteRAM>
 8002464:	2000      	movs	r0, #0
 8002466:	f7fe fa4b 	bl	8000900 <LCD_WriteRAM>
 800246a:	20aa      	movs	r0, #170	; 0xaa
 800246c:	f7fe fa48 	bl	8000900 <LCD_WriteRAM>
 8002470:	2000      	movs	r0, #0
 8002472:	f7fe fa45 	bl	8000900 <LCD_WriteRAM>
 8002476:	20bb      	movs	r0, #187	; 0xbb
 8002478:	f7fe fa42 	bl	8000900 <LCD_WriteRAM>
 800247c:	2000      	movs	r0, #0
 800247e:	f7fe fa3f 	bl	8000900 <LCD_WriteRAM>
 8002482:	2099      	movs	r0, #153	; 0x99
 8002484:	f7fe fa3c 	bl	8000900 <LCD_WriteRAM>
 8002488:	2000      	movs	r0, #0
 800248a:	f7fe fa39 	bl	8000900 <LCD_WriteRAM>
 800248e:	2066      	movs	r0, #102	; 0x66
 8002490:	f7fe fa36 	bl	8000900 <LCD_WriteRAM>
 8002494:	2000      	movs	r0, #0
 8002496:	f7fe fa33 	bl	8000900 <LCD_WriteRAM>
 800249a:	2055      	movs	r0, #85	; 0x55
 800249c:	f7fe fa30 	bl	8000900 <LCD_WriteRAM>
 80024a0:	2000      	movs	r0, #0
 80024a2:	f7fe fa2d 	bl	8000900 <LCD_WriteRAM>
 80024a6:	2055      	movs	r0, #85	; 0x55
 80024a8:	f7fe fa2a 	bl	8000900 <LCD_WriteRAM>
 80024ac:	2000      	movs	r0, #0
 80024ae:	f7fe fa27 	bl	8000900 <LCD_WriteRAM>
 80024b2:	2044      	movs	r0, #68	; 0x44
 80024b4:	f7fe fa24 	bl	8000900 <LCD_WriteRAM>
 80024b8:	2000      	movs	r0, #0
 80024ba:	f7fe fa21 	bl	8000900 <LCD_WriteRAM>
 80024be:	2044      	movs	r0, #68	; 0x44
 80024c0:	f7fe fa1e 	bl	8000900 <LCD_WriteRAM>
 80024c4:	2000      	movs	r0, #0
 80024c6:	f7fe fa1b 	bl	8000900 <LCD_WriteRAM>
 80024ca:	2055      	movs	r0, #85	; 0x55
 80024cc:	f7fe fa18 	bl	8000900 <LCD_WriteRAM>
 80024d0:	2000      	movs	r0, #0
 80024d2:	f7fe fa15 	bl	8000900 <LCD_WriteRAM>
 80024d6:	20e9      	movs	r0, #233	; 0xe9
 80024d8:	f7fe f9ac 	bl	8000834 <LCD_WR_REG>
 80024dc:	20aa      	movs	r0, #170	; 0xaa
 80024de:	f7fe fa0f 	bl	8000900 <LCD_WriteRAM>
 80024e2:	2000      	movs	r0, #0
 80024e4:	f7fe fa0c 	bl	8000900 <LCD_WriteRAM>
 80024e8:	f7fe fa0a 	bl	8000900 <LCD_WriteRAM>
 80024ec:	f7fe fa08 	bl	8000900 <LCD_WriteRAM>
 80024f0:	f7fe f9a0 	bl	8000834 <LCD_WR_REG>
 80024f4:	20aa      	movs	r0, #170	; 0xaa
 80024f6:	f7fe fa03 	bl	8000900 <LCD_WriteRAM>
 80024fa:	20cf      	movs	r0, #207	; 0xcf
 80024fc:	f7fe f99a 	bl	8000834 <LCD_WR_REG>
 8002500:	2000      	movs	r0, #0
 8002502:	f7fe f9fd 	bl	8000900 <LCD_WriteRAM>
 8002506:	f7fe f9fb 	bl	8000900 <LCD_WriteRAM>
 800250a:	f7fe f9f9 	bl	8000900 <LCD_WriteRAM>
 800250e:	f7fe f9f7 	bl	8000900 <LCD_WriteRAM>
 8002512:	f7fe f9f5 	bl	8000900 <LCD_WriteRAM>
 8002516:	f7fe f9f3 	bl	8000900 <LCD_WriteRAM>
 800251a:	f7fe f9f1 	bl	8000900 <LCD_WriteRAM>
 800251e:	f7fe f9ef 	bl	8000900 <LCD_WriteRAM>
 8002522:	f7fe f9ed 	bl	8000900 <LCD_WriteRAM>
 8002526:	f7fe f9eb 	bl	8000900 <LCD_WriteRAM>
 800252a:	f7fe f9e9 	bl	8000900 <LCD_WriteRAM>
 800252e:	f7fe f9e7 	bl	8000900 <LCD_WriteRAM>
 8002532:	f7fe f9e5 	bl	8000900 <LCD_WriteRAM>
 8002536:	f7fe f9e3 	bl	8000900 <LCD_WriteRAM>
 800253a:	f7fe f9e1 	bl	8000900 <LCD_WriteRAM>
 800253e:	f7fe f9df 	bl	8000900 <LCD_WriteRAM>
 8002542:	f7fe f9dd 	bl	8000900 <LCD_WriteRAM>
 8002546:	20f0      	movs	r0, #240	; 0xf0
 8002548:	f7fe f974 	bl	8000834 <LCD_WR_REG>
 800254c:	2000      	movs	r0, #0
 800254e:	f7fe f9d7 	bl	8000900 <LCD_WriteRAM>
 8002552:	2050      	movs	r0, #80	; 0x50
 8002554:	f7fe f9d4 	bl	8000900 <LCD_WriteRAM>
 8002558:	2000      	movs	r0, #0
 800255a:	f7fe f9d1 	bl	8000900 <LCD_WriteRAM>
 800255e:	f7fe f9cf 	bl	8000900 <LCD_WriteRAM>
 8002562:	f7fe f9cd 	bl	8000900 <LCD_WriteRAM>
 8002566:	20f3      	movs	r0, #243	; 0xf3
 8002568:	f7fe f964 	bl	8000834 <LCD_WR_REG>
 800256c:	2000      	movs	r0, #0
 800256e:	f7fe f9c7 	bl	8000900 <LCD_WriteRAM>
 8002572:	20f9      	movs	r0, #249	; 0xf9
 8002574:	f7fe f95e 	bl	8000834 <LCD_WR_REG>
 8002578:	2006      	movs	r0, #6
 800257a:	f7fe f9c1 	bl	8000900 <LCD_WriteRAM>
 800257e:	2010      	movs	r0, #16
 8002580:	f7fe f9be 	bl	8000900 <LCD_WriteRAM>
 8002584:	2029      	movs	r0, #41	; 0x29
 8002586:	f7fe f9bb 	bl	8000900 <LCD_WriteRAM>
 800258a:	2000      	movs	r0, #0
 800258c:	f7fe f9b8 	bl	8000900 <LCD_WriteRAM>
 8002590:	203a      	movs	r0, #58	; 0x3a
 8002592:	f7fe f94f 	bl	8000834 <LCD_WR_REG>
 8002596:	2055      	movs	r0, #85	; 0x55
 8002598:	f7fe f9b2 	bl	8000900 <LCD_WriteRAM>
 800259c:	2011      	movs	r0, #17
 800259e:	f7fe f949 	bl	8000834 <LCD_WR_REG>
 80025a2:	2064      	movs	r0, #100	; 0x64
 80025a4:	f002 fdc2 	bl	800512c <HAL_Delay>
 80025a8:	2029      	movs	r0, #41	; 0x29
 80025aa:	f7fe f943 	bl	8000834 <LCD_WR_REG>
 80025ae:	2035      	movs	r0, #53	; 0x35
 80025b0:	f7fe f940 	bl	8000834 <LCD_WR_REG>
 80025b4:	2000      	movs	r0, #0
 80025b6:	f7fe f9a3 	bl	8000900 <LCD_WriteRAM>
 80025ba:	2051      	movs	r0, #81	; 0x51
 80025bc:	f7fe f93a 	bl	8000834 <LCD_WR_REG>
 80025c0:	20ff      	movs	r0, #255	; 0xff
 80025c2:	f7fe f99d 	bl	8000900 <LCD_WriteRAM>
 80025c6:	2053      	movs	r0, #83	; 0x53
 80025c8:	f7fe f934 	bl	8000834 <LCD_WR_REG>
 80025cc:	202c      	movs	r0, #44	; 0x2c
 80025ce:	f7fe f997 	bl	8000900 <LCD_WriteRAM>
 80025d2:	2055      	movs	r0, #85	; 0x55
 80025d4:	f7fe f92e 	bl	8000834 <LCD_WR_REG>
 80025d8:	2082      	movs	r0, #130	; 0x82
 80025da:	f7fe f991 	bl	8000900 <LCD_WriteRAM>
 80025de:	202c      	movs	r0, #44	; 0x2c
 80025e0:	f7ff b89b 	b.w	800171a <LCD_Init+0x39e>
 80025e4:	f249 3228 	movw	r2, #37672	; 0x9328
 80025e8:	4293      	cmp	r3, r2
 80025ea:	f001 827e 	beq.w	8003aea <LCD_Init+0x276e>
 80025ee:	f200 80c9 	bhi.w	8002784 <LCD_Init+0x1408>
 80025f2:	f249 3220 	movw	r2, #37664	; 0x9320
 80025f6:	4293      	cmp	r3, r2
 80025f8:	f001 8367 	beq.w	8003cca <LCD_Init+0x294e>
 80025fc:	f249 3225 	movw	r2, #37669	; 0x9325
 8002600:	4293      	cmp	r3, r2
 8002602:	f001 819e 	beq.w	8003942 <LCD_Init+0x25c6>
 8002606:	f648 1289 	movw	r2, #35209	; 0x8989
 800260a:	4293      	cmp	r3, r2
 800260c:	f47f a8a7 	bne.w	800175e <LCD_Init+0x3e2>
 8002610:	2101      	movs	r1, #1
 8002612:	2000      	movs	r0, #0
 8002614:	f7fe f950 	bl	80008b8 <LCD_WriteReg>
 8002618:	f64a 01a4 	movw	r1, #43172	; 0xa8a4
 800261c:	2003      	movs	r0, #3
 800261e:	f7fe f94b 	bl	80008b8 <LCD_WriteReg>
 8002622:	2100      	movs	r1, #0
 8002624:	200c      	movs	r0, #12
 8002626:	f7fe f947 	bl	80008b8 <LCD_WriteReg>
 800262a:	f640 010c 	movw	r1, #2060	; 0x80c
 800262e:	200d      	movs	r0, #13
 8002630:	f7fe f942 	bl	80008b8 <LCD_WriteReg>
 8002634:	f44f 512c 	mov.w	r1, #11008	; 0x2b00
 8002638:	200e      	movs	r0, #14
 800263a:	f7fe f93d 	bl	80008b8 <LCD_WriteReg>
 800263e:	21b0      	movs	r1, #176	; 0xb0
 8002640:	201e      	movs	r0, #30
 8002642:	f7fe f939 	bl	80008b8 <LCD_WriteReg>
 8002646:	f642 313f 	movw	r1, #11071	; 0x2b3f
 800264a:	2001      	movs	r0, #1
 800264c:	f7fe f934 	bl	80008b8 <LCD_WriteReg>
 8002650:	f44f 61c0 	mov.w	r1, #1536	; 0x600
 8002654:	2002      	movs	r0, #2
 8002656:	f7fe f92f 	bl	80008b8 <LCD_WriteReg>
 800265a:	2100      	movs	r1, #0
 800265c:	2010      	movs	r0, #16
 800265e:	f7fe f92b 	bl	80008b8 <LCD_WriteReg>
 8002662:	f246 0178 	movw	r1, #24696	; 0x6078
 8002666:	2011      	movs	r0, #17
 8002668:	f7fe f926 	bl	80008b8 <LCD_WriteReg>
 800266c:	2100      	movs	r1, #0
 800266e:	2005      	movs	r0, #5
 8002670:	f7fe f922 	bl	80008b8 <LCD_WriteReg>
 8002674:	2100      	movs	r1, #0
 8002676:	2006      	movs	r0, #6
 8002678:	f7fe f91e 	bl	80008b8 <LCD_WriteReg>
 800267c:	f64e 711c 	movw	r1, #61212	; 0xef1c
 8002680:	2016      	movs	r0, #22
 8002682:	f7fe f919 	bl	80008b8 <LCD_WriteReg>
 8002686:	2103      	movs	r1, #3
 8002688:	2017      	movs	r0, #23
 800268a:	f7fe f915 	bl	80008b8 <LCD_WriteReg>
 800268e:	f240 2133 	movw	r1, #563	; 0x233
 8002692:	2007      	movs	r0, #7
 8002694:	f7fe f910 	bl	80008b8 <LCD_WriteReg>
 8002698:	2100      	movs	r1, #0
 800269a:	200b      	movs	r0, #11
 800269c:	f7fe f90c 	bl	80008b8 <LCD_WriteReg>
 80026a0:	2100      	movs	r1, #0
 80026a2:	200f      	movs	r0, #15
 80026a4:	f7fe f908 	bl	80008b8 <LCD_WriteReg>
 80026a8:	2100      	movs	r1, #0
 80026aa:	2041      	movs	r0, #65	; 0x41
 80026ac:	f7fe f904 	bl	80008b8 <LCD_WriteReg>
 80026b0:	2100      	movs	r1, #0
 80026b2:	2042      	movs	r0, #66	; 0x42
 80026b4:	f7fe f900 	bl	80008b8 <LCD_WriteReg>
 80026b8:	2100      	movs	r1, #0
 80026ba:	2048      	movs	r0, #72	; 0x48
 80026bc:	f7fe f8fc 	bl	80008b8 <LCD_WriteReg>
 80026c0:	f240 113f 	movw	r1, #319	; 0x13f
 80026c4:	2049      	movs	r0, #73	; 0x49
 80026c6:	f7fe f8f7 	bl	80008b8 <LCD_WriteReg>
 80026ca:	2100      	movs	r1, #0
 80026cc:	204a      	movs	r0, #74	; 0x4a
 80026ce:	f7fe f8f3 	bl	80008b8 <LCD_WriteReg>
 80026d2:	2100      	movs	r1, #0
 80026d4:	204b      	movs	r0, #75	; 0x4b
 80026d6:	f7fe f8ef 	bl	80008b8 <LCD_WriteReg>
 80026da:	f44f 416f 	mov.w	r1, #61184	; 0xef00
 80026de:	2044      	movs	r0, #68	; 0x44
 80026e0:	f7fe f8ea 	bl	80008b8 <LCD_WriteReg>
 80026e4:	2100      	movs	r1, #0
 80026e6:	2045      	movs	r0, #69	; 0x45
 80026e8:	f7fe f8e6 	bl	80008b8 <LCD_WriteReg>
 80026ec:	f240 113f 	movw	r1, #319	; 0x13f
 80026f0:	2046      	movs	r0, #70	; 0x46
 80026f2:	f7fe f8e1 	bl	80008b8 <LCD_WriteReg>
 80026f6:	f240 7107 	movw	r1, #1799	; 0x707
 80026fa:	2030      	movs	r0, #48	; 0x30
 80026fc:	f7fe f8dc 	bl	80008b8 <LCD_WriteReg>
 8002700:	f44f 7101 	mov.w	r1, #516	; 0x204
 8002704:	2031      	movs	r0, #49	; 0x31
 8002706:	f7fe f8d7 	bl	80008b8 <LCD_WriteReg>
 800270a:	f44f 7101 	mov.w	r1, #516	; 0x204
 800270e:	2032      	movs	r0, #50	; 0x32
 8002710:	f7fe f8d2 	bl	80008b8 <LCD_WriteReg>
 8002714:	f240 5102 	movw	r1, #1282	; 0x502
 8002718:	2033      	movs	r0, #51	; 0x33
 800271a:	f7fe f8cd 	bl	80008b8 <LCD_WriteReg>
 800271e:	f240 5107 	movw	r1, #1287	; 0x507
 8002722:	2034      	movs	r0, #52	; 0x34
 8002724:	f7fe f8c8 	bl	80008b8 <LCD_WriteReg>
 8002728:	f44f 7101 	mov.w	r1, #516	; 0x204
 800272c:	2035      	movs	r0, #53	; 0x35
 800272e:	f7fe f8c3 	bl	80008b8 <LCD_WriteReg>
 8002732:	f44f 7101 	mov.w	r1, #516	; 0x204
 8002736:	2036      	movs	r0, #54	; 0x36
 8002738:	f7fe f8be 	bl	80008b8 <LCD_WriteReg>
 800273c:	f240 5102 	movw	r1, #1282	; 0x502
 8002740:	2037      	movs	r0, #55	; 0x37
 8002742:	f7fe f8b9 	bl	80008b8 <LCD_WriteReg>
 8002746:	f240 3102 	movw	r1, #770	; 0x302
 800274a:	203a      	movs	r0, #58	; 0x3a
 800274c:	f7fe f8b4 	bl	80008b8 <LCD_WriteReg>
 8002750:	f240 3102 	movw	r1, #770	; 0x302
 8002754:	203b      	movs	r0, #59	; 0x3b
 8002756:	f7fe f8af 	bl	80008b8 <LCD_WriteReg>
 800275a:	2100      	movs	r1, #0
 800275c:	2023      	movs	r0, #35	; 0x23
 800275e:	f7fe f8ab 	bl	80008b8 <LCD_WriteReg>
 8002762:	2100      	movs	r1, #0
 8002764:	2024      	movs	r0, #36	; 0x24
 8002766:	f7fe f8a7 	bl	80008b8 <LCD_WriteReg>
 800276a:	f44f 4100 	mov.w	r1, #32768	; 0x8000
 800276e:	2025      	movs	r0, #37	; 0x25
 8002770:	f7fe f8a2 	bl	80008b8 <LCD_WriteReg>
 8002774:	2100      	movs	r1, #0
 8002776:	204f      	movs	r0, #79	; 0x4f
 8002778:	f7fe f89e 	bl	80008b8 <LCD_WriteReg>
 800277c:	2100      	movs	r1, #0
 800277e:	204e      	movs	r0, #78	; 0x4e
 8002780:	f001 bb4c 	b.w	8003e1c <LCD_Init+0x2aa0>
 8002784:	f24b 5205 	movw	r2, #46341	; 0xb505
 8002788:	4293      	cmp	r3, r2
 800278a:	f001 84ff 	beq.w	800418c <LCD_Init+0x2e10>
 800278e:	f24c 5205 	movw	r2, #50437	; 0xc505
 8002792:	4293      	cmp	r3, r2
 8002794:	f001 85f3 	beq.w	800437e <LCD_Init+0x3002>
 8002798:	f249 3231 	movw	r2, #37681	; 0x9331
 800279c:	4293      	cmp	r3, r2
 800279e:	f47e afde 	bne.w	800175e <LCD_Init+0x3e2>
 80027a2:	f241 0114 	movw	r1, #4116	; 0x1014
 80027a6:	20e7      	movs	r0, #231	; 0xe7
 80027a8:	f7fe f886 	bl	80008b8 <LCD_WriteReg>
 80027ac:	f44f 7180 	mov.w	r1, #256	; 0x100
 80027b0:	2001      	movs	r0, #1
 80027b2:	f7fe f881 	bl	80008b8 <LCD_WriteReg>
 80027b6:	f44f 7100 	mov.w	r1, #512	; 0x200
 80027ba:	2002      	movs	r0, #2
 80027bc:	f7fe f87c 	bl	80008b8 <LCD_WriteReg>
 80027c0:	f241 0138 	movw	r1, #4152	; 0x1038
 80027c4:	2003      	movs	r0, #3
 80027c6:	f7fe f877 	bl	80008b8 <LCD_WriteReg>
 80027ca:	f240 2102 	movw	r1, #514	; 0x202
 80027ce:	2008      	movs	r0, #8
 80027d0:	f7fe f872 	bl	80008b8 <LCD_WriteReg>
 80027d4:	2100      	movs	r1, #0
 80027d6:	2009      	movs	r0, #9
 80027d8:	f7fe f86e 	bl	80008b8 <LCD_WriteReg>
 80027dc:	2100      	movs	r1, #0
 80027de:	200a      	movs	r0, #10
 80027e0:	f7fe f86a 	bl	80008b8 <LCD_WriteReg>
 80027e4:	2100      	movs	r1, #0
 80027e6:	200c      	movs	r0, #12
 80027e8:	f7fe f866 	bl	80008b8 <LCD_WriteReg>
 80027ec:	2100      	movs	r1, #0
 80027ee:	200d      	movs	r0, #13
 80027f0:	f7fe f862 	bl	80008b8 <LCD_WriteReg>
 80027f4:	2100      	movs	r1, #0
 80027f6:	200f      	movs	r0, #15
 80027f8:	f7fe f85e 	bl	80008b8 <LCD_WriteReg>
 80027fc:	2100      	movs	r1, #0
 80027fe:	2010      	movs	r0, #16
 8002800:	f7fe f85a 	bl	80008b8 <LCD_WriteReg>
 8002804:	2107      	movs	r1, #7
 8002806:	2011      	movs	r0, #17
 8002808:	f7fe f856 	bl	80008b8 <LCD_WriteReg>
 800280c:	2100      	movs	r1, #0
 800280e:	2012      	movs	r0, #18
 8002810:	f7fe f852 	bl	80008b8 <LCD_WriteReg>
 8002814:	2100      	movs	r1, #0
 8002816:	2013      	movs	r0, #19
 8002818:	f7fe f84e 	bl	80008b8 <LCD_WriteReg>
 800281c:	20c8      	movs	r0, #200	; 0xc8
 800281e:	f002 fc85 	bl	800512c <HAL_Delay>
 8002822:	f241 6190 	movw	r1, #5776	; 0x1690
 8002826:	2010      	movs	r0, #16
 8002828:	f7fe f846 	bl	80008b8 <LCD_WriteReg>
 800282c:	f240 2127 	movw	r1, #551	; 0x227
 8002830:	2011      	movs	r0, #17
 8002832:	f7fe f841 	bl	80008b8 <LCD_WriteReg>
 8002836:	2032      	movs	r0, #50	; 0x32
 8002838:	f002 fc78 	bl	800512c <HAL_Delay>
 800283c:	210c      	movs	r1, #12
 800283e:	2012      	movs	r0, #18
 8002840:	f7fe f83a 	bl	80008b8 <LCD_WriteReg>
 8002844:	2032      	movs	r0, #50	; 0x32
 8002846:	f002 fc71 	bl	800512c <HAL_Delay>
 800284a:	f44f 6100 	mov.w	r1, #2048	; 0x800
 800284e:	2013      	movs	r0, #19
 8002850:	f7fe f832 	bl	80008b8 <LCD_WriteReg>
 8002854:	2111      	movs	r1, #17
 8002856:	2029      	movs	r0, #41	; 0x29
 8002858:	f7fe f82e 	bl	80008b8 <LCD_WriteReg>
 800285c:	210b      	movs	r1, #11
 800285e:	202b      	movs	r0, #43	; 0x2b
 8002860:	f7fe f82a 	bl	80008b8 <LCD_WriteReg>
 8002864:	2032      	movs	r0, #50	; 0x32
 8002866:	f002 fc61 	bl	800512c <HAL_Delay>
 800286a:	2100      	movs	r1, #0
 800286c:	2020      	movs	r0, #32
 800286e:	f7fe f823 	bl	80008b8 <LCD_WriteReg>
 8002872:	f240 113f 	movw	r1, #319	; 0x13f
 8002876:	2021      	movs	r0, #33	; 0x21
 8002878:	f7fe f81e 	bl	80008b8 <LCD_WriteReg>
 800287c:	2100      	movs	r1, #0
 800287e:	2030      	movs	r0, #48	; 0x30
 8002880:	f7fe f81a 	bl	80008b8 <LCD_WriteReg>
 8002884:	f44f 7183 	mov.w	r1, #262	; 0x106
 8002888:	2031      	movs	r0, #49	; 0x31
 800288a:	f7fe f815 	bl	80008b8 <LCD_WriteReg>
 800288e:	2100      	movs	r1, #0
 8002890:	2032      	movs	r0, #50	; 0x32
 8002892:	f7fe f811 	bl	80008b8 <LCD_WriteReg>
 8002896:	f44f 7101 	mov.w	r1, #516	; 0x204
 800289a:	2035      	movs	r0, #53	; 0x35
 800289c:	f7fe f80c 	bl	80008b8 <LCD_WriteReg>
 80028a0:	f241 610a 	movw	r1, #5642	; 0x160a
 80028a4:	2036      	movs	r0, #54	; 0x36
 80028a6:	f7fe f807 	bl	80008b8 <LCD_WriteReg>
 80028aa:	f240 7107 	movw	r1, #1799	; 0x707
 80028ae:	2037      	movs	r0, #55	; 0x37
 80028b0:	f7fe f802 	bl	80008b8 <LCD_WriteReg>
 80028b4:	f44f 7183 	mov.w	r1, #262	; 0x106
 80028b8:	2038      	movs	r0, #56	; 0x38
 80028ba:	f7fd fffd 	bl	80008b8 <LCD_WriteReg>
 80028be:	f240 7107 	movw	r1, #1799	; 0x707
 80028c2:	2039      	movs	r0, #57	; 0x39
 80028c4:	f7fd fff8 	bl	80008b8 <LCD_WriteReg>
 80028c8:	f240 4102 	movw	r1, #1026	; 0x402
 80028cc:	203c      	movs	r0, #60	; 0x3c
 80028ce:	f7fd fff3 	bl	80008b8 <LCD_WriteReg>
 80028d2:	f640 410f 	movw	r1, #3087	; 0xc0f
 80028d6:	203d      	movs	r0, #61	; 0x3d
 80028d8:	f7fd ffee 	bl	80008b8 <LCD_WriteReg>
 80028dc:	2100      	movs	r1, #0
 80028de:	2050      	movs	r0, #80	; 0x50
 80028e0:	f7fd ffea 	bl	80008b8 <LCD_WriteReg>
 80028e4:	21ef      	movs	r1, #239	; 0xef
 80028e6:	2051      	movs	r0, #81	; 0x51
 80028e8:	f7fd ffe6 	bl	80008b8 <LCD_WriteReg>
 80028ec:	2100      	movs	r1, #0
 80028ee:	2052      	movs	r0, #82	; 0x52
 80028f0:	f7fd ffe2 	bl	80008b8 <LCD_WriteReg>
 80028f4:	f240 113f 	movw	r1, #319	; 0x13f
 80028f8:	2053      	movs	r0, #83	; 0x53
 80028fa:	f7fd ffdd 	bl	80008b8 <LCD_WriteReg>
 80028fe:	f44f 511c 	mov.w	r1, #9984	; 0x2700
 8002902:	f001 b9b3 	b.w	8003c6c <LCD_Init+0x28f0>
 8002906:	2011      	movs	r0, #17
 8002908:	f7fd ff94 	bl	8000834 <LCD_WR_REG>
 800290c:	2014      	movs	r0, #20
 800290e:	f002 fc0d 	bl	800512c <HAL_Delay>
 8002912:	20d0      	movs	r0, #208	; 0xd0
 8002914:	f7fd ff8e 	bl	8000834 <LCD_WR_REG>
 8002918:	2007      	movs	r0, #7
 800291a:	f7fd fff1 	bl	8000900 <LCD_WriteRAM>
 800291e:	2042      	movs	r0, #66	; 0x42
 8002920:	f7fd ffee 	bl	8000900 <LCD_WriteRAM>
 8002924:	201d      	movs	r0, #29
 8002926:	f7fd ffeb 	bl	8000900 <LCD_WriteRAM>
 800292a:	20d1      	movs	r0, #209	; 0xd1
 800292c:	f7fd ff82 	bl	8000834 <LCD_WR_REG>
 8002930:	2000      	movs	r0, #0
 8002932:	f7fd ffe5 	bl	8000900 <LCD_WriteRAM>
 8002936:	201a      	movs	r0, #26
 8002938:	f7fd ffe2 	bl	8000900 <LCD_WriteRAM>
 800293c:	2009      	movs	r0, #9
 800293e:	f7fd ffdf 	bl	8000900 <LCD_WriteRAM>
 8002942:	20d2      	movs	r0, #210	; 0xd2
 8002944:	f7fd ff76 	bl	8000834 <LCD_WR_REG>
 8002948:	2001      	movs	r0, #1
 800294a:	f7fd ffd9 	bl	8000900 <LCD_WriteRAM>
 800294e:	2022      	movs	r0, #34	; 0x22
 8002950:	f7fd ffd6 	bl	8000900 <LCD_WriteRAM>
 8002954:	20c0      	movs	r0, #192	; 0xc0
 8002956:	f7fd ff6d 	bl	8000834 <LCD_WR_REG>
 800295a:	2010      	movs	r0, #16
 800295c:	f7fd ffd0 	bl	8000900 <LCD_WriteRAM>
 8002960:	203b      	movs	r0, #59	; 0x3b
 8002962:	f7fd ffcd 	bl	8000900 <LCD_WriteRAM>
 8002966:	2000      	movs	r0, #0
 8002968:	f7fd ffca 	bl	8000900 <LCD_WriteRAM>
 800296c:	2002      	movs	r0, #2
 800296e:	f7fd ffc7 	bl	8000900 <LCD_WriteRAM>
 8002972:	2011      	movs	r0, #17
 8002974:	f7fd ffc4 	bl	8000900 <LCD_WriteRAM>
 8002978:	20c5      	movs	r0, #197	; 0xc5
 800297a:	f7fd ff5b 	bl	8000834 <LCD_WR_REG>
 800297e:	2003      	movs	r0, #3
 8002980:	f7fd ffbe 	bl	8000900 <LCD_WriteRAM>
 8002984:	20c8      	movs	r0, #200	; 0xc8
 8002986:	f7fd ff55 	bl	8000834 <LCD_WR_REG>
 800298a:	2000      	movs	r0, #0
 800298c:	f7fd ffb8 	bl	8000900 <LCD_WriteRAM>
 8002990:	2025      	movs	r0, #37	; 0x25
 8002992:	f7fd ffb5 	bl	8000900 <LCD_WriteRAM>
 8002996:	2021      	movs	r0, #33	; 0x21
 8002998:	f7fd ffb2 	bl	8000900 <LCD_WriteRAM>
 800299c:	2005      	movs	r0, #5
 800299e:	f7fd ffaf 	bl	8000900 <LCD_WriteRAM>
 80029a2:	2000      	movs	r0, #0
 80029a4:	f7fd ffac 	bl	8000900 <LCD_WriteRAM>
 80029a8:	200a      	movs	r0, #10
 80029aa:	f7fd ffa9 	bl	8000900 <LCD_WriteRAM>
 80029ae:	2065      	movs	r0, #101	; 0x65
 80029b0:	f7fd ffa6 	bl	8000900 <LCD_WriteRAM>
 80029b4:	2025      	movs	r0, #37	; 0x25
 80029b6:	f7fd ffa3 	bl	8000900 <LCD_WriteRAM>
 80029ba:	2077      	movs	r0, #119	; 0x77
 80029bc:	f7fd ffa0 	bl	8000900 <LCD_WriteRAM>
 80029c0:	2050      	movs	r0, #80	; 0x50
 80029c2:	f7fd ff9d 	bl	8000900 <LCD_WriteRAM>
 80029c6:	200f      	movs	r0, #15
 80029c8:	f7fd ff9a 	bl	8000900 <LCD_WriteRAM>
 80029cc:	2000      	movs	r0, #0
 80029ce:	f7fd ff97 	bl	8000900 <LCD_WriteRAM>
 80029d2:	20f8      	movs	r0, #248	; 0xf8
 80029d4:	f7fd ff2e 	bl	8000834 <LCD_WR_REG>
 80029d8:	2001      	movs	r0, #1
 80029da:	f7fd ff91 	bl	8000900 <LCD_WriteRAM>
 80029de:	20fe      	movs	r0, #254	; 0xfe
 80029e0:	f7fd ff28 	bl	8000834 <LCD_WR_REG>
 80029e4:	2000      	movs	r0, #0
 80029e6:	f7fd ff8b 	bl	8000900 <LCD_WriteRAM>
 80029ea:	2002      	movs	r0, #2
 80029ec:	f7fd ff88 	bl	8000900 <LCD_WriteRAM>
 80029f0:	2020      	movs	r0, #32
 80029f2:	f7fd ff1f 	bl	8000834 <LCD_WR_REG>
 80029f6:	2036      	movs	r0, #54	; 0x36
 80029f8:	f7fd ff1c 	bl	8000834 <LCD_WR_REG>
 80029fc:	2008      	movs	r0, #8
 80029fe:	f7fd ff7f 	bl	8000900 <LCD_WriteRAM>
 8002a02:	203a      	movs	r0, #58	; 0x3a
 8002a04:	f7fd ff16 	bl	8000834 <LCD_WR_REG>
 8002a08:	2055      	movs	r0, #85	; 0x55
 8002a0a:	f7fd ff79 	bl	8000900 <LCD_WriteRAM>
 8002a0e:	202b      	movs	r0, #43	; 0x2b
 8002a10:	f7fd ff10 	bl	8000834 <LCD_WR_REG>
 8002a14:	2000      	movs	r0, #0
 8002a16:	f7fd ff73 	bl	8000900 <LCD_WriteRAM>
 8002a1a:	f7fd ff71 	bl	8000900 <LCD_WriteRAM>
 8002a1e:	2001      	movs	r0, #1
 8002a20:	f7fd ff6e 	bl	8000900 <LCD_WriteRAM>
 8002a24:	203f      	movs	r0, #63	; 0x3f
 8002a26:	f7fd ff6b 	bl	8000900 <LCD_WriteRAM>
 8002a2a:	202a      	movs	r0, #42	; 0x2a
 8002a2c:	f7fd ff02 	bl	8000834 <LCD_WR_REG>
 8002a30:	2000      	movs	r0, #0
 8002a32:	f7fd ff65 	bl	8000900 <LCD_WriteRAM>
 8002a36:	f7fd ff63 	bl	8000900 <LCD_WriteRAM>
 8002a3a:	2001      	movs	r0, #1
 8002a3c:	f7fd ff60 	bl	8000900 <LCD_WriteRAM>
 8002a40:	20df      	movs	r0, #223	; 0xdf
 8002a42:	f7fd ff5d 	bl	8000900 <LCD_WriteRAM>
 8002a46:	f7fe be64 	b.w	8001712 <LCD_Init+0x396>
 8002a4a:	2155      	movs	r1, #85	; 0x55
 8002a4c:	f44f 4070 	mov.w	r0, #61440	; 0xf000
 8002a50:	f7fd ff32 	bl	80008b8 <LCD_WriteReg>
 8002a54:	21aa      	movs	r1, #170	; 0xaa
 8002a56:	f24f 0001 	movw	r0, #61441	; 0xf001
 8002a5a:	f7fd ff2d 	bl	80008b8 <LCD_WriteReg>
 8002a5e:	2152      	movs	r1, #82	; 0x52
 8002a60:	f24f 0002 	movw	r0, #61442	; 0xf002
 8002a64:	f7fd ff28 	bl	80008b8 <LCD_WriteReg>
 8002a68:	2108      	movs	r1, #8
 8002a6a:	f24f 0003 	movw	r0, #61443	; 0xf003
 8002a6e:	f7fd ff23 	bl	80008b8 <LCD_WriteReg>
 8002a72:	2101      	movs	r1, #1
 8002a74:	f24f 0004 	movw	r0, #61444	; 0xf004
 8002a78:	f7fd ff1e 	bl	80008b8 <LCD_WriteReg>
 8002a7c:	210d      	movs	r1, #13
 8002a7e:	f44f 4030 	mov.w	r0, #45056	; 0xb000
 8002a82:	f7fd ff19 	bl	80008b8 <LCD_WriteReg>
 8002a86:	210d      	movs	r1, #13
 8002a88:	f24b 0001 	movw	r0, #45057	; 0xb001
 8002a8c:	f7fd ff14 	bl	80008b8 <LCD_WriteReg>
 8002a90:	210d      	movs	r1, #13
 8002a92:	f24b 0002 	movw	r0, #45058	; 0xb002
 8002a96:	f7fd ff0f 	bl	80008b8 <LCD_WriteReg>
 8002a9a:	2134      	movs	r1, #52	; 0x34
 8002a9c:	f44f 4036 	mov.w	r0, #46592	; 0xb600
 8002aa0:	f7fd ff0a 	bl	80008b8 <LCD_WriteReg>
 8002aa4:	2134      	movs	r1, #52	; 0x34
 8002aa6:	f24b 6001 	movw	r0, #46593	; 0xb601
 8002aaa:	f7fd ff05 	bl	80008b8 <LCD_WriteReg>
 8002aae:	2134      	movs	r1, #52	; 0x34
 8002ab0:	f24b 6002 	movw	r0, #46594	; 0xb602
 8002ab4:	f7fd ff00 	bl	80008b8 <LCD_WriteReg>
 8002ab8:	210d      	movs	r1, #13
 8002aba:	f44f 4031 	mov.w	r0, #45312	; 0xb100
 8002abe:	f7fd fefb 	bl	80008b8 <LCD_WriteReg>
 8002ac2:	210d      	movs	r1, #13
 8002ac4:	f24b 1001 	movw	r0, #45313	; 0xb101
 8002ac8:	f7fd fef6 	bl	80008b8 <LCD_WriteReg>
 8002acc:	210d      	movs	r1, #13
 8002ace:	f24b 1002 	movw	r0, #45314	; 0xb102
 8002ad2:	f7fd fef1 	bl	80008b8 <LCD_WriteReg>
 8002ad6:	2134      	movs	r1, #52	; 0x34
 8002ad8:	f44f 4037 	mov.w	r0, #46848	; 0xb700
 8002adc:	f7fd feec 	bl	80008b8 <LCD_WriteReg>
 8002ae0:	2134      	movs	r1, #52	; 0x34
 8002ae2:	f24b 7001 	movw	r0, #46849	; 0xb701
 8002ae6:	f7fd fee7 	bl	80008b8 <LCD_WriteReg>
 8002aea:	2134      	movs	r1, #52	; 0x34
 8002aec:	f24b 7002 	movw	r0, #46850	; 0xb702
 8002af0:	f7fd fee2 	bl	80008b8 <LCD_WriteReg>
 8002af4:	2100      	movs	r1, #0
 8002af6:	f44f 4032 	mov.w	r0, #45568	; 0xb200
 8002afa:	f7fd fedd 	bl	80008b8 <LCD_WriteReg>
 8002afe:	2100      	movs	r1, #0
 8002b00:	f24b 2001 	movw	r0, #45569	; 0xb201
 8002b04:	f7fd fed8 	bl	80008b8 <LCD_WriteReg>
 8002b08:	2100      	movs	r1, #0
 8002b0a:	f24b 2002 	movw	r0, #45570	; 0xb202
 8002b0e:	f7fd fed3 	bl	80008b8 <LCD_WriteReg>
 8002b12:	2124      	movs	r1, #36	; 0x24
 8002b14:	f44f 4038 	mov.w	r0, #47104	; 0xb800
 8002b18:	f7fd fece 	bl	80008b8 <LCD_WriteReg>
 8002b1c:	2124      	movs	r1, #36	; 0x24
 8002b1e:	f64b 0001 	movw	r0, #47105	; 0xb801
 8002b22:	f7fd fec9 	bl	80008b8 <LCD_WriteReg>
 8002b26:	2124      	movs	r1, #36	; 0x24
 8002b28:	f64b 0002 	movw	r0, #47106	; 0xb802
 8002b2c:	f7fd fec4 	bl	80008b8 <LCD_WriteReg>
 8002b30:	2101      	movs	r1, #1
 8002b32:	f44f 403f 	mov.w	r0, #48896	; 0xbf00
 8002b36:	f7fd febf 	bl	80008b8 <LCD_WriteReg>
 8002b3a:	210f      	movs	r1, #15
 8002b3c:	f44f 4033 	mov.w	r0, #45824	; 0xb300
 8002b40:	f7fd feba 	bl	80008b8 <LCD_WriteReg>
 8002b44:	210f      	movs	r1, #15
 8002b46:	f24b 3001 	movw	r0, #45825	; 0xb301
 8002b4a:	f7fd feb5 	bl	80008b8 <LCD_WriteReg>
 8002b4e:	210f      	movs	r1, #15
 8002b50:	f24b 3002 	movw	r0, #45826	; 0xb302
 8002b54:	f7fd feb0 	bl	80008b8 <LCD_WriteReg>
 8002b58:	2134      	movs	r1, #52	; 0x34
 8002b5a:	f44f 4039 	mov.w	r0, #47360	; 0xb900
 8002b5e:	f7fd feab 	bl	80008b8 <LCD_WriteReg>
 8002b62:	2134      	movs	r1, #52	; 0x34
 8002b64:	f64b 1001 	movw	r0, #47361	; 0xb901
 8002b68:	f7fd fea6 	bl	80008b8 <LCD_WriteReg>
 8002b6c:	2134      	movs	r1, #52	; 0x34
 8002b6e:	f64b 1002 	movw	r0, #47362	; 0xb902
 8002b72:	f7fd fea1 	bl	80008b8 <LCD_WriteReg>
 8002b76:	2108      	movs	r1, #8
 8002b78:	f44f 4035 	mov.w	r0, #46336	; 0xb500
 8002b7c:	f7fd fe9c 	bl	80008b8 <LCD_WriteReg>
 8002b80:	2108      	movs	r1, #8
 8002b82:	f24b 5001 	movw	r0, #46337	; 0xb501
 8002b86:	f7fd fe97 	bl	80008b8 <LCD_WriteReg>
 8002b8a:	2108      	movs	r1, #8
 8002b8c:	f24b 5002 	movw	r0, #46338	; 0xb502
 8002b90:	f7fd fe92 	bl	80008b8 <LCD_WriteReg>
 8002b94:	2103      	movs	r1, #3
 8002b96:	f44f 4042 	mov.w	r0, #49664	; 0xc200
 8002b9a:	f7fd fe8d 	bl	80008b8 <LCD_WriteReg>
 8002b9e:	2124      	movs	r1, #36	; 0x24
 8002ba0:	f44f 403a 	mov.w	r0, #47616	; 0xba00
 8002ba4:	f7fd fe88 	bl	80008b8 <LCD_WriteReg>
 8002ba8:	2124      	movs	r1, #36	; 0x24
 8002baa:	f64b 2001 	movw	r0, #47617	; 0xba01
 8002bae:	f7fd fe83 	bl	80008b8 <LCD_WriteReg>
 8002bb2:	2124      	movs	r1, #36	; 0x24
 8002bb4:	f64b 2002 	movw	r0, #47618	; 0xba02
 8002bb8:	f7fd fe7e 	bl	80008b8 <LCD_WriteReg>
 8002bbc:	2100      	movs	r1, #0
 8002bbe:	f44f 403c 	mov.w	r0, #48128	; 0xbc00
 8002bc2:	f7fd fe79 	bl	80008b8 <LCD_WriteReg>
 8002bc6:	2178      	movs	r1, #120	; 0x78
 8002bc8:	f64b 4001 	movw	r0, #48129	; 0xbc01
 8002bcc:	f7fd fe74 	bl	80008b8 <LCD_WriteReg>
 8002bd0:	2100      	movs	r1, #0
 8002bd2:	f64b 4002 	movw	r0, #48130	; 0xbc02
 8002bd6:	f7fd fe6f 	bl	80008b8 <LCD_WriteReg>
 8002bda:	2100      	movs	r1, #0
 8002bdc:	f44f 403d 	mov.w	r0, #48384	; 0xbd00
 8002be0:	f7fd fe6a 	bl	80008b8 <LCD_WriteReg>
 8002be4:	2178      	movs	r1, #120	; 0x78
 8002be6:	f64b 5001 	movw	r0, #48385	; 0xbd01
 8002bea:	f7fd fe65 	bl	80008b8 <LCD_WriteReg>
 8002bee:	2100      	movs	r1, #0
 8002bf0:	f64b 5002 	movw	r0, #48386	; 0xbd02
 8002bf4:	f7fd fe60 	bl	80008b8 <LCD_WriteReg>
 8002bf8:	2100      	movs	r1, #0
 8002bfa:	f44f 403e 	mov.w	r0, #48640	; 0xbe00
 8002bfe:	f7fd fe5b 	bl	80008b8 <LCD_WriteReg>
 8002c02:	2164      	movs	r1, #100	; 0x64
 8002c04:	f64b 6001 	movw	r0, #48641	; 0xbe01
 8002c08:	f7fd fe56 	bl	80008b8 <LCD_WriteReg>
 8002c0c:	2100      	movs	r1, #0
 8002c0e:	f44f 4051 	mov.w	r0, #53504	; 0xd100
 8002c12:	f7fd fe51 	bl	80008b8 <LCD_WriteReg>
 8002c16:	2133      	movs	r1, #51	; 0x33
 8002c18:	f24d 1001 	movw	r0, #53505	; 0xd101
 8002c1c:	f7fd fe4c 	bl	80008b8 <LCD_WriteReg>
 8002c20:	2100      	movs	r1, #0
 8002c22:	f24d 1002 	movw	r0, #53506	; 0xd102
 8002c26:	f7fd fe47 	bl	80008b8 <LCD_WriteReg>
 8002c2a:	2134      	movs	r1, #52	; 0x34
 8002c2c:	f24d 1003 	movw	r0, #53507	; 0xd103
 8002c30:	f7fd fe42 	bl	80008b8 <LCD_WriteReg>
 8002c34:	2100      	movs	r1, #0
 8002c36:	f24d 1004 	movw	r0, #53508	; 0xd104
 8002c3a:	f7fd fe3d 	bl	80008b8 <LCD_WriteReg>
 8002c3e:	213a      	movs	r1, #58	; 0x3a
 8002c40:	f24d 1005 	movw	r0, #53509	; 0xd105
 8002c44:	f7fd fe38 	bl	80008b8 <LCD_WriteReg>
 8002c48:	2100      	movs	r1, #0
 8002c4a:	f24d 1006 	movw	r0, #53510	; 0xd106
 8002c4e:	f7fd fe33 	bl	80008b8 <LCD_WriteReg>
 8002c52:	214a      	movs	r1, #74	; 0x4a
 8002c54:	f24d 1007 	movw	r0, #53511	; 0xd107
 8002c58:	f7fd fe2e 	bl	80008b8 <LCD_WriteReg>
 8002c5c:	2100      	movs	r1, #0
 8002c5e:	f24d 1008 	movw	r0, #53512	; 0xd108
 8002c62:	f7fd fe29 	bl	80008b8 <LCD_WriteReg>
 8002c66:	215c      	movs	r1, #92	; 0x5c
 8002c68:	f24d 1009 	movw	r0, #53513	; 0xd109
 8002c6c:	f7fd fe24 	bl	80008b8 <LCD_WriteReg>
 8002c70:	2100      	movs	r1, #0
 8002c72:	f24d 100a 	movw	r0, #53514	; 0xd10a
 8002c76:	f7fd fe1f 	bl	80008b8 <LCD_WriteReg>
 8002c7a:	2181      	movs	r1, #129	; 0x81
 8002c7c:	f24d 100b 	movw	r0, #53515	; 0xd10b
 8002c80:	f7fd fe1a 	bl	80008b8 <LCD_WriteReg>
 8002c84:	2100      	movs	r1, #0
 8002c86:	f24d 100c 	movw	r0, #53516	; 0xd10c
 8002c8a:	f7fd fe15 	bl	80008b8 <LCD_WriteReg>
 8002c8e:	21a6      	movs	r1, #166	; 0xa6
 8002c90:	f24d 100d 	movw	r0, #53517	; 0xd10d
 8002c94:	f7fd fe10 	bl	80008b8 <LCD_WriteReg>
 8002c98:	2100      	movs	r1, #0
 8002c9a:	f24d 100e 	movw	r0, #53518	; 0xd10e
 8002c9e:	f7fd fe0b 	bl	80008b8 <LCD_WriteReg>
 8002ca2:	21e5      	movs	r1, #229	; 0xe5
 8002ca4:	f24d 100f 	movw	r0, #53519	; 0xd10f
 8002ca8:	f7fd fe06 	bl	80008b8 <LCD_WriteReg>
 8002cac:	2101      	movs	r1, #1
 8002cae:	f24d 1010 	movw	r0, #53520	; 0xd110
 8002cb2:	f7fd fe01 	bl	80008b8 <LCD_WriteReg>
 8002cb6:	2113      	movs	r1, #19
 8002cb8:	f24d 1011 	movw	r0, #53521	; 0xd111
 8002cbc:	f7fd fdfc 	bl	80008b8 <LCD_WriteReg>
 8002cc0:	2101      	movs	r1, #1
 8002cc2:	f24d 1012 	movw	r0, #53522	; 0xd112
 8002cc6:	f7fd fdf7 	bl	80008b8 <LCD_WriteReg>
 8002cca:	2154      	movs	r1, #84	; 0x54
 8002ccc:	f24d 1013 	movw	r0, #53523	; 0xd113
 8002cd0:	f7fd fdf2 	bl	80008b8 <LCD_WriteReg>
 8002cd4:	2101      	movs	r1, #1
 8002cd6:	f24d 1014 	movw	r0, #53524	; 0xd114
 8002cda:	f7fd fded 	bl	80008b8 <LCD_WriteReg>
 8002cde:	2182      	movs	r1, #130	; 0x82
 8002ce0:	f24d 1015 	movw	r0, #53525	; 0xd115
 8002ce4:	f7fd fde8 	bl	80008b8 <LCD_WriteReg>
 8002ce8:	2101      	movs	r1, #1
 8002cea:	f24d 1016 	movw	r0, #53526	; 0xd116
 8002cee:	f7fd fde3 	bl	80008b8 <LCD_WriteReg>
 8002cf2:	21ca      	movs	r1, #202	; 0xca
 8002cf4:	f24d 1017 	movw	r0, #53527	; 0xd117
 8002cf8:	f7fd fdde 	bl	80008b8 <LCD_WriteReg>
 8002cfc:	2102      	movs	r1, #2
 8002cfe:	f24d 1018 	movw	r0, #53528	; 0xd118
 8002d02:	f7fd fdd9 	bl	80008b8 <LCD_WriteReg>
 8002d06:	2100      	movs	r1, #0
 8002d08:	f24d 1019 	movw	r0, #53529	; 0xd119
 8002d0c:	f7fd fdd4 	bl	80008b8 <LCD_WriteReg>
 8002d10:	2102      	movs	r1, #2
 8002d12:	f24d 101a 	movw	r0, #53530	; 0xd11a
 8002d16:	f7fd fdcf 	bl	80008b8 <LCD_WriteReg>
 8002d1a:	2101      	movs	r1, #1
 8002d1c:	f24d 101b 	movw	r0, #53531	; 0xd11b
 8002d20:	f7fd fdca 	bl	80008b8 <LCD_WriteReg>
 8002d24:	2102      	movs	r1, #2
 8002d26:	f24d 101c 	movw	r0, #53532	; 0xd11c
 8002d2a:	f7fd fdc5 	bl	80008b8 <LCD_WriteReg>
 8002d2e:	2134      	movs	r1, #52	; 0x34
 8002d30:	f24d 101d 	movw	r0, #53533	; 0xd11d
 8002d34:	f7fd fdc0 	bl	80008b8 <LCD_WriteReg>
 8002d38:	2102      	movs	r1, #2
 8002d3a:	f24d 101e 	movw	r0, #53534	; 0xd11e
 8002d3e:	f7fd fdbb 	bl	80008b8 <LCD_WriteReg>
 8002d42:	2167      	movs	r1, #103	; 0x67
 8002d44:	f24d 101f 	movw	r0, #53535	; 0xd11f
 8002d48:	f7fd fdb6 	bl	80008b8 <LCD_WriteReg>
 8002d4c:	2102      	movs	r1, #2
 8002d4e:	f24d 1020 	movw	r0, #53536	; 0xd120
 8002d52:	f7fd fdb1 	bl	80008b8 <LCD_WriteReg>
 8002d56:	2184      	movs	r1, #132	; 0x84
 8002d58:	f24d 1021 	movw	r0, #53537	; 0xd121
 8002d5c:	f7fd fdac 	bl	80008b8 <LCD_WriteReg>
 8002d60:	2102      	movs	r1, #2
 8002d62:	f24d 1022 	movw	r0, #53538	; 0xd122
 8002d66:	f7fd fda7 	bl	80008b8 <LCD_WriteReg>
 8002d6a:	21a4      	movs	r1, #164	; 0xa4
 8002d6c:	f24d 1023 	movw	r0, #53539	; 0xd123
 8002d70:	f7fd fda2 	bl	80008b8 <LCD_WriteReg>
 8002d74:	2102      	movs	r1, #2
 8002d76:	f24d 1024 	movw	r0, #53540	; 0xd124
 8002d7a:	f7fd fd9d 	bl	80008b8 <LCD_WriteReg>
 8002d7e:	21b7      	movs	r1, #183	; 0xb7
 8002d80:	f24d 1025 	movw	r0, #53541	; 0xd125
 8002d84:	f7fd fd98 	bl	80008b8 <LCD_WriteReg>
 8002d88:	2102      	movs	r1, #2
 8002d8a:	f24d 1026 	movw	r0, #53542	; 0xd126
 8002d8e:	f7fd fd93 	bl	80008b8 <LCD_WriteReg>
 8002d92:	21cf      	movs	r1, #207	; 0xcf
 8002d94:	f24d 1027 	movw	r0, #53543	; 0xd127
 8002d98:	f7fd fd8e 	bl	80008b8 <LCD_WriteReg>
 8002d9c:	2102      	movs	r1, #2
 8002d9e:	f24d 1028 	movw	r0, #53544	; 0xd128
 8002da2:	f7fd fd89 	bl	80008b8 <LCD_WriteReg>
 8002da6:	21de      	movs	r1, #222	; 0xde
 8002da8:	f24d 1029 	movw	r0, #53545	; 0xd129
 8002dac:	f7fd fd84 	bl	80008b8 <LCD_WriteReg>
 8002db0:	2102      	movs	r1, #2
 8002db2:	f24d 102a 	movw	r0, #53546	; 0xd12a
 8002db6:	f7fd fd7f 	bl	80008b8 <LCD_WriteReg>
 8002dba:	21f2      	movs	r1, #242	; 0xf2
 8002dbc:	f24d 102b 	movw	r0, #53547	; 0xd12b
 8002dc0:	f7fd fd7a 	bl	80008b8 <LCD_WriteReg>
 8002dc4:	2102      	movs	r1, #2
 8002dc6:	f24d 102c 	movw	r0, #53548	; 0xd12c
 8002dca:	f7fd fd75 	bl	80008b8 <LCD_WriteReg>
 8002dce:	21fe      	movs	r1, #254	; 0xfe
 8002dd0:	f24d 102d 	movw	r0, #53549	; 0xd12d
 8002dd4:	f7fd fd70 	bl	80008b8 <LCD_WriteReg>
 8002dd8:	2103      	movs	r1, #3
 8002dda:	f24d 102e 	movw	r0, #53550	; 0xd12e
 8002dde:	f7fd fd6b 	bl	80008b8 <LCD_WriteReg>
 8002de2:	2110      	movs	r1, #16
 8002de4:	f24d 102f 	movw	r0, #53551	; 0xd12f
 8002de8:	f7fd fd66 	bl	80008b8 <LCD_WriteReg>
 8002dec:	2103      	movs	r1, #3
 8002dee:	f24d 1030 	movw	r0, #53552	; 0xd130
 8002df2:	f7fd fd61 	bl	80008b8 <LCD_WriteReg>
 8002df6:	2133      	movs	r1, #51	; 0x33
 8002df8:	f24d 1031 	movw	r0, #53553	; 0xd131
 8002dfc:	f7fd fd5c 	bl	80008b8 <LCD_WriteReg>
 8002e00:	2103      	movs	r1, #3
 8002e02:	f24d 1032 	movw	r0, #53554	; 0xd132
 8002e06:	f7fd fd57 	bl	80008b8 <LCD_WriteReg>
 8002e0a:	216d      	movs	r1, #109	; 0x6d
 8002e0c:	f24d 1033 	movw	r0, #53555	; 0xd133
 8002e10:	f7fd fd52 	bl	80008b8 <LCD_WriteReg>
 8002e14:	2100      	movs	r1, #0
 8002e16:	f44f 4052 	mov.w	r0, #53760	; 0xd200
 8002e1a:	f7fd fd4d 	bl	80008b8 <LCD_WriteReg>
 8002e1e:	2133      	movs	r1, #51	; 0x33
 8002e20:	f24d 2001 	movw	r0, #53761	; 0xd201
 8002e24:	f7fd fd48 	bl	80008b8 <LCD_WriteReg>
 8002e28:	2100      	movs	r1, #0
 8002e2a:	f24d 2002 	movw	r0, #53762	; 0xd202
 8002e2e:	f7fd fd43 	bl	80008b8 <LCD_WriteReg>
 8002e32:	2134      	movs	r1, #52	; 0x34
 8002e34:	f24d 2003 	movw	r0, #53763	; 0xd203
 8002e38:	f7fd fd3e 	bl	80008b8 <LCD_WriteReg>
 8002e3c:	2100      	movs	r1, #0
 8002e3e:	f24d 2004 	movw	r0, #53764	; 0xd204
 8002e42:	f7fd fd39 	bl	80008b8 <LCD_WriteReg>
 8002e46:	213a      	movs	r1, #58	; 0x3a
 8002e48:	f24d 2005 	movw	r0, #53765	; 0xd205
 8002e4c:	f7fd fd34 	bl	80008b8 <LCD_WriteReg>
 8002e50:	2100      	movs	r1, #0
 8002e52:	f24d 2006 	movw	r0, #53766	; 0xd206
 8002e56:	f7fd fd2f 	bl	80008b8 <LCD_WriteReg>
 8002e5a:	214a      	movs	r1, #74	; 0x4a
 8002e5c:	f24d 2007 	movw	r0, #53767	; 0xd207
 8002e60:	f7fd fd2a 	bl	80008b8 <LCD_WriteReg>
 8002e64:	2100      	movs	r1, #0
 8002e66:	f24d 2008 	movw	r0, #53768	; 0xd208
 8002e6a:	f7fd fd25 	bl	80008b8 <LCD_WriteReg>
 8002e6e:	215c      	movs	r1, #92	; 0x5c
 8002e70:	f24d 2009 	movw	r0, #53769	; 0xd209
 8002e74:	f7fd fd20 	bl	80008b8 <LCD_WriteReg>
 8002e78:	2100      	movs	r1, #0
 8002e7a:	f24d 200a 	movw	r0, #53770	; 0xd20a
 8002e7e:	f7fd fd1b 	bl	80008b8 <LCD_WriteReg>
 8002e82:	2181      	movs	r1, #129	; 0x81
 8002e84:	f24d 200b 	movw	r0, #53771	; 0xd20b
 8002e88:	f7fd fd16 	bl	80008b8 <LCD_WriteReg>
 8002e8c:	2100      	movs	r1, #0
 8002e8e:	f24d 200c 	movw	r0, #53772	; 0xd20c
 8002e92:	f7fd fd11 	bl	80008b8 <LCD_WriteReg>
 8002e96:	21a6      	movs	r1, #166	; 0xa6
 8002e98:	f24d 200d 	movw	r0, #53773	; 0xd20d
 8002e9c:	f7fd fd0c 	bl	80008b8 <LCD_WriteReg>
 8002ea0:	2100      	movs	r1, #0
 8002ea2:	f24d 200e 	movw	r0, #53774	; 0xd20e
 8002ea6:	f7fd fd07 	bl	80008b8 <LCD_WriteReg>
 8002eaa:	21e5      	movs	r1, #229	; 0xe5
 8002eac:	f24d 200f 	movw	r0, #53775	; 0xd20f
 8002eb0:	f7fd fd02 	bl	80008b8 <LCD_WriteReg>
 8002eb4:	2101      	movs	r1, #1
 8002eb6:	f24d 2010 	movw	r0, #53776	; 0xd210
 8002eba:	f7fd fcfd 	bl	80008b8 <LCD_WriteReg>
 8002ebe:	2113      	movs	r1, #19
 8002ec0:	f24d 2011 	movw	r0, #53777	; 0xd211
 8002ec4:	f7fd fcf8 	bl	80008b8 <LCD_WriteReg>
 8002ec8:	2101      	movs	r1, #1
 8002eca:	f24d 2012 	movw	r0, #53778	; 0xd212
 8002ece:	f7fd fcf3 	bl	80008b8 <LCD_WriteReg>
 8002ed2:	2154      	movs	r1, #84	; 0x54
 8002ed4:	f24d 2013 	movw	r0, #53779	; 0xd213
 8002ed8:	f7fd fcee 	bl	80008b8 <LCD_WriteReg>
 8002edc:	2101      	movs	r1, #1
 8002ede:	f24d 2014 	movw	r0, #53780	; 0xd214
 8002ee2:	f7fd fce9 	bl	80008b8 <LCD_WriteReg>
 8002ee6:	2182      	movs	r1, #130	; 0x82
 8002ee8:	f24d 2015 	movw	r0, #53781	; 0xd215
 8002eec:	f7fd fce4 	bl	80008b8 <LCD_WriteReg>
 8002ef0:	2101      	movs	r1, #1
 8002ef2:	f24d 2016 	movw	r0, #53782	; 0xd216
 8002ef6:	f7fd fcdf 	bl	80008b8 <LCD_WriteReg>
 8002efa:	21ca      	movs	r1, #202	; 0xca
 8002efc:	f24d 2017 	movw	r0, #53783	; 0xd217
 8002f00:	f7fd fcda 	bl	80008b8 <LCD_WriteReg>
 8002f04:	2102      	movs	r1, #2
 8002f06:	f24d 2018 	movw	r0, #53784	; 0xd218
 8002f0a:	f7fd fcd5 	bl	80008b8 <LCD_WriteReg>
 8002f0e:	2100      	movs	r1, #0
 8002f10:	f24d 2019 	movw	r0, #53785	; 0xd219
 8002f14:	f7fd fcd0 	bl	80008b8 <LCD_WriteReg>
 8002f18:	2102      	movs	r1, #2
 8002f1a:	f24d 201a 	movw	r0, #53786	; 0xd21a
 8002f1e:	f7fd fccb 	bl	80008b8 <LCD_WriteReg>
 8002f22:	2101      	movs	r1, #1
 8002f24:	f24d 201b 	movw	r0, #53787	; 0xd21b
 8002f28:	f7fd fcc6 	bl	80008b8 <LCD_WriteReg>
 8002f2c:	2102      	movs	r1, #2
 8002f2e:	f24d 201c 	movw	r0, #53788	; 0xd21c
 8002f32:	f7fd fcc1 	bl	80008b8 <LCD_WriteReg>
 8002f36:	2134      	movs	r1, #52	; 0x34
 8002f38:	f24d 201d 	movw	r0, #53789	; 0xd21d
 8002f3c:	f7fd fcbc 	bl	80008b8 <LCD_WriteReg>
 8002f40:	2102      	movs	r1, #2
 8002f42:	f24d 201e 	movw	r0, #53790	; 0xd21e
 8002f46:	f7fd fcb7 	bl	80008b8 <LCD_WriteReg>
 8002f4a:	2167      	movs	r1, #103	; 0x67
 8002f4c:	f24d 201f 	movw	r0, #53791	; 0xd21f
 8002f50:	f7fd fcb2 	bl	80008b8 <LCD_WriteReg>
 8002f54:	2102      	movs	r1, #2
 8002f56:	f24d 2020 	movw	r0, #53792	; 0xd220
 8002f5a:	f7fd fcad 	bl	80008b8 <LCD_WriteReg>
 8002f5e:	2184      	movs	r1, #132	; 0x84
 8002f60:	f24d 2021 	movw	r0, #53793	; 0xd221
 8002f64:	f7fd fca8 	bl	80008b8 <LCD_WriteReg>
 8002f68:	2102      	movs	r1, #2
 8002f6a:	f24d 2022 	movw	r0, #53794	; 0xd222
 8002f6e:	f7fd fca3 	bl	80008b8 <LCD_WriteReg>
 8002f72:	21a4      	movs	r1, #164	; 0xa4
 8002f74:	f24d 2023 	movw	r0, #53795	; 0xd223
 8002f78:	f7fd fc9e 	bl	80008b8 <LCD_WriteReg>
 8002f7c:	2102      	movs	r1, #2
 8002f7e:	f24d 2024 	movw	r0, #53796	; 0xd224
 8002f82:	f7fd fc99 	bl	80008b8 <LCD_WriteReg>
 8002f86:	21b7      	movs	r1, #183	; 0xb7
 8002f88:	f24d 2025 	movw	r0, #53797	; 0xd225
 8002f8c:	f7fd fc94 	bl	80008b8 <LCD_WriteReg>
 8002f90:	2102      	movs	r1, #2
 8002f92:	f24d 2026 	movw	r0, #53798	; 0xd226
 8002f96:	f7fd fc8f 	bl	80008b8 <LCD_WriteReg>
 8002f9a:	21cf      	movs	r1, #207	; 0xcf
 8002f9c:	f24d 2027 	movw	r0, #53799	; 0xd227
 8002fa0:	f7fd fc8a 	bl	80008b8 <LCD_WriteReg>
 8002fa4:	2102      	movs	r1, #2
 8002fa6:	f24d 2028 	movw	r0, #53800	; 0xd228
 8002faa:	f7fd fc85 	bl	80008b8 <LCD_WriteReg>
 8002fae:	21de      	movs	r1, #222	; 0xde
 8002fb0:	f24d 2029 	movw	r0, #53801	; 0xd229
 8002fb4:	f7fd fc80 	bl	80008b8 <LCD_WriteReg>
 8002fb8:	2102      	movs	r1, #2
 8002fba:	f24d 202a 	movw	r0, #53802	; 0xd22a
 8002fbe:	f7fd fc7b 	bl	80008b8 <LCD_WriteReg>
 8002fc2:	21f2      	movs	r1, #242	; 0xf2
 8002fc4:	f24d 202b 	movw	r0, #53803	; 0xd22b
 8002fc8:	f7fd fc76 	bl	80008b8 <LCD_WriteReg>
 8002fcc:	2102      	movs	r1, #2
 8002fce:	f24d 202c 	movw	r0, #53804	; 0xd22c
 8002fd2:	f7fd fc71 	bl	80008b8 <LCD_WriteReg>
 8002fd6:	21fe      	movs	r1, #254	; 0xfe
 8002fd8:	f24d 202d 	movw	r0, #53805	; 0xd22d
 8002fdc:	f7fd fc6c 	bl	80008b8 <LCD_WriteReg>
 8002fe0:	2103      	movs	r1, #3
 8002fe2:	f24d 202e 	movw	r0, #53806	; 0xd22e
 8002fe6:	f7fd fc67 	bl	80008b8 <LCD_WriteReg>
 8002fea:	2110      	movs	r1, #16
 8002fec:	f24d 202f 	movw	r0, #53807	; 0xd22f
 8002ff0:	f7fd fc62 	bl	80008b8 <LCD_WriteReg>
 8002ff4:	2103      	movs	r1, #3
 8002ff6:	f24d 2030 	movw	r0, #53808	; 0xd230
 8002ffa:	f7fd fc5d 	bl	80008b8 <LCD_WriteReg>
 8002ffe:	2133      	movs	r1, #51	; 0x33
 8003000:	f24d 2031 	movw	r0, #53809	; 0xd231
 8003004:	f7fd fc58 	bl	80008b8 <LCD_WriteReg>
 8003008:	2103      	movs	r1, #3
 800300a:	f24d 2032 	movw	r0, #53810	; 0xd232
 800300e:	f7fd fc53 	bl	80008b8 <LCD_WriteReg>
 8003012:	216d      	movs	r1, #109	; 0x6d
 8003014:	f24d 2033 	movw	r0, #53811	; 0xd233
 8003018:	f7fd fc4e 	bl	80008b8 <LCD_WriteReg>
 800301c:	2100      	movs	r1, #0
 800301e:	f44f 4053 	mov.w	r0, #54016	; 0xd300
 8003022:	f7fd fc49 	bl	80008b8 <LCD_WriteReg>
 8003026:	2133      	movs	r1, #51	; 0x33
 8003028:	f24d 3001 	movw	r0, #54017	; 0xd301
 800302c:	f7fd fc44 	bl	80008b8 <LCD_WriteReg>
 8003030:	2100      	movs	r1, #0
 8003032:	f24d 3002 	movw	r0, #54018	; 0xd302
 8003036:	f7fd fc3f 	bl	80008b8 <LCD_WriteReg>
 800303a:	2134      	movs	r1, #52	; 0x34
 800303c:	f24d 3003 	movw	r0, #54019	; 0xd303
 8003040:	f7fd fc3a 	bl	80008b8 <LCD_WriteReg>
 8003044:	2100      	movs	r1, #0
 8003046:	f24d 3004 	movw	r0, #54020	; 0xd304
 800304a:	f7fd fc35 	bl	80008b8 <LCD_WriteReg>
 800304e:	213a      	movs	r1, #58	; 0x3a
 8003050:	f24d 3005 	movw	r0, #54021	; 0xd305
 8003054:	f7fd fc30 	bl	80008b8 <LCD_WriteReg>
 8003058:	2100      	movs	r1, #0
 800305a:	f24d 3006 	movw	r0, #54022	; 0xd306
 800305e:	f7fd fc2b 	bl	80008b8 <LCD_WriteReg>
 8003062:	214a      	movs	r1, #74	; 0x4a
 8003064:	f24d 3007 	movw	r0, #54023	; 0xd307
 8003068:	f7fd fc26 	bl	80008b8 <LCD_WriteReg>
 800306c:	2100      	movs	r1, #0
 800306e:	f24d 3008 	movw	r0, #54024	; 0xd308
 8003072:	f7fd fc21 	bl	80008b8 <LCD_WriteReg>
 8003076:	215c      	movs	r1, #92	; 0x5c
 8003078:	f24d 3009 	movw	r0, #54025	; 0xd309
 800307c:	f7fd fc1c 	bl	80008b8 <LCD_WriteReg>
 8003080:	2100      	movs	r1, #0
 8003082:	f24d 300a 	movw	r0, #54026	; 0xd30a
 8003086:	f7fd fc17 	bl	80008b8 <LCD_WriteReg>
 800308a:	2181      	movs	r1, #129	; 0x81
 800308c:	f24d 300b 	movw	r0, #54027	; 0xd30b
 8003090:	f7fd fc12 	bl	80008b8 <LCD_WriteReg>
 8003094:	2100      	movs	r1, #0
 8003096:	f24d 300c 	movw	r0, #54028	; 0xd30c
 800309a:	f7fd fc0d 	bl	80008b8 <LCD_WriteReg>
 800309e:	21a6      	movs	r1, #166	; 0xa6
 80030a0:	f24d 300d 	movw	r0, #54029	; 0xd30d
 80030a4:	f7fd fc08 	bl	80008b8 <LCD_WriteReg>
 80030a8:	2100      	movs	r1, #0
 80030aa:	f24d 300e 	movw	r0, #54030	; 0xd30e
 80030ae:	f7fd fc03 	bl	80008b8 <LCD_WriteReg>
 80030b2:	21e5      	movs	r1, #229	; 0xe5
 80030b4:	f24d 300f 	movw	r0, #54031	; 0xd30f
 80030b8:	f7fd fbfe 	bl	80008b8 <LCD_WriteReg>
 80030bc:	2101      	movs	r1, #1
 80030be:	f24d 3010 	movw	r0, #54032	; 0xd310
 80030c2:	f7fd fbf9 	bl	80008b8 <LCD_WriteReg>
 80030c6:	2113      	movs	r1, #19
 80030c8:	f24d 3011 	movw	r0, #54033	; 0xd311
 80030cc:	f7fd fbf4 	bl	80008b8 <LCD_WriteReg>
 80030d0:	2101      	movs	r1, #1
 80030d2:	f24d 3012 	movw	r0, #54034	; 0xd312
 80030d6:	f7fd fbef 	bl	80008b8 <LCD_WriteReg>
 80030da:	2154      	movs	r1, #84	; 0x54
 80030dc:	f24d 3013 	movw	r0, #54035	; 0xd313
 80030e0:	f7fd fbea 	bl	80008b8 <LCD_WriteReg>
 80030e4:	2101      	movs	r1, #1
 80030e6:	f24d 3014 	movw	r0, #54036	; 0xd314
 80030ea:	f7fd fbe5 	bl	80008b8 <LCD_WriteReg>
 80030ee:	2182      	movs	r1, #130	; 0x82
 80030f0:	f24d 3015 	movw	r0, #54037	; 0xd315
 80030f4:	f7fd fbe0 	bl	80008b8 <LCD_WriteReg>
 80030f8:	2101      	movs	r1, #1
 80030fa:	f24d 3016 	movw	r0, #54038	; 0xd316
 80030fe:	f7fd fbdb 	bl	80008b8 <LCD_WriteReg>
 8003102:	21ca      	movs	r1, #202	; 0xca
 8003104:	f24d 3017 	movw	r0, #54039	; 0xd317
 8003108:	f7fd fbd6 	bl	80008b8 <LCD_WriteReg>
 800310c:	2102      	movs	r1, #2
 800310e:	f24d 3018 	movw	r0, #54040	; 0xd318
 8003112:	f7fd fbd1 	bl	80008b8 <LCD_WriteReg>
 8003116:	2100      	movs	r1, #0
 8003118:	f24d 3019 	movw	r0, #54041	; 0xd319
 800311c:	f7fd fbcc 	bl	80008b8 <LCD_WriteReg>
 8003120:	2102      	movs	r1, #2
 8003122:	f24d 301a 	movw	r0, #54042	; 0xd31a
 8003126:	f7fd fbc7 	bl	80008b8 <LCD_WriteReg>
 800312a:	2101      	movs	r1, #1
 800312c:	f24d 301b 	movw	r0, #54043	; 0xd31b
 8003130:	f7fd fbc2 	bl	80008b8 <LCD_WriteReg>
 8003134:	2102      	movs	r1, #2
 8003136:	f24d 301c 	movw	r0, #54044	; 0xd31c
 800313a:	f7fd fbbd 	bl	80008b8 <LCD_WriteReg>
 800313e:	2134      	movs	r1, #52	; 0x34
 8003140:	f24d 301d 	movw	r0, #54045	; 0xd31d
 8003144:	f7fd fbb8 	bl	80008b8 <LCD_WriteReg>
 8003148:	2102      	movs	r1, #2
 800314a:	f24d 301e 	movw	r0, #54046	; 0xd31e
 800314e:	f7fd fbb3 	bl	80008b8 <LCD_WriteReg>
 8003152:	2167      	movs	r1, #103	; 0x67
 8003154:	f24d 301f 	movw	r0, #54047	; 0xd31f
 8003158:	f7fd fbae 	bl	80008b8 <LCD_WriteReg>
 800315c:	2102      	movs	r1, #2
 800315e:	f24d 3020 	movw	r0, #54048	; 0xd320
 8003162:	f7fd fba9 	bl	80008b8 <LCD_WriteReg>
 8003166:	2184      	movs	r1, #132	; 0x84
 8003168:	f24d 3021 	movw	r0, #54049	; 0xd321
 800316c:	f7fd fba4 	bl	80008b8 <LCD_WriteReg>
 8003170:	2102      	movs	r1, #2
 8003172:	f24d 3022 	movw	r0, #54050	; 0xd322
 8003176:	f7fd fb9f 	bl	80008b8 <LCD_WriteReg>
 800317a:	21a4      	movs	r1, #164	; 0xa4
 800317c:	f24d 3023 	movw	r0, #54051	; 0xd323
 8003180:	f7fd fb9a 	bl	80008b8 <LCD_WriteReg>
 8003184:	2102      	movs	r1, #2
 8003186:	f24d 3024 	movw	r0, #54052	; 0xd324
 800318a:	f7fd fb95 	bl	80008b8 <LCD_WriteReg>
 800318e:	21b7      	movs	r1, #183	; 0xb7
 8003190:	f24d 3025 	movw	r0, #54053	; 0xd325
 8003194:	f7fd fb90 	bl	80008b8 <LCD_WriteReg>
 8003198:	2102      	movs	r1, #2
 800319a:	f24d 3026 	movw	r0, #54054	; 0xd326
 800319e:	f7fd fb8b 	bl	80008b8 <LCD_WriteReg>
 80031a2:	21cf      	movs	r1, #207	; 0xcf
 80031a4:	f24d 3027 	movw	r0, #54055	; 0xd327
 80031a8:	f7fd fb86 	bl	80008b8 <LCD_WriteReg>
 80031ac:	2102      	movs	r1, #2
 80031ae:	f24d 3028 	movw	r0, #54056	; 0xd328
 80031b2:	f7fd fb81 	bl	80008b8 <LCD_WriteReg>
 80031b6:	21de      	movs	r1, #222	; 0xde
 80031b8:	f24d 3029 	movw	r0, #54057	; 0xd329
 80031bc:	f7fd fb7c 	bl	80008b8 <LCD_WriteReg>
 80031c0:	2102      	movs	r1, #2
 80031c2:	f24d 302a 	movw	r0, #54058	; 0xd32a
 80031c6:	f7fd fb77 	bl	80008b8 <LCD_WriteReg>
 80031ca:	21f2      	movs	r1, #242	; 0xf2
 80031cc:	f24d 302b 	movw	r0, #54059	; 0xd32b
 80031d0:	f7fd fb72 	bl	80008b8 <LCD_WriteReg>
 80031d4:	2102      	movs	r1, #2
 80031d6:	f24d 302c 	movw	r0, #54060	; 0xd32c
 80031da:	f7fd fb6d 	bl	80008b8 <LCD_WriteReg>
 80031de:	21fe      	movs	r1, #254	; 0xfe
 80031e0:	f24d 302d 	movw	r0, #54061	; 0xd32d
 80031e4:	f7fd fb68 	bl	80008b8 <LCD_WriteReg>
 80031e8:	2103      	movs	r1, #3
 80031ea:	f24d 302e 	movw	r0, #54062	; 0xd32e
 80031ee:	f7fd fb63 	bl	80008b8 <LCD_WriteReg>
 80031f2:	2110      	movs	r1, #16
 80031f4:	f24d 302f 	movw	r0, #54063	; 0xd32f
 80031f8:	f7fd fb5e 	bl	80008b8 <LCD_WriteReg>
 80031fc:	2103      	movs	r1, #3
 80031fe:	f24d 3030 	movw	r0, #54064	; 0xd330
 8003202:	f7fd fb59 	bl	80008b8 <LCD_WriteReg>
 8003206:	2133      	movs	r1, #51	; 0x33
 8003208:	f24d 3031 	movw	r0, #54065	; 0xd331
 800320c:	f7fd fb54 	bl	80008b8 <LCD_WriteReg>
 8003210:	2103      	movs	r1, #3
 8003212:	f24d 3032 	movw	r0, #54066	; 0xd332
 8003216:	f7fd fb4f 	bl	80008b8 <LCD_WriteReg>
 800321a:	216d      	movs	r1, #109	; 0x6d
 800321c:	f24d 3033 	movw	r0, #54067	; 0xd333
 8003220:	f7fd fb4a 	bl	80008b8 <LCD_WriteReg>
 8003224:	2100      	movs	r1, #0
 8003226:	f44f 4054 	mov.w	r0, #54272	; 0xd400
 800322a:	f7fd fb45 	bl	80008b8 <LCD_WriteReg>
 800322e:	2133      	movs	r1, #51	; 0x33
 8003230:	f24d 4001 	movw	r0, #54273	; 0xd401
 8003234:	f7fd fb40 	bl	80008b8 <LCD_WriteReg>
 8003238:	2100      	movs	r1, #0
 800323a:	f24d 4002 	movw	r0, #54274	; 0xd402
 800323e:	f7fd fb3b 	bl	80008b8 <LCD_WriteReg>
 8003242:	2134      	movs	r1, #52	; 0x34
 8003244:	f24d 4003 	movw	r0, #54275	; 0xd403
 8003248:	f7fd fb36 	bl	80008b8 <LCD_WriteReg>
 800324c:	2100      	movs	r1, #0
 800324e:	f24d 4004 	movw	r0, #54276	; 0xd404
 8003252:	f7fd fb31 	bl	80008b8 <LCD_WriteReg>
 8003256:	213a      	movs	r1, #58	; 0x3a
 8003258:	f24d 4005 	movw	r0, #54277	; 0xd405
 800325c:	f7fd fb2c 	bl	80008b8 <LCD_WriteReg>
 8003260:	2100      	movs	r1, #0
 8003262:	f24d 4006 	movw	r0, #54278	; 0xd406
 8003266:	f7fd fb27 	bl	80008b8 <LCD_WriteReg>
 800326a:	214a      	movs	r1, #74	; 0x4a
 800326c:	f24d 4007 	movw	r0, #54279	; 0xd407
 8003270:	f7fd fb22 	bl	80008b8 <LCD_WriteReg>
 8003274:	2100      	movs	r1, #0
 8003276:	f24d 4008 	movw	r0, #54280	; 0xd408
 800327a:	f7fd fb1d 	bl	80008b8 <LCD_WriteReg>
 800327e:	215c      	movs	r1, #92	; 0x5c
 8003280:	f24d 4009 	movw	r0, #54281	; 0xd409
 8003284:	f7fd fb18 	bl	80008b8 <LCD_WriteReg>
 8003288:	2100      	movs	r1, #0
 800328a:	f24d 400a 	movw	r0, #54282	; 0xd40a
 800328e:	f7fd fb13 	bl	80008b8 <LCD_WriteReg>
 8003292:	2181      	movs	r1, #129	; 0x81
 8003294:	f24d 400b 	movw	r0, #54283	; 0xd40b
 8003298:	f7fd fb0e 	bl	80008b8 <LCD_WriteReg>
 800329c:	2100      	movs	r1, #0
 800329e:	f24d 400c 	movw	r0, #54284	; 0xd40c
 80032a2:	f7fd fb09 	bl	80008b8 <LCD_WriteReg>
 80032a6:	21a6      	movs	r1, #166	; 0xa6
 80032a8:	f24d 400d 	movw	r0, #54285	; 0xd40d
 80032ac:	f7fd fb04 	bl	80008b8 <LCD_WriteReg>
 80032b0:	2100      	movs	r1, #0
 80032b2:	f24d 400e 	movw	r0, #54286	; 0xd40e
 80032b6:	f7fd faff 	bl	80008b8 <LCD_WriteReg>
 80032ba:	21e5      	movs	r1, #229	; 0xe5
 80032bc:	f24d 400f 	movw	r0, #54287	; 0xd40f
 80032c0:	f7fd fafa 	bl	80008b8 <LCD_WriteReg>
 80032c4:	2101      	movs	r1, #1
 80032c6:	f24d 4010 	movw	r0, #54288	; 0xd410
 80032ca:	f7fd faf5 	bl	80008b8 <LCD_WriteReg>
 80032ce:	2113      	movs	r1, #19
 80032d0:	f24d 4011 	movw	r0, #54289	; 0xd411
 80032d4:	f7fd faf0 	bl	80008b8 <LCD_WriteReg>
 80032d8:	2101      	movs	r1, #1
 80032da:	f24d 4012 	movw	r0, #54290	; 0xd412
 80032de:	f7fd faeb 	bl	80008b8 <LCD_WriteReg>
 80032e2:	2154      	movs	r1, #84	; 0x54
 80032e4:	f24d 4013 	movw	r0, #54291	; 0xd413
 80032e8:	f7fd fae6 	bl	80008b8 <LCD_WriteReg>
 80032ec:	2101      	movs	r1, #1
 80032ee:	f24d 4014 	movw	r0, #54292	; 0xd414
 80032f2:	f7fd fae1 	bl	80008b8 <LCD_WriteReg>
 80032f6:	2182      	movs	r1, #130	; 0x82
 80032f8:	f24d 4015 	movw	r0, #54293	; 0xd415
 80032fc:	f7fd fadc 	bl	80008b8 <LCD_WriteReg>
 8003300:	2101      	movs	r1, #1
 8003302:	f24d 4016 	movw	r0, #54294	; 0xd416
 8003306:	f7fd fad7 	bl	80008b8 <LCD_WriteReg>
 800330a:	21ca      	movs	r1, #202	; 0xca
 800330c:	f24d 4017 	movw	r0, #54295	; 0xd417
 8003310:	f7fd fad2 	bl	80008b8 <LCD_WriteReg>
 8003314:	2102      	movs	r1, #2
 8003316:	f24d 4018 	movw	r0, #54296	; 0xd418
 800331a:	f7fd facd 	bl	80008b8 <LCD_WriteReg>
 800331e:	2100      	movs	r1, #0
 8003320:	f24d 4019 	movw	r0, #54297	; 0xd419
 8003324:	f7fd fac8 	bl	80008b8 <LCD_WriteReg>
 8003328:	2102      	movs	r1, #2
 800332a:	f24d 401a 	movw	r0, #54298	; 0xd41a
 800332e:	f7fd fac3 	bl	80008b8 <LCD_WriteReg>
 8003332:	2101      	movs	r1, #1
 8003334:	f24d 401b 	movw	r0, #54299	; 0xd41b
 8003338:	f7fd fabe 	bl	80008b8 <LCD_WriteReg>
 800333c:	2102      	movs	r1, #2
 800333e:	f24d 401c 	movw	r0, #54300	; 0xd41c
 8003342:	f7fd fab9 	bl	80008b8 <LCD_WriteReg>
 8003346:	2134      	movs	r1, #52	; 0x34
 8003348:	f24d 401d 	movw	r0, #54301	; 0xd41d
 800334c:	f7fd fab4 	bl	80008b8 <LCD_WriteReg>
 8003350:	2102      	movs	r1, #2
 8003352:	f24d 401e 	movw	r0, #54302	; 0xd41e
 8003356:	f7fd faaf 	bl	80008b8 <LCD_WriteReg>
 800335a:	2167      	movs	r1, #103	; 0x67
 800335c:	f24d 401f 	movw	r0, #54303	; 0xd41f
 8003360:	f7fd faaa 	bl	80008b8 <LCD_WriteReg>
 8003364:	2102      	movs	r1, #2
 8003366:	f24d 4020 	movw	r0, #54304	; 0xd420
 800336a:	f7fd faa5 	bl	80008b8 <LCD_WriteReg>
 800336e:	2184      	movs	r1, #132	; 0x84
 8003370:	f24d 4021 	movw	r0, #54305	; 0xd421
 8003374:	f7fd faa0 	bl	80008b8 <LCD_WriteReg>
 8003378:	2102      	movs	r1, #2
 800337a:	f24d 4022 	movw	r0, #54306	; 0xd422
 800337e:	f7fd fa9b 	bl	80008b8 <LCD_WriteReg>
 8003382:	21a4      	movs	r1, #164	; 0xa4
 8003384:	f24d 4023 	movw	r0, #54307	; 0xd423
 8003388:	f7fd fa96 	bl	80008b8 <LCD_WriteReg>
 800338c:	2102      	movs	r1, #2
 800338e:	f24d 4024 	movw	r0, #54308	; 0xd424
 8003392:	f7fd fa91 	bl	80008b8 <LCD_WriteReg>
 8003396:	21b7      	movs	r1, #183	; 0xb7
 8003398:	f24d 4025 	movw	r0, #54309	; 0xd425
 800339c:	f7fd fa8c 	bl	80008b8 <LCD_WriteReg>
 80033a0:	2102      	movs	r1, #2
 80033a2:	f24d 4026 	movw	r0, #54310	; 0xd426
 80033a6:	f7fd fa87 	bl	80008b8 <LCD_WriteReg>
 80033aa:	21cf      	movs	r1, #207	; 0xcf
 80033ac:	f24d 4027 	movw	r0, #54311	; 0xd427
 80033b0:	f7fd fa82 	bl	80008b8 <LCD_WriteReg>
 80033b4:	2102      	movs	r1, #2
 80033b6:	f24d 4028 	movw	r0, #54312	; 0xd428
 80033ba:	f7fd fa7d 	bl	80008b8 <LCD_WriteReg>
 80033be:	21de      	movs	r1, #222	; 0xde
 80033c0:	f24d 4029 	movw	r0, #54313	; 0xd429
 80033c4:	f7fd fa78 	bl	80008b8 <LCD_WriteReg>
 80033c8:	2102      	movs	r1, #2
 80033ca:	f24d 402a 	movw	r0, #54314	; 0xd42a
 80033ce:	f7fd fa73 	bl	80008b8 <LCD_WriteReg>
 80033d2:	21f2      	movs	r1, #242	; 0xf2
 80033d4:	f24d 402b 	movw	r0, #54315	; 0xd42b
 80033d8:	f7fd fa6e 	bl	80008b8 <LCD_WriteReg>
 80033dc:	2102      	movs	r1, #2
 80033de:	f24d 402c 	movw	r0, #54316	; 0xd42c
 80033e2:	f7fd fa69 	bl	80008b8 <LCD_WriteReg>
 80033e6:	21fe      	movs	r1, #254	; 0xfe
 80033e8:	f24d 402d 	movw	r0, #54317	; 0xd42d
 80033ec:	f7fd fa64 	bl	80008b8 <LCD_WriteReg>
 80033f0:	2103      	movs	r1, #3
 80033f2:	f24d 402e 	movw	r0, #54318	; 0xd42e
 80033f6:	f7fd fa5f 	bl	80008b8 <LCD_WriteReg>
 80033fa:	2110      	movs	r1, #16
 80033fc:	f24d 402f 	movw	r0, #54319	; 0xd42f
 8003400:	f7fd fa5a 	bl	80008b8 <LCD_WriteReg>
 8003404:	2103      	movs	r1, #3
 8003406:	f24d 4030 	movw	r0, #54320	; 0xd430
 800340a:	f7fd fa55 	bl	80008b8 <LCD_WriteReg>
 800340e:	2133      	movs	r1, #51	; 0x33
 8003410:	f24d 4031 	movw	r0, #54321	; 0xd431
 8003414:	f7fd fa50 	bl	80008b8 <LCD_WriteReg>
 8003418:	2103      	movs	r1, #3
 800341a:	f24d 4032 	movw	r0, #54322	; 0xd432
 800341e:	f7fd fa4b 	bl	80008b8 <LCD_WriteReg>
 8003422:	216d      	movs	r1, #109	; 0x6d
 8003424:	f24d 4033 	movw	r0, #54323	; 0xd433
 8003428:	f7fd fa46 	bl	80008b8 <LCD_WriteReg>
 800342c:	2100      	movs	r1, #0
 800342e:	f44f 4055 	mov.w	r0, #54528	; 0xd500
 8003432:	f7fd fa41 	bl	80008b8 <LCD_WriteReg>
 8003436:	2133      	movs	r1, #51	; 0x33
 8003438:	f24d 5001 	movw	r0, #54529	; 0xd501
 800343c:	f7fd fa3c 	bl	80008b8 <LCD_WriteReg>
 8003440:	2100      	movs	r1, #0
 8003442:	f24d 5002 	movw	r0, #54530	; 0xd502
 8003446:	f7fd fa37 	bl	80008b8 <LCD_WriteReg>
 800344a:	2134      	movs	r1, #52	; 0x34
 800344c:	f24d 5003 	movw	r0, #54531	; 0xd503
 8003450:	f7fd fa32 	bl	80008b8 <LCD_WriteReg>
 8003454:	2100      	movs	r1, #0
 8003456:	f24d 5004 	movw	r0, #54532	; 0xd504
 800345a:	f7fd fa2d 	bl	80008b8 <LCD_WriteReg>
 800345e:	213a      	movs	r1, #58	; 0x3a
 8003460:	f24d 5005 	movw	r0, #54533	; 0xd505
 8003464:	f7fd fa28 	bl	80008b8 <LCD_WriteReg>
 8003468:	2100      	movs	r1, #0
 800346a:	f24d 5006 	movw	r0, #54534	; 0xd506
 800346e:	f7fd fa23 	bl	80008b8 <LCD_WriteReg>
 8003472:	214a      	movs	r1, #74	; 0x4a
 8003474:	f24d 5007 	movw	r0, #54535	; 0xd507
 8003478:	f7fd fa1e 	bl	80008b8 <LCD_WriteReg>
 800347c:	2100      	movs	r1, #0
 800347e:	f24d 5008 	movw	r0, #54536	; 0xd508
 8003482:	f7fd fa19 	bl	80008b8 <LCD_WriteReg>
 8003486:	215c      	movs	r1, #92	; 0x5c
 8003488:	f24d 5009 	movw	r0, #54537	; 0xd509
 800348c:	f7fd fa14 	bl	80008b8 <LCD_WriteReg>
 8003490:	2100      	movs	r1, #0
 8003492:	f24d 500a 	movw	r0, #54538	; 0xd50a
 8003496:	f7fd fa0f 	bl	80008b8 <LCD_WriteReg>
 800349a:	2181      	movs	r1, #129	; 0x81
 800349c:	f24d 500b 	movw	r0, #54539	; 0xd50b
 80034a0:	f7fd fa0a 	bl	80008b8 <LCD_WriteReg>
 80034a4:	2100      	movs	r1, #0
 80034a6:	f24d 500c 	movw	r0, #54540	; 0xd50c
 80034aa:	f7fd fa05 	bl	80008b8 <LCD_WriteReg>
 80034ae:	21a6      	movs	r1, #166	; 0xa6
 80034b0:	f24d 500d 	movw	r0, #54541	; 0xd50d
 80034b4:	f7fd fa00 	bl	80008b8 <LCD_WriteReg>
 80034b8:	2100      	movs	r1, #0
 80034ba:	f24d 500e 	movw	r0, #54542	; 0xd50e
 80034be:	f7fd f9fb 	bl	80008b8 <LCD_WriteReg>
 80034c2:	21e5      	movs	r1, #229	; 0xe5
 80034c4:	f24d 500f 	movw	r0, #54543	; 0xd50f
 80034c8:	f7fd f9f6 	bl	80008b8 <LCD_WriteReg>
 80034cc:	2101      	movs	r1, #1
 80034ce:	f24d 5010 	movw	r0, #54544	; 0xd510
 80034d2:	f7fd f9f1 	bl	80008b8 <LCD_WriteReg>
 80034d6:	2113      	movs	r1, #19
 80034d8:	f24d 5011 	movw	r0, #54545	; 0xd511
 80034dc:	f7fd f9ec 	bl	80008b8 <LCD_WriteReg>
 80034e0:	2101      	movs	r1, #1
 80034e2:	f24d 5012 	movw	r0, #54546	; 0xd512
 80034e6:	f7fd f9e7 	bl	80008b8 <LCD_WriteReg>
 80034ea:	2154      	movs	r1, #84	; 0x54
 80034ec:	f24d 5013 	movw	r0, #54547	; 0xd513
 80034f0:	f7fd f9e2 	bl	80008b8 <LCD_WriteReg>
 80034f4:	2101      	movs	r1, #1
 80034f6:	f24d 5014 	movw	r0, #54548	; 0xd514
 80034fa:	f7fd f9dd 	bl	80008b8 <LCD_WriteReg>
 80034fe:	2182      	movs	r1, #130	; 0x82
 8003500:	f24d 5015 	movw	r0, #54549	; 0xd515
 8003504:	f7fd f9d8 	bl	80008b8 <LCD_WriteReg>
 8003508:	2101      	movs	r1, #1
 800350a:	f24d 5016 	movw	r0, #54550	; 0xd516
 800350e:	f7fd f9d3 	bl	80008b8 <LCD_WriteReg>
 8003512:	21ca      	movs	r1, #202	; 0xca
 8003514:	f24d 5017 	movw	r0, #54551	; 0xd517
 8003518:	f7fd f9ce 	bl	80008b8 <LCD_WriteReg>
 800351c:	2102      	movs	r1, #2
 800351e:	f24d 5018 	movw	r0, #54552	; 0xd518
 8003522:	f7fd f9c9 	bl	80008b8 <LCD_WriteReg>
 8003526:	2100      	movs	r1, #0
 8003528:	f24d 5019 	movw	r0, #54553	; 0xd519
 800352c:	f7fd f9c4 	bl	80008b8 <LCD_WriteReg>
 8003530:	2102      	movs	r1, #2
 8003532:	f24d 501a 	movw	r0, #54554	; 0xd51a
 8003536:	f7fd f9bf 	bl	80008b8 <LCD_WriteReg>
 800353a:	2101      	movs	r1, #1
 800353c:	f24d 501b 	movw	r0, #54555	; 0xd51b
 8003540:	f7fd f9ba 	bl	80008b8 <LCD_WriteReg>
 8003544:	2102      	movs	r1, #2
 8003546:	f24d 501c 	movw	r0, #54556	; 0xd51c
 800354a:	f7fd f9b5 	bl	80008b8 <LCD_WriteReg>
 800354e:	2134      	movs	r1, #52	; 0x34
 8003550:	f24d 501d 	movw	r0, #54557	; 0xd51d
 8003554:	f7fd f9b0 	bl	80008b8 <LCD_WriteReg>
 8003558:	2102      	movs	r1, #2
 800355a:	f24d 501e 	movw	r0, #54558	; 0xd51e
 800355e:	f7fd f9ab 	bl	80008b8 <LCD_WriteReg>
 8003562:	2167      	movs	r1, #103	; 0x67
 8003564:	f24d 501f 	movw	r0, #54559	; 0xd51f
 8003568:	f7fd f9a6 	bl	80008b8 <LCD_WriteReg>
 800356c:	2102      	movs	r1, #2
 800356e:	f24d 5020 	movw	r0, #54560	; 0xd520
 8003572:	f7fd f9a1 	bl	80008b8 <LCD_WriteReg>
 8003576:	2184      	movs	r1, #132	; 0x84
 8003578:	f24d 5021 	movw	r0, #54561	; 0xd521
 800357c:	f7fd f99c 	bl	80008b8 <LCD_WriteReg>
 8003580:	2102      	movs	r1, #2
 8003582:	f24d 5022 	movw	r0, #54562	; 0xd522
 8003586:	f7fd f997 	bl	80008b8 <LCD_WriteReg>
 800358a:	21a4      	movs	r1, #164	; 0xa4
 800358c:	f24d 5023 	movw	r0, #54563	; 0xd523
 8003590:	f7fd f992 	bl	80008b8 <LCD_WriteReg>
 8003594:	2102      	movs	r1, #2
 8003596:	f24d 5024 	movw	r0, #54564	; 0xd524
 800359a:	f7fd f98d 	bl	80008b8 <LCD_WriteReg>
 800359e:	21b7      	movs	r1, #183	; 0xb7
 80035a0:	f24d 5025 	movw	r0, #54565	; 0xd525
 80035a4:	f7fd f988 	bl	80008b8 <LCD_WriteReg>
 80035a8:	2102      	movs	r1, #2
 80035aa:	f24d 5026 	movw	r0, #54566	; 0xd526
 80035ae:	f7fd f983 	bl	80008b8 <LCD_WriteReg>
 80035b2:	21cf      	movs	r1, #207	; 0xcf
 80035b4:	f24d 5027 	movw	r0, #54567	; 0xd527
 80035b8:	f7fd f97e 	bl	80008b8 <LCD_WriteReg>
 80035bc:	2102      	movs	r1, #2
 80035be:	f24d 5028 	movw	r0, #54568	; 0xd528
 80035c2:	f7fd f979 	bl	80008b8 <LCD_WriteReg>
 80035c6:	21de      	movs	r1, #222	; 0xde
 80035c8:	f24d 5029 	movw	r0, #54569	; 0xd529
 80035cc:	f7fd f974 	bl	80008b8 <LCD_WriteReg>
 80035d0:	2102      	movs	r1, #2
 80035d2:	f24d 502a 	movw	r0, #54570	; 0xd52a
 80035d6:	f7fd f96f 	bl	80008b8 <LCD_WriteReg>
 80035da:	21f2      	movs	r1, #242	; 0xf2
 80035dc:	f24d 502b 	movw	r0, #54571	; 0xd52b
 80035e0:	f7fd f96a 	bl	80008b8 <LCD_WriteReg>
 80035e4:	2102      	movs	r1, #2
 80035e6:	f24d 502c 	movw	r0, #54572	; 0xd52c
 80035ea:	f7fd f965 	bl	80008b8 <LCD_WriteReg>
 80035ee:	21fe      	movs	r1, #254	; 0xfe
 80035f0:	f24d 502d 	movw	r0, #54573	; 0xd52d
 80035f4:	f7fd f960 	bl	80008b8 <LCD_WriteReg>
 80035f8:	2103      	movs	r1, #3
 80035fa:	f24d 502e 	movw	r0, #54574	; 0xd52e
 80035fe:	f7fd f95b 	bl	80008b8 <LCD_WriteReg>
 8003602:	2110      	movs	r1, #16
 8003604:	f24d 502f 	movw	r0, #54575	; 0xd52f
 8003608:	f7fd f956 	bl	80008b8 <LCD_WriteReg>
 800360c:	2103      	movs	r1, #3
 800360e:	f24d 5030 	movw	r0, #54576	; 0xd530
 8003612:	f7fd f951 	bl	80008b8 <LCD_WriteReg>
 8003616:	2133      	movs	r1, #51	; 0x33
 8003618:	f24d 5031 	movw	r0, #54577	; 0xd531
 800361c:	f7fd f94c 	bl	80008b8 <LCD_WriteReg>
 8003620:	2103      	movs	r1, #3
 8003622:	f24d 5032 	movw	r0, #54578	; 0xd532
 8003626:	f7fd f947 	bl	80008b8 <LCD_WriteReg>
 800362a:	216d      	movs	r1, #109	; 0x6d
 800362c:	f24d 5033 	movw	r0, #54579	; 0xd533
 8003630:	f7fd f942 	bl	80008b8 <LCD_WriteReg>
 8003634:	2100      	movs	r1, #0
 8003636:	f44f 4056 	mov.w	r0, #54784	; 0xd600
 800363a:	f7fd f93d 	bl	80008b8 <LCD_WriteReg>
 800363e:	2133      	movs	r1, #51	; 0x33
 8003640:	f24d 6001 	movw	r0, #54785	; 0xd601
 8003644:	f7fd f938 	bl	80008b8 <LCD_WriteReg>
 8003648:	2100      	movs	r1, #0
 800364a:	f24d 6002 	movw	r0, #54786	; 0xd602
 800364e:	f7fd f933 	bl	80008b8 <LCD_WriteReg>
 8003652:	2134      	movs	r1, #52	; 0x34
 8003654:	f24d 6003 	movw	r0, #54787	; 0xd603
 8003658:	f7fd f92e 	bl	80008b8 <LCD_WriteReg>
 800365c:	2100      	movs	r1, #0
 800365e:	f24d 6004 	movw	r0, #54788	; 0xd604
 8003662:	f7fd f929 	bl	80008b8 <LCD_WriteReg>
 8003666:	213a      	movs	r1, #58	; 0x3a
 8003668:	f24d 6005 	movw	r0, #54789	; 0xd605
 800366c:	f7fd f924 	bl	80008b8 <LCD_WriteReg>
 8003670:	2100      	movs	r1, #0
 8003672:	f24d 6006 	movw	r0, #54790	; 0xd606
 8003676:	f7fd f91f 	bl	80008b8 <LCD_WriteReg>
 800367a:	214a      	movs	r1, #74	; 0x4a
 800367c:	f24d 6007 	movw	r0, #54791	; 0xd607
 8003680:	f7fd f91a 	bl	80008b8 <LCD_WriteReg>
 8003684:	2100      	movs	r1, #0
 8003686:	f24d 6008 	movw	r0, #54792	; 0xd608
 800368a:	f7fd f915 	bl	80008b8 <LCD_WriteReg>
 800368e:	215c      	movs	r1, #92	; 0x5c
 8003690:	f24d 6009 	movw	r0, #54793	; 0xd609
 8003694:	f7fd f910 	bl	80008b8 <LCD_WriteReg>
 8003698:	2100      	movs	r1, #0
 800369a:	f24d 600a 	movw	r0, #54794	; 0xd60a
 800369e:	f7fd f90b 	bl	80008b8 <LCD_WriteReg>
 80036a2:	2181      	movs	r1, #129	; 0x81
 80036a4:	f24d 600b 	movw	r0, #54795	; 0xd60b
 80036a8:	f7fd f906 	bl	80008b8 <LCD_WriteReg>
 80036ac:	2100      	movs	r1, #0
 80036ae:	f24d 600c 	movw	r0, #54796	; 0xd60c
 80036b2:	f7fd f901 	bl	80008b8 <LCD_WriteReg>
 80036b6:	21a6      	movs	r1, #166	; 0xa6
 80036b8:	f24d 600d 	movw	r0, #54797	; 0xd60d
 80036bc:	f7fd f8fc 	bl	80008b8 <LCD_WriteReg>
 80036c0:	2100      	movs	r1, #0
 80036c2:	f24d 600e 	movw	r0, #54798	; 0xd60e
 80036c6:	f7fd f8f7 	bl	80008b8 <LCD_WriteReg>
 80036ca:	21e5      	movs	r1, #229	; 0xe5
 80036cc:	f24d 600f 	movw	r0, #54799	; 0xd60f
 80036d0:	f7fd f8f2 	bl	80008b8 <LCD_WriteReg>
 80036d4:	2101      	movs	r1, #1
 80036d6:	f24d 6010 	movw	r0, #54800	; 0xd610
 80036da:	f7fd f8ed 	bl	80008b8 <LCD_WriteReg>
 80036de:	2113      	movs	r1, #19
 80036e0:	f24d 6011 	movw	r0, #54801	; 0xd611
 80036e4:	f7fd f8e8 	bl	80008b8 <LCD_WriteReg>
 80036e8:	2101      	movs	r1, #1
 80036ea:	f24d 6012 	movw	r0, #54802	; 0xd612
 80036ee:	f7fd f8e3 	bl	80008b8 <LCD_WriteReg>
 80036f2:	2154      	movs	r1, #84	; 0x54
 80036f4:	f24d 6013 	movw	r0, #54803	; 0xd613
 80036f8:	f7fd f8de 	bl	80008b8 <LCD_WriteReg>
 80036fc:	2101      	movs	r1, #1
 80036fe:	f24d 6014 	movw	r0, #54804	; 0xd614
 8003702:	f7fd f8d9 	bl	80008b8 <LCD_WriteReg>
 8003706:	2182      	movs	r1, #130	; 0x82
 8003708:	f24d 6015 	movw	r0, #54805	; 0xd615
 800370c:	f7fd f8d4 	bl	80008b8 <LCD_WriteReg>
 8003710:	2101      	movs	r1, #1
 8003712:	f24d 6016 	movw	r0, #54806	; 0xd616
 8003716:	f7fd f8cf 	bl	80008b8 <LCD_WriteReg>
 800371a:	21ca      	movs	r1, #202	; 0xca
 800371c:	f24d 6017 	movw	r0, #54807	; 0xd617
 8003720:	f7fd f8ca 	bl	80008b8 <LCD_WriteReg>
 8003724:	2102      	movs	r1, #2
 8003726:	f24d 6018 	movw	r0, #54808	; 0xd618
 800372a:	f7fd f8c5 	bl	80008b8 <LCD_WriteReg>
 800372e:	2100      	movs	r1, #0
 8003730:	f24d 6019 	movw	r0, #54809	; 0xd619
 8003734:	f7fd f8c0 	bl	80008b8 <LCD_WriteReg>
 8003738:	2102      	movs	r1, #2
 800373a:	f24d 601a 	movw	r0, #54810	; 0xd61a
 800373e:	f7fd f8bb 	bl	80008b8 <LCD_WriteReg>
 8003742:	2101      	movs	r1, #1
 8003744:	f24d 601b 	movw	r0, #54811	; 0xd61b
 8003748:	f7fd f8b6 	bl	80008b8 <LCD_WriteReg>
 800374c:	2102      	movs	r1, #2
 800374e:	f24d 601c 	movw	r0, #54812	; 0xd61c
 8003752:	f7fd f8b1 	bl	80008b8 <LCD_WriteReg>
 8003756:	2134      	movs	r1, #52	; 0x34
 8003758:	f24d 601d 	movw	r0, #54813	; 0xd61d
 800375c:	f7fd f8ac 	bl	80008b8 <LCD_WriteReg>
 8003760:	2102      	movs	r1, #2
 8003762:	f24d 601e 	movw	r0, #54814	; 0xd61e
 8003766:	f7fd f8a7 	bl	80008b8 <LCD_WriteReg>
 800376a:	2167      	movs	r1, #103	; 0x67
 800376c:	f24d 601f 	movw	r0, #54815	; 0xd61f
 8003770:	f7fd f8a2 	bl	80008b8 <LCD_WriteReg>
 8003774:	2102      	movs	r1, #2
 8003776:	f24d 6020 	movw	r0, #54816	; 0xd620
 800377a:	f7fd f89d 	bl	80008b8 <LCD_WriteReg>
 800377e:	2184      	movs	r1, #132	; 0x84
 8003780:	f24d 6021 	movw	r0, #54817	; 0xd621
 8003784:	f7fd f898 	bl	80008b8 <LCD_WriteReg>
 8003788:	2102      	movs	r1, #2
 800378a:	f24d 6022 	movw	r0, #54818	; 0xd622
 800378e:	f7fd f893 	bl	80008b8 <LCD_WriteReg>
 8003792:	21a4      	movs	r1, #164	; 0xa4
 8003794:	f24d 6023 	movw	r0, #54819	; 0xd623
 8003798:	f7fd f88e 	bl	80008b8 <LCD_WriteReg>
 800379c:	2102      	movs	r1, #2
 800379e:	f24d 6024 	movw	r0, #54820	; 0xd624
 80037a2:	f7fd f889 	bl	80008b8 <LCD_WriteReg>
 80037a6:	21b7      	movs	r1, #183	; 0xb7
 80037a8:	f24d 6025 	movw	r0, #54821	; 0xd625
 80037ac:	f7fd f884 	bl	80008b8 <LCD_WriteReg>
 80037b0:	2102      	movs	r1, #2
 80037b2:	f24d 6026 	movw	r0, #54822	; 0xd626
 80037b6:	f7fd f87f 	bl	80008b8 <LCD_WriteReg>
 80037ba:	21cf      	movs	r1, #207	; 0xcf
 80037bc:	f24d 6027 	movw	r0, #54823	; 0xd627
 80037c0:	f7fd f87a 	bl	80008b8 <LCD_WriteReg>
 80037c4:	2102      	movs	r1, #2
 80037c6:	f24d 6028 	movw	r0, #54824	; 0xd628
 80037ca:	f7fd f875 	bl	80008b8 <LCD_WriteReg>
 80037ce:	21de      	movs	r1, #222	; 0xde
 80037d0:	f24d 6029 	movw	r0, #54825	; 0xd629
 80037d4:	f7fd f870 	bl	80008b8 <LCD_WriteReg>
 80037d8:	2102      	movs	r1, #2
 80037da:	f24d 602a 	movw	r0, #54826	; 0xd62a
 80037de:	f7fd f86b 	bl	80008b8 <LCD_WriteReg>
 80037e2:	21f2      	movs	r1, #242	; 0xf2
 80037e4:	f24d 602b 	movw	r0, #54827	; 0xd62b
 80037e8:	f7fd f866 	bl	80008b8 <LCD_WriteReg>
 80037ec:	2102      	movs	r1, #2
 80037ee:	f24d 602c 	movw	r0, #54828	; 0xd62c
 80037f2:	f7fd f861 	bl	80008b8 <LCD_WriteReg>
 80037f6:	21fe      	movs	r1, #254	; 0xfe
 80037f8:	f24d 602d 	movw	r0, #54829	; 0xd62d
 80037fc:	f7fd f85c 	bl	80008b8 <LCD_WriteReg>
 8003800:	2103      	movs	r1, #3
 8003802:	f24d 602e 	movw	r0, #54830	; 0xd62e
 8003806:	f7fd f857 	bl	80008b8 <LCD_WriteReg>
 800380a:	2110      	movs	r1, #16
 800380c:	f24d 602f 	movw	r0, #54831	; 0xd62f
 8003810:	f7fd f852 	bl	80008b8 <LCD_WriteReg>
 8003814:	2103      	movs	r1, #3
 8003816:	f24d 6030 	movw	r0, #54832	; 0xd630
 800381a:	f7fd f84d 	bl	80008b8 <LCD_WriteReg>
 800381e:	2133      	movs	r1, #51	; 0x33
 8003820:	f24d 6031 	movw	r0, #54833	; 0xd631
 8003824:	f7fd f848 	bl	80008b8 <LCD_WriteReg>
 8003828:	2103      	movs	r1, #3
 800382a:	f24d 6032 	movw	r0, #54834	; 0xd632
 800382e:	f7fd f843 	bl	80008b8 <LCD_WriteReg>
 8003832:	216d      	movs	r1, #109	; 0x6d
 8003834:	f24d 6033 	movw	r0, #54835	; 0xd633
 8003838:	f7fd f83e 	bl	80008b8 <LCD_WriteReg>
 800383c:	2155      	movs	r1, #85	; 0x55
 800383e:	f44f 4070 	mov.w	r0, #61440	; 0xf000
 8003842:	f7fd f839 	bl	80008b8 <LCD_WriteReg>
 8003846:	21aa      	movs	r1, #170	; 0xaa
 8003848:	f24f 0001 	movw	r0, #61441	; 0xf001
 800384c:	f7fd f834 	bl	80008b8 <LCD_WriteReg>
 8003850:	2152      	movs	r1, #82	; 0x52
 8003852:	f24f 0002 	movw	r0, #61442	; 0xf002
 8003856:	f7fd f82f 	bl	80008b8 <LCD_WriteReg>
 800385a:	2108      	movs	r1, #8
 800385c:	f24f 0003 	movw	r0, #61443	; 0xf003
 8003860:	f7fd f82a 	bl	80008b8 <LCD_WriteReg>
 8003864:	2100      	movs	r1, #0
 8003866:	f24f 0004 	movw	r0, #61444	; 0xf004
 800386a:	f7fd f825 	bl	80008b8 <LCD_WriteReg>
 800386e:	21cc      	movs	r1, #204	; 0xcc
 8003870:	f44f 4031 	mov.w	r0, #45312	; 0xb100
 8003874:	f7fd f820 	bl	80008b8 <LCD_WriteReg>
 8003878:	2100      	movs	r1, #0
 800387a:	f24b 1001 	movw	r0, #45313	; 0xb101
 800387e:	f7fd f81b 	bl	80008b8 <LCD_WriteReg>
 8003882:	2105      	movs	r1, #5
 8003884:	f44f 4036 	mov.w	r0, #46592	; 0xb600
 8003888:	f7fd f816 	bl	80008b8 <LCD_WriteReg>
 800388c:	2170      	movs	r1, #112	; 0x70
 800388e:	f44f 4037 	mov.w	r0, #46848	; 0xb700
 8003892:	f7fd f811 	bl	80008b8 <LCD_WriteReg>
 8003896:	2170      	movs	r1, #112	; 0x70
 8003898:	f24b 7001 	movw	r0, #46849	; 0xb701
 800389c:	f7fd f80c 	bl	80008b8 <LCD_WriteReg>
 80038a0:	2101      	movs	r1, #1
 80038a2:	f44f 4038 	mov.w	r0, #47104	; 0xb800
 80038a6:	f7fd f807 	bl	80008b8 <LCD_WriteReg>
 80038aa:	2103      	movs	r1, #3
 80038ac:	f64b 0001 	movw	r0, #47105	; 0xb801
 80038b0:	f7fd f802 	bl	80008b8 <LCD_WriteReg>
 80038b4:	2103      	movs	r1, #3
 80038b6:	f64b 0002 	movw	r0, #47106	; 0xb802
 80038ba:	f7fc fffd 	bl	80008b8 <LCD_WriteReg>
 80038be:	2103      	movs	r1, #3
 80038c0:	f64b 0003 	movw	r0, #47107	; 0xb803
 80038c4:	f7fc fff8 	bl	80008b8 <LCD_WriteReg>
 80038c8:	2102      	movs	r1, #2
 80038ca:	f44f 403c 	mov.w	r0, #48128	; 0xbc00
 80038ce:	f7fc fff3 	bl	80008b8 <LCD_WriteReg>
 80038d2:	2100      	movs	r1, #0
 80038d4:	f64b 4001 	movw	r0, #48129	; 0xbc01
 80038d8:	f7fc ffee 	bl	80008b8 <LCD_WriteReg>
 80038dc:	2100      	movs	r1, #0
 80038de:	f64b 4002 	movw	r0, #48130	; 0xbc02
 80038e2:	f7fc ffe9 	bl	80008b8 <LCD_WriteReg>
 80038e6:	21d0      	movs	r1, #208	; 0xd0
 80038e8:	f44f 4049 	mov.w	r0, #51456	; 0xc900
 80038ec:	f7fc ffe4 	bl	80008b8 <LCD_WriteReg>
 80038f0:	2102      	movs	r1, #2
 80038f2:	f64c 1001 	movw	r0, #51457	; 0xc901
 80038f6:	f7fc ffdf 	bl	80008b8 <LCD_WriteReg>
 80038fa:	2150      	movs	r1, #80	; 0x50
 80038fc:	f64c 1002 	movw	r0, #51458	; 0xc902
 8003900:	f7fc ffda 	bl	80008b8 <LCD_WriteReg>
 8003904:	2150      	movs	r1, #80	; 0x50
 8003906:	f64c 1003 	movw	r0, #51459	; 0xc903
 800390a:	f7fc ffd5 	bl	80008b8 <LCD_WriteReg>
 800390e:	2150      	movs	r1, #80	; 0x50
 8003910:	f64c 1004 	movw	r0, #51460	; 0xc904
 8003914:	f7fc ffd0 	bl	80008b8 <LCD_WriteReg>
 8003918:	2100      	movs	r1, #0
 800391a:	f44f 5054 	mov.w	r0, #13568	; 0x3500
 800391e:	f7fc ffcb 	bl	80008b8 <LCD_WriteReg>
 8003922:	2155      	movs	r1, #85	; 0x55
 8003924:	f44f 5068 	mov.w	r0, #14848	; 0x3a00
 8003928:	f7fc ffc6 	bl	80008b8 <LCD_WriteReg>
 800392c:	f44f 5088 	mov.w	r0, #4352	; 0x1100
 8003930:	f7fc ff80 	bl	8000834 <LCD_WR_REG>
 8003934:	2001      	movs	r0, #1
 8003936:	f001 fbf9 	bl	800512c <HAL_Delay>
 800393a:	f44f 5024 	mov.w	r0, #10496	; 0x2900
 800393e:	f7fd beec 	b.w	800171a <LCD_Init+0x39e>
 8003942:	f647 01f0 	movw	r1, #30960	; 0x78f0
 8003946:	20e5      	movs	r0, #229	; 0xe5
 8003948:	f7fc ffb6 	bl	80008b8 <LCD_WriteReg>
 800394c:	f44f 7180 	mov.w	r1, #256	; 0x100
 8003950:	2001      	movs	r0, #1
 8003952:	f7fc ffb1 	bl	80008b8 <LCD_WriteReg>
 8003956:	f44f 61e0 	mov.w	r1, #1792	; 0x700
 800395a:	2002      	movs	r0, #2
 800395c:	f7fc ffac 	bl	80008b8 <LCD_WriteReg>
 8003960:	f241 0130 	movw	r1, #4144	; 0x1030
 8003964:	2003      	movs	r0, #3
 8003966:	f7fc ffa7 	bl	80008b8 <LCD_WriteReg>
 800396a:	2100      	movs	r1, #0
 800396c:	2004      	movs	r0, #4
 800396e:	f7fc ffa3 	bl	80008b8 <LCD_WriteReg>
 8003972:	f240 2102 	movw	r1, #514	; 0x202
 8003976:	2008      	movs	r0, #8
 8003978:	f7fc ff9e 	bl	80008b8 <LCD_WriteReg>
 800397c:	2100      	movs	r1, #0
 800397e:	2009      	movs	r0, #9
 8003980:	f7fc ff9a 	bl	80008b8 <LCD_WriteReg>
 8003984:	2100      	movs	r1, #0
 8003986:	200a      	movs	r0, #10
 8003988:	f7fc ff96 	bl	80008b8 <LCD_WriteReg>
 800398c:	2100      	movs	r1, #0
 800398e:	200c      	movs	r0, #12
 8003990:	f7fc ff92 	bl	80008b8 <LCD_WriteReg>
 8003994:	2100      	movs	r1, #0
 8003996:	200d      	movs	r0, #13
 8003998:	f7fc ff8e 	bl	80008b8 <LCD_WriteReg>
 800399c:	2100      	movs	r1, #0
 800399e:	200f      	movs	r0, #15
 80039a0:	f7fc ff8a 	bl	80008b8 <LCD_WriteReg>
 80039a4:	2100      	movs	r1, #0
 80039a6:	2010      	movs	r0, #16
 80039a8:	f7fc ff86 	bl	80008b8 <LCD_WriteReg>
 80039ac:	2107      	movs	r1, #7
 80039ae:	2011      	movs	r0, #17
 80039b0:	f7fc ff82 	bl	80008b8 <LCD_WriteReg>
 80039b4:	2100      	movs	r1, #0
 80039b6:	2012      	movs	r0, #18
 80039b8:	f7fc ff7e 	bl	80008b8 <LCD_WriteReg>
 80039bc:	2100      	movs	r1, #0
 80039be:	2013      	movs	r0, #19
 80039c0:	f7fc ff7a 	bl	80008b8 <LCD_WriteReg>
 80039c4:	2100      	movs	r1, #0
 80039c6:	2007      	movs	r0, #7
 80039c8:	f7fc ff76 	bl	80008b8 <LCD_WriteReg>
 80039cc:	f241 6190 	movw	r1, #5776	; 0x1690
 80039d0:	2010      	movs	r0, #16
 80039d2:	f7fc ff71 	bl	80008b8 <LCD_WriteReg>
 80039d6:	f240 2127 	movw	r1, #551	; 0x227
 80039da:	2011      	movs	r0, #17
 80039dc:	f7fc ff6c 	bl	80008b8 <LCD_WriteReg>
 80039e0:	219d      	movs	r1, #157	; 0x9d
 80039e2:	2012      	movs	r0, #18
 80039e4:	f7fc ff68 	bl	80008b8 <LCD_WriteReg>
 80039e8:	f44f 51c8 	mov.w	r1, #6400	; 0x1900
 80039ec:	2013      	movs	r0, #19
 80039ee:	f7fc ff63 	bl	80008b8 <LCD_WriteReg>
 80039f2:	2125      	movs	r1, #37	; 0x25
 80039f4:	2029      	movs	r0, #41	; 0x29
 80039f6:	f7fc ff5f 	bl	80008b8 <LCD_WriteReg>
 80039fa:	210d      	movs	r1, #13
 80039fc:	202b      	movs	r0, #43	; 0x2b
 80039fe:	f7fc ff5b 	bl	80008b8 <LCD_WriteReg>
 8003a02:	2107      	movs	r1, #7
 8003a04:	2030      	movs	r0, #48	; 0x30
 8003a06:	f7fc ff57 	bl	80008b8 <LCD_WriteReg>
 8003a0a:	f240 3103 	movw	r1, #771	; 0x303
 8003a0e:	2031      	movs	r0, #49	; 0x31
 8003a10:	f7fc ff52 	bl	80008b8 <LCD_WriteReg>
 8003a14:	2103      	movs	r1, #3
 8003a16:	2032      	movs	r0, #50	; 0x32
 8003a18:	f7fc ff4e 	bl	80008b8 <LCD_WriteReg>
 8003a1c:	f240 2106 	movw	r1, #518	; 0x206
 8003a20:	2035      	movs	r0, #53	; 0x35
 8003a22:	f7fc ff49 	bl	80008b8 <LCD_WriteReg>
 8003a26:	2108      	movs	r1, #8
 8003a28:	2036      	movs	r0, #54	; 0x36
 8003a2a:	f7fc ff45 	bl	80008b8 <LCD_WriteReg>
 8003a2e:	f240 4106 	movw	r1, #1030	; 0x406
 8003a32:	2037      	movs	r0, #55	; 0x37
 8003a34:	f7fc ff40 	bl	80008b8 <LCD_WriteReg>
 8003a38:	f44f 7141 	mov.w	r1, #772	; 0x304
 8003a3c:	2038      	movs	r0, #56	; 0x38
 8003a3e:	f7fc ff3b 	bl	80008b8 <LCD_WriteReg>
 8003a42:	2107      	movs	r1, #7
 8003a44:	2039      	movs	r0, #57	; 0x39
 8003a46:	f7fc ff37 	bl	80008b8 <LCD_WriteReg>
 8003a4a:	f240 6102 	movw	r1, #1538	; 0x602
 8003a4e:	203c      	movs	r0, #60	; 0x3c
 8003a50:	f7fc ff32 	bl	80008b8 <LCD_WriteReg>
 8003a54:	2108      	movs	r1, #8
 8003a56:	203d      	movs	r0, #61	; 0x3d
 8003a58:	f7fc ff2e 	bl	80008b8 <LCD_WriteReg>
 8003a5c:	2100      	movs	r1, #0
 8003a5e:	2050      	movs	r0, #80	; 0x50
 8003a60:	f7fc ff2a 	bl	80008b8 <LCD_WriteReg>
 8003a64:	21ef      	movs	r1, #239	; 0xef
 8003a66:	2051      	movs	r0, #81	; 0x51
 8003a68:	f7fc ff26 	bl	80008b8 <LCD_WriteReg>
 8003a6c:	2100      	movs	r1, #0
 8003a6e:	2052      	movs	r0, #82	; 0x52
 8003a70:	f7fc ff22 	bl	80008b8 <LCD_WriteReg>
 8003a74:	f240 113f 	movw	r1, #319	; 0x13f
 8003a78:	2053      	movs	r0, #83	; 0x53
 8003a7a:	f7fc ff1d 	bl	80008b8 <LCD_WriteReg>
 8003a7e:	f44f 4127 	mov.w	r1, #42752	; 0xa700
 8003a82:	2060      	movs	r0, #96	; 0x60
 8003a84:	f7fc ff18 	bl	80008b8 <LCD_WriteReg>
 8003a88:	2101      	movs	r1, #1
 8003a8a:	2061      	movs	r0, #97	; 0x61
 8003a8c:	f7fc ff14 	bl	80008b8 <LCD_WriteReg>
 8003a90:	2100      	movs	r1, #0
 8003a92:	206a      	movs	r0, #106	; 0x6a
 8003a94:	f7fc ff10 	bl	80008b8 <LCD_WriteReg>
 8003a98:	2100      	movs	r1, #0
 8003a9a:	2080      	movs	r0, #128	; 0x80
 8003a9c:	f7fc ff0c 	bl	80008b8 <LCD_WriteReg>
 8003aa0:	2100      	movs	r1, #0
 8003aa2:	2081      	movs	r0, #129	; 0x81
 8003aa4:	f7fc ff08 	bl	80008b8 <LCD_WriteReg>
 8003aa8:	2100      	movs	r1, #0
 8003aaa:	2082      	movs	r0, #130	; 0x82
 8003aac:	f7fc ff04 	bl	80008b8 <LCD_WriteReg>
 8003ab0:	2100      	movs	r1, #0
 8003ab2:	2083      	movs	r0, #131	; 0x83
 8003ab4:	f7fc ff00 	bl	80008b8 <LCD_WriteReg>
 8003ab8:	2100      	movs	r1, #0
 8003aba:	2084      	movs	r0, #132	; 0x84
 8003abc:	f7fc fefc 	bl	80008b8 <LCD_WriteReg>
 8003ac0:	2100      	movs	r1, #0
 8003ac2:	2085      	movs	r0, #133	; 0x85
 8003ac4:	f7fc fef8 	bl	80008b8 <LCD_WriteReg>
 8003ac8:	2110      	movs	r1, #16
 8003aca:	2090      	movs	r0, #144	; 0x90
 8003acc:	f7fc fef4 	bl	80008b8 <LCD_WriteReg>
 8003ad0:	f44f 61c0 	mov.w	r1, #1536	; 0x600
 8003ad4:	2092      	movs	r0, #146	; 0x92
 8003ad6:	f7fc feef 	bl	80008b8 <LCD_WriteReg>
 8003ada:	f240 1133 	movw	r1, #307	; 0x133
 8003ade:	2007      	movs	r0, #7
 8003ae0:	f7fc feea 	bl	80008b8 <LCD_WriteReg>
 8003ae4:	2122      	movs	r1, #34	; 0x22
 8003ae6:	2000      	movs	r0, #0
 8003ae8:	e198      	b.n	8003e1c <LCD_Init+0x2aa0>
 8003aea:	f241 018f 	movw	r1, #4239	; 0x108f
 8003aee:	20ec      	movs	r0, #236	; 0xec
 8003af0:	f7fc fee2 	bl	80008b8 <LCD_WriteReg>
 8003af4:	f241 2134 	movw	r1, #4660	; 0x1234
 8003af8:	20ef      	movs	r0, #239	; 0xef
 8003afa:	f7fc fedd 	bl	80008b8 <LCD_WriteReg>
 8003afe:	f44f 7180 	mov.w	r1, #256	; 0x100
 8003b02:	2001      	movs	r0, #1
 8003b04:	f7fc fed8 	bl	80008b8 <LCD_WriteReg>
 8003b08:	f44f 61e0 	mov.w	r1, #1792	; 0x700
 8003b0c:	2002      	movs	r0, #2
 8003b0e:	f7fc fed3 	bl	80008b8 <LCD_WriteReg>
 8003b12:	f241 0130 	movw	r1, #4144	; 0x1030
 8003b16:	2003      	movs	r0, #3
 8003b18:	f7fc fece 	bl	80008b8 <LCD_WriteReg>
 8003b1c:	2100      	movs	r1, #0
 8003b1e:	2004      	movs	r0, #4
 8003b20:	f7fc feca 	bl	80008b8 <LCD_WriteReg>
 8003b24:	f240 2102 	movw	r1, #514	; 0x202
 8003b28:	2008      	movs	r0, #8
 8003b2a:	f7fc fec5 	bl	80008b8 <LCD_WriteReg>
 8003b2e:	2100      	movs	r1, #0
 8003b30:	2009      	movs	r0, #9
 8003b32:	f7fc fec1 	bl	80008b8 <LCD_WriteReg>
 8003b36:	2100      	movs	r1, #0
 8003b38:	200a      	movs	r0, #10
 8003b3a:	f7fc febd 	bl	80008b8 <LCD_WriteReg>
 8003b3e:	2101      	movs	r1, #1
 8003b40:	200c      	movs	r0, #12
 8003b42:	f7fc feb9 	bl	80008b8 <LCD_WriteReg>
 8003b46:	2100      	movs	r1, #0
 8003b48:	200d      	movs	r0, #13
 8003b4a:	f7fc feb5 	bl	80008b8 <LCD_WriteReg>
 8003b4e:	2100      	movs	r1, #0
 8003b50:	200f      	movs	r0, #15
 8003b52:	f7fc feb1 	bl	80008b8 <LCD_WriteReg>
 8003b56:	2100      	movs	r1, #0
 8003b58:	2010      	movs	r0, #16
 8003b5a:	f7fc fead 	bl	80008b8 <LCD_WriteReg>
 8003b5e:	2107      	movs	r1, #7
 8003b60:	2011      	movs	r0, #17
 8003b62:	f7fc fea9 	bl	80008b8 <LCD_WriteReg>
 8003b66:	2100      	movs	r1, #0
 8003b68:	2012      	movs	r0, #18
 8003b6a:	f7fc fea5 	bl	80008b8 <LCD_WriteReg>
 8003b6e:	2100      	movs	r1, #0
 8003b70:	2013      	movs	r0, #19
 8003b72:	f7fc fea1 	bl	80008b8 <LCD_WriteReg>
 8003b76:	2101      	movs	r1, #1
 8003b78:	2007      	movs	r0, #7
 8003b7a:	f7fc fe9d 	bl	80008b8 <LCD_WriteReg>
 8003b7e:	2032      	movs	r0, #50	; 0x32
 8003b80:	f001 fad4 	bl	800512c <HAL_Delay>
 8003b84:	f241 4190 	movw	r1, #5264	; 0x1490
 8003b88:	2010      	movs	r0, #16
 8003b8a:	f7fc fe95 	bl	80008b8 <LCD_WriteReg>
 8003b8e:	f240 2127 	movw	r1, #551	; 0x227
 8003b92:	2011      	movs	r0, #17
 8003b94:	f7fc fe90 	bl	80008b8 <LCD_WriteReg>
 8003b98:	2032      	movs	r0, #50	; 0x32
 8003b9a:	f001 fac7 	bl	800512c <HAL_Delay>
 8003b9e:	218a      	movs	r1, #138	; 0x8a
 8003ba0:	2012      	movs	r0, #18
 8003ba2:	f7fc fe89 	bl	80008b8 <LCD_WriteReg>
 8003ba6:	2032      	movs	r0, #50	; 0x32
 8003ba8:	f001 fac0 	bl	800512c <HAL_Delay>
 8003bac:	f44f 51d0 	mov.w	r1, #6656	; 0x1a00
 8003bb0:	2013      	movs	r0, #19
 8003bb2:	f7fc fe81 	bl	80008b8 <LCD_WriteReg>
 8003bb6:	2106      	movs	r1, #6
 8003bb8:	2029      	movs	r0, #41	; 0x29
 8003bba:	f7fc fe7d 	bl	80008b8 <LCD_WriteReg>
 8003bbe:	210d      	movs	r1, #13
 8003bc0:	202b      	movs	r0, #43	; 0x2b
 8003bc2:	f7fc fe79 	bl	80008b8 <LCD_WriteReg>
 8003bc6:	2032      	movs	r0, #50	; 0x32
 8003bc8:	f001 fab0 	bl	800512c <HAL_Delay>
 8003bcc:	2100      	movs	r1, #0
 8003bce:	2020      	movs	r0, #32
 8003bd0:	f7fc fe72 	bl	80008b8 <LCD_WriteReg>
 8003bd4:	2100      	movs	r1, #0
 8003bd6:	2021      	movs	r0, #33	; 0x21
 8003bd8:	f7fc fe6e 	bl	80008b8 <LCD_WriteReg>
 8003bdc:	2032      	movs	r0, #50	; 0x32
 8003bde:	f001 faa5 	bl	800512c <HAL_Delay>
 8003be2:	2100      	movs	r1, #0
 8003be4:	2030      	movs	r0, #48	; 0x30
 8003be6:	f7fc fe67 	bl	80008b8 <LCD_WriteReg>
 8003bea:	f240 6104 	movw	r1, #1540	; 0x604
 8003bee:	2031      	movs	r0, #49	; 0x31
 8003bf0:	f7fc fe62 	bl	80008b8 <LCD_WriteReg>
 8003bf4:	f240 3105 	movw	r1, #773	; 0x305
 8003bf8:	2032      	movs	r0, #50	; 0x32
 8003bfa:	f7fc fe5d 	bl	80008b8 <LCD_WriteReg>
 8003bfe:	2100      	movs	r1, #0
 8003c00:	2035      	movs	r0, #53	; 0x35
 8003c02:	f7fc fe59 	bl	80008b8 <LCD_WriteReg>
 8003c06:	f640 4109 	movw	r1, #3081	; 0xc09
 8003c0a:	2036      	movs	r0, #54	; 0x36
 8003c0c:	f7fc fe54 	bl	80008b8 <LCD_WriteReg>
 8003c10:	f44f 7101 	mov.w	r1, #516	; 0x204
 8003c14:	2037      	movs	r0, #55	; 0x37
 8003c16:	f7fc fe4f 	bl	80008b8 <LCD_WriteReg>
 8003c1a:	f240 3101 	movw	r1, #769	; 0x301
 8003c1e:	2038      	movs	r0, #56	; 0x38
 8003c20:	f7fc fe4a 	bl	80008b8 <LCD_WriteReg>
 8003c24:	f240 7107 	movw	r1, #1799	; 0x707
 8003c28:	2039      	movs	r0, #57	; 0x39
 8003c2a:	f7fc fe45 	bl	80008b8 <LCD_WriteReg>
 8003c2e:	2100      	movs	r1, #0
 8003c30:	203c      	movs	r0, #60	; 0x3c
 8003c32:	f7fc fe41 	bl	80008b8 <LCD_WriteReg>
 8003c36:	f640 210a 	movw	r1, #2570	; 0xa0a
 8003c3a:	203d      	movs	r0, #61	; 0x3d
 8003c3c:	f7fc fe3c 	bl	80008b8 <LCD_WriteReg>
 8003c40:	2032      	movs	r0, #50	; 0x32
 8003c42:	f001 fa73 	bl	800512c <HAL_Delay>
 8003c46:	2100      	movs	r1, #0
 8003c48:	2050      	movs	r0, #80	; 0x50
 8003c4a:	f7fc fe35 	bl	80008b8 <LCD_WriteReg>
 8003c4e:	21ef      	movs	r1, #239	; 0xef
 8003c50:	2051      	movs	r0, #81	; 0x51
 8003c52:	f7fc fe31 	bl	80008b8 <LCD_WriteReg>
 8003c56:	2100      	movs	r1, #0
 8003c58:	2052      	movs	r0, #82	; 0x52
 8003c5a:	f7fc fe2d 	bl	80008b8 <LCD_WriteReg>
 8003c5e:	f240 113f 	movw	r1, #319	; 0x13f
 8003c62:	2053      	movs	r0, #83	; 0x53
 8003c64:	f7fc fe28 	bl	80008b8 <LCD_WriteReg>
 8003c68:	f44f 4127 	mov.w	r1, #42752	; 0xa700
 8003c6c:	2060      	movs	r0, #96	; 0x60
 8003c6e:	f7fc fe23 	bl	80008b8 <LCD_WriteReg>
 8003c72:	2101      	movs	r1, #1
 8003c74:	2061      	movs	r0, #97	; 0x61
 8003c76:	f7fc fe1f 	bl	80008b8 <LCD_WriteReg>
 8003c7a:	2100      	movs	r1, #0
 8003c7c:	206a      	movs	r0, #106	; 0x6a
 8003c7e:	f7fc fe1b 	bl	80008b8 <LCD_WriteReg>
 8003c82:	2100      	movs	r1, #0
 8003c84:	2080      	movs	r0, #128	; 0x80
 8003c86:	f7fc fe17 	bl	80008b8 <LCD_WriteReg>
 8003c8a:	2100      	movs	r1, #0
 8003c8c:	2081      	movs	r0, #129	; 0x81
 8003c8e:	f7fc fe13 	bl	80008b8 <LCD_WriteReg>
 8003c92:	2100      	movs	r1, #0
 8003c94:	2082      	movs	r0, #130	; 0x82
 8003c96:	f7fc fe0f 	bl	80008b8 <LCD_WriteReg>
 8003c9a:	2100      	movs	r1, #0
 8003c9c:	2083      	movs	r0, #131	; 0x83
 8003c9e:	f7fc fe0b 	bl	80008b8 <LCD_WriteReg>
 8003ca2:	2100      	movs	r1, #0
 8003ca4:	2084      	movs	r0, #132	; 0x84
 8003ca6:	f7fc fe07 	bl	80008b8 <LCD_WriteReg>
 8003caa:	2100      	movs	r1, #0
 8003cac:	2085      	movs	r0, #133	; 0x85
 8003cae:	f7fc fe03 	bl	80008b8 <LCD_WriteReg>
 8003cb2:	2110      	movs	r1, #16
 8003cb4:	2090      	movs	r0, #144	; 0x90
 8003cb6:	f7fc fdff 	bl	80008b8 <LCD_WriteReg>
 8003cba:	f44f 61c0 	mov.w	r1, #1536	; 0x600
 8003cbe:	2092      	movs	r0, #146	; 0x92
 8003cc0:	f7fc fdfa 	bl	80008b8 <LCD_WriteReg>
 8003cc4:	f240 1133 	movw	r1, #307	; 0x133
 8003cc8:	e0a7      	b.n	8003e1a <LCD_Init+0x2a9e>
 8003cca:	2100      	movs	r1, #0
 8003ccc:	4608      	mov	r0, r1
 8003cce:	f7fc fdf3 	bl	80008b8 <LCD_WriteReg>
 8003cd2:	f44f 7180 	mov.w	r1, #256	; 0x100
 8003cd6:	2001      	movs	r0, #1
 8003cd8:	f7fc fdee 	bl	80008b8 <LCD_WriteReg>
 8003cdc:	f44f 61e0 	mov.w	r1, #1792	; 0x700
 8003ce0:	2002      	movs	r0, #2
 8003ce2:	f7fc fde9 	bl	80008b8 <LCD_WriteReg>
 8003ce6:	f241 0130 	movw	r1, #4144	; 0x1030
 8003cea:	2003      	movs	r0, #3
 8003cec:	f7fc fde4 	bl	80008b8 <LCD_WriteReg>
 8003cf0:	2100      	movs	r1, #0
 8003cf2:	2004      	movs	r0, #4
 8003cf4:	f7fc fde0 	bl	80008b8 <LCD_WriteReg>
 8003cf8:	f240 2102 	movw	r1, #514	; 0x202
 8003cfc:	2008      	movs	r0, #8
 8003cfe:	f7fc fddb 	bl	80008b8 <LCD_WriteReg>
 8003d02:	2100      	movs	r1, #0
 8003d04:	2009      	movs	r0, #9
 8003d06:	f7fc fdd7 	bl	80008b8 <LCD_WriteReg>
 8003d0a:	2100      	movs	r1, #0
 8003d0c:	200a      	movs	r0, #10
 8003d0e:	f7fc fdd3 	bl	80008b8 <LCD_WriteReg>
 8003d12:	2101      	movs	r1, #1
 8003d14:	200c      	movs	r0, #12
 8003d16:	f7fc fdcf 	bl	80008b8 <LCD_WriteReg>
 8003d1a:	2100      	movs	r1, #0
 8003d1c:	200d      	movs	r0, #13
 8003d1e:	f7fc fdcb 	bl	80008b8 <LCD_WriteReg>
 8003d22:	2100      	movs	r1, #0
 8003d24:	200f      	movs	r0, #15
 8003d26:	f7fc fdc7 	bl	80008b8 <LCD_WriteReg>
 8003d2a:	2032      	movs	r0, #50	; 0x32
 8003d2c:	f001 f9fe 	bl	800512c <HAL_Delay>
 8003d30:	f240 1101 	movw	r1, #257	; 0x101
 8003d34:	2007      	movs	r0, #7
 8003d36:	f7fc fdbf 	bl	80008b8 <LCD_WriteReg>
 8003d3a:	2032      	movs	r0, #50	; 0x32
 8003d3c:	f001 f9f6 	bl	800512c <HAL_Delay>
 8003d40:	f44f 5186 	mov.w	r1, #4288	; 0x10c0
 8003d44:	2010      	movs	r0, #16
 8003d46:	f7fc fdb7 	bl	80008b8 <LCD_WriteReg>
 8003d4a:	2107      	movs	r1, #7
 8003d4c:	2011      	movs	r0, #17
 8003d4e:	f7fc fdb3 	bl	80008b8 <LCD_WriteReg>
 8003d52:	f44f 7188 	mov.w	r1, #272	; 0x110
 8003d56:	2012      	movs	r0, #18
 8003d58:	f7fc fdae 	bl	80008b8 <LCD_WriteReg>
 8003d5c:	f44f 6130 	mov.w	r1, #2816	; 0xb00
 8003d60:	2013      	movs	r0, #19
 8003d62:	f7fc fda9 	bl	80008b8 <LCD_WriteReg>
 8003d66:	2100      	movs	r1, #0
 8003d68:	2029      	movs	r0, #41	; 0x29
 8003d6a:	f7fc fda5 	bl	80008b8 <LCD_WriteReg>
 8003d6e:	f244 0110 	movw	r1, #16400	; 0x4010
 8003d72:	202b      	movs	r0, #43	; 0x2b
 8003d74:	f7fc fda0 	bl	80008b8 <LCD_WriteReg>
 8003d78:	2100      	movs	r1, #0
 8003d7a:	2050      	movs	r0, #80	; 0x50
 8003d7c:	f7fc fd9c 	bl	80008b8 <LCD_WriteReg>
 8003d80:	21ef      	movs	r1, #239	; 0xef
 8003d82:	2051      	movs	r0, #81	; 0x51
 8003d84:	f7fc fd98 	bl	80008b8 <LCD_WriteReg>
 8003d88:	2100      	movs	r1, #0
 8003d8a:	2052      	movs	r0, #82	; 0x52
 8003d8c:	f7fc fd94 	bl	80008b8 <LCD_WriteReg>
 8003d90:	f240 113f 	movw	r1, #319	; 0x13f
 8003d94:	2053      	movs	r0, #83	; 0x53
 8003d96:	f7fc fd8f 	bl	80008b8 <LCD_WriteReg>
 8003d9a:	f44f 511c 	mov.w	r1, #9984	; 0x2700
 8003d9e:	2060      	movs	r0, #96	; 0x60
 8003da0:	f7fc fd8a 	bl	80008b8 <LCD_WriteReg>
 8003da4:	2101      	movs	r1, #1
 8003da6:	2061      	movs	r0, #97	; 0x61
 8003da8:	f7fc fd86 	bl	80008b8 <LCD_WriteReg>
 8003dac:	2100      	movs	r1, #0
 8003dae:	206a      	movs	r0, #106	; 0x6a
 8003db0:	f7fc fd82 	bl	80008b8 <LCD_WriteReg>
 8003db4:	2100      	movs	r1, #0
 8003db6:	2080      	movs	r0, #128	; 0x80
 8003db8:	f7fc fd7e 	bl	80008b8 <LCD_WriteReg>
 8003dbc:	2100      	movs	r1, #0
 8003dbe:	2081      	movs	r0, #129	; 0x81
 8003dc0:	f7fc fd7a 	bl	80008b8 <LCD_WriteReg>
 8003dc4:	2100      	movs	r1, #0
 8003dc6:	2082      	movs	r0, #130	; 0x82
 8003dc8:	f7fc fd76 	bl	80008b8 <LCD_WriteReg>
 8003dcc:	2100      	movs	r1, #0
 8003dce:	2083      	movs	r0, #131	; 0x83
 8003dd0:	f7fc fd72 	bl	80008b8 <LCD_WriteReg>
 8003dd4:	2100      	movs	r1, #0
 8003dd6:	2084      	movs	r0, #132	; 0x84
 8003dd8:	f7fc fd6e 	bl	80008b8 <LCD_WriteReg>
 8003ddc:	2100      	movs	r1, #0
 8003dde:	2085      	movs	r0, #133	; 0x85
 8003de0:	f7fc fd6a 	bl	80008b8 <LCD_WriteReg>
 8003de4:	2110      	movs	r1, #16
 8003de6:	2090      	movs	r0, #144	; 0x90
 8003de8:	f7fc fd66 	bl	80008b8 <LCD_WriteReg>
 8003dec:	2100      	movs	r1, #0
 8003dee:	2092      	movs	r0, #146	; 0x92
 8003df0:	f7fc fd62 	bl	80008b8 <LCD_WriteReg>
 8003df4:	2101      	movs	r1, #1
 8003df6:	2093      	movs	r0, #147	; 0x93
 8003df8:	f7fc fd5e 	bl	80008b8 <LCD_WriteReg>
 8003dfc:	f44f 7188 	mov.w	r1, #272	; 0x110
 8003e00:	2095      	movs	r0, #149	; 0x95
 8003e02:	f7fc fd59 	bl	80008b8 <LCD_WriteReg>
 8003e06:	2100      	movs	r1, #0
 8003e08:	2097      	movs	r0, #151	; 0x97
 8003e0a:	f7fc fd55 	bl	80008b8 <LCD_WriteReg>
 8003e0e:	2100      	movs	r1, #0
 8003e10:	2098      	movs	r0, #152	; 0x98
 8003e12:	f7fc fd51 	bl	80008b8 <LCD_WriteReg>
 8003e16:	f240 1173 	movw	r1, #371	; 0x173
 8003e1a:	2007      	movs	r0, #7
 8003e1c:	f7fc fd4c 	bl	80008b8 <LCD_WriteReg>
 8003e20:	f7fd bc9d 	b.w	800175e <LCD_Init+0x3e2>
 8003e24:	f44f 7180 	mov.w	r1, #256	; 0x100
 8003e28:	2001      	movs	r0, #1
 8003e2a:	f7fc fd45 	bl	80008b8 <LCD_WriteReg>
 8003e2e:	f44f 61e0 	mov.w	r1, #1792	; 0x700
 8003e32:	2002      	movs	r0, #2
 8003e34:	f7fc fd40 	bl	80008b8 <LCD_WriteReg>
 8003e38:	f241 0130 	movw	r1, #4144	; 0x1030
 8003e3c:	2003      	movs	r0, #3
 8003e3e:	f7fc fd3b 	bl	80008b8 <LCD_WriteReg>
 8003e42:	2100      	movs	r1, #0
 8003e44:	2004      	movs	r0, #4
 8003e46:	f7fc fd37 	bl	80008b8 <LCD_WriteReg>
 8003e4a:	f240 2107 	movw	r1, #519	; 0x207
 8003e4e:	2008      	movs	r0, #8
 8003e50:	f7fc fd32 	bl	80008b8 <LCD_WriteReg>
 8003e54:	2100      	movs	r1, #0
 8003e56:	2009      	movs	r0, #9
 8003e58:	f7fc fd2e 	bl	80008b8 <LCD_WriteReg>
 8003e5c:	2100      	movs	r1, #0
 8003e5e:	200a      	movs	r0, #10
 8003e60:	f7fc fd2a 	bl	80008b8 <LCD_WriteReg>
 8003e64:	2100      	movs	r1, #0
 8003e66:	200c      	movs	r0, #12
 8003e68:	f7fc fd26 	bl	80008b8 <LCD_WriteReg>
 8003e6c:	2100      	movs	r1, #0
 8003e6e:	200d      	movs	r0, #13
 8003e70:	f7fc fd22 	bl	80008b8 <LCD_WriteReg>
 8003e74:	2100      	movs	r1, #0
 8003e76:	200f      	movs	r0, #15
 8003e78:	f7fc fd1e 	bl	80008b8 <LCD_WriteReg>
 8003e7c:	2014      	movs	r0, #20
 8003e7e:	f001 f955 	bl	800512c <HAL_Delay>
 8003e82:	f241 61b0 	movw	r1, #5808	; 0x16b0
 8003e86:	2010      	movs	r0, #16
 8003e88:	f7fc fd16 	bl	80008b8 <LCD_WriteReg>
 8003e8c:	2101      	movs	r1, #1
 8003e8e:	2011      	movs	r0, #17
 8003e90:	f7fc fd12 	bl	80008b8 <LCD_WriteReg>
 8003e94:	2101      	movs	r1, #1
 8003e96:	2017      	movs	r0, #23
 8003e98:	f7fc fd0e 	bl	80008b8 <LCD_WriteReg>
 8003e9c:	f44f 719c 	mov.w	r1, #312	; 0x138
 8003ea0:	2012      	movs	r0, #18
 8003ea2:	f7fc fd09 	bl	80008b8 <LCD_WriteReg>
 8003ea6:	f44f 6100 	mov.w	r1, #2048	; 0x800
 8003eaa:	2013      	movs	r0, #19
 8003eac:	f7fc fd04 	bl	80008b8 <LCD_WriteReg>
 8003eb0:	2109      	movs	r1, #9
 8003eb2:	2029      	movs	r0, #41	; 0x29
 8003eb4:	f7fc fd00 	bl	80008b8 <LCD_WriteReg>
 8003eb8:	2109      	movs	r1, #9
 8003eba:	202a      	movs	r0, #42	; 0x2a
 8003ebc:	f7fc fcfc 	bl	80008b8 <LCD_WriteReg>
 8003ec0:	2100      	movs	r1, #0
 8003ec2:	20a4      	movs	r0, #164	; 0xa4
 8003ec4:	f7fc fcf8 	bl	80008b8 <LCD_WriteReg>
 8003ec8:	2100      	movs	r1, #0
 8003eca:	2050      	movs	r0, #80	; 0x50
 8003ecc:	f7fc fcf4 	bl	80008b8 <LCD_WriteReg>
 8003ed0:	21ef      	movs	r1, #239	; 0xef
 8003ed2:	2051      	movs	r0, #81	; 0x51
 8003ed4:	f7fc fcf0 	bl	80008b8 <LCD_WriteReg>
 8003ed8:	2100      	movs	r1, #0
 8003eda:	2052      	movs	r0, #82	; 0x52
 8003edc:	f7fc fcec 	bl	80008b8 <LCD_WriteReg>
 8003ee0:	f240 113f 	movw	r1, #319	; 0x13f
 8003ee4:	2053      	movs	r0, #83	; 0x53
 8003ee6:	f7fc fce7 	bl	80008b8 <LCD_WriteReg>
 8003eea:	f44f 511c 	mov.w	r1, #9984	; 0x2700
 8003eee:	2060      	movs	r0, #96	; 0x60
 8003ef0:	f7fc fce2 	bl	80008b8 <LCD_WriteReg>
 8003ef4:	2101      	movs	r1, #1
 8003ef6:	2061      	movs	r0, #97	; 0x61
 8003ef8:	f7fc fcde 	bl	80008b8 <LCD_WriteReg>
 8003efc:	2100      	movs	r1, #0
 8003efe:	206a      	movs	r0, #106	; 0x6a
 8003f00:	f7fc fcda 	bl	80008b8 <LCD_WriteReg>
 8003f04:	2100      	movs	r1, #0
 8003f06:	2080      	movs	r0, #128	; 0x80
 8003f08:	f7fc fcd6 	bl	80008b8 <LCD_WriteReg>
 8003f0c:	2100      	movs	r1, #0
 8003f0e:	2081      	movs	r0, #129	; 0x81
 8003f10:	f7fc fcd2 	bl	80008b8 <LCD_WriteReg>
 8003f14:	2100      	movs	r1, #0
 8003f16:	2082      	movs	r0, #130	; 0x82
 8003f18:	f7fc fcce 	bl	80008b8 <LCD_WriteReg>
 8003f1c:	2100      	movs	r1, #0
 8003f1e:	2083      	movs	r0, #131	; 0x83
 8003f20:	f7fc fcca 	bl	80008b8 <LCD_WriteReg>
 8003f24:	2100      	movs	r1, #0
 8003f26:	2084      	movs	r0, #132	; 0x84
 8003f28:	f7fc fcc6 	bl	80008b8 <LCD_WriteReg>
 8003f2c:	2100      	movs	r1, #0
 8003f2e:	2085      	movs	r0, #133	; 0x85
 8003f30:	f7fc fcc2 	bl	80008b8 <LCD_WriteReg>
 8003f34:	2113      	movs	r1, #19
 8003f36:	2090      	movs	r0, #144	; 0x90
 8003f38:	f7fc fcbe 	bl	80008b8 <LCD_WriteReg>
 8003f3c:	2100      	movs	r1, #0
 8003f3e:	2092      	movs	r0, #146	; 0x92
 8003f40:	f7fc fcba 	bl	80008b8 <LCD_WriteReg>
 8003f44:	2103      	movs	r1, #3
 8003f46:	2093      	movs	r0, #147	; 0x93
 8003f48:	f7fc fcb6 	bl	80008b8 <LCD_WriteReg>
 8003f4c:	f44f 7188 	mov.w	r1, #272	; 0x110
 8003f50:	2095      	movs	r0, #149	; 0x95
 8003f52:	f7fc fcb1 	bl	80008b8 <LCD_WriteReg>
 8003f56:	2007      	movs	r0, #7
 8003f58:	f240 1173 	movw	r1, #371	; 0x173
 8003f5c:	f7fc fcac 	bl	80008b8 <LCD_WriteReg>
 8003f60:	2032      	movs	r0, #50	; 0x32
 8003f62:	f001 f8e3 	bl	800512c <HAL_Delay>
 8003f66:	f7fd bbfa 	b.w	800175e <LCD_Init+0x3e2>
 8003f6a:	2100      	movs	r1, #0
 8003f6c:	2007      	movs	r0, #7
 8003f6e:	f7fc fca3 	bl	80008b8 <LCD_WriteReg>
 8003f72:	2032      	movs	r0, #50	; 0x32
 8003f74:	f001 f8da 	bl	800512c <HAL_Delay>
 8003f78:	f44f 718e 	mov.w	r1, #284	; 0x11c
 8003f7c:	2012      	movs	r0, #18
 8003f7e:	f7fc fc9b 	bl	80008b8 <LCD_WriteReg>
 8003f82:	2101      	movs	r1, #1
 8003f84:	20a4      	movs	r0, #164	; 0xa4
 8003f86:	f7fc fc97 	bl	80008b8 <LCD_WriteReg>
 8003f8a:	2008      	movs	r0, #8
 8003f8c:	210f      	movs	r1, #15
 8003f8e:	f7fc fc93 	bl	80008b8 <LCD_WriteReg>
 8003f92:	4601      	mov	r1, r0
 8003f94:	200a      	movs	r0, #10
 8003f96:	f7fc fc8f 	bl	80008b8 <LCD_WriteReg>
 8003f9a:	2108      	movs	r1, #8
 8003f9c:	200d      	movs	r0, #13
 8003f9e:	f7fc fc8b 	bl	80008b8 <LCD_WriteReg>
 8003fa2:	f240 7107 	movw	r1, #1799	; 0x707
 8003fa6:	2030      	movs	r0, #48	; 0x30
 8003fa8:	f7fc fc86 	bl	80008b8 <LCD_WriteReg>
 8003fac:	2107      	movs	r1, #7
 8003fae:	2031      	movs	r0, #49	; 0x31
 8003fb0:	f7fc fc82 	bl	80008b8 <LCD_WriteReg>
 8003fb4:	f240 6103 	movw	r1, #1539	; 0x603
 8003fb8:	2032      	movs	r0, #50	; 0x32
 8003fba:	f7fc fc7d 	bl	80008b8 <LCD_WriteReg>
 8003fbe:	f44f 61e0 	mov.w	r1, #1792	; 0x700
 8003fc2:	2033      	movs	r0, #51	; 0x33
 8003fc4:	f7fc fc78 	bl	80008b8 <LCD_WriteReg>
 8003fc8:	f240 2102 	movw	r1, #514	; 0x202
 8003fcc:	2034      	movs	r0, #52	; 0x34
 8003fce:	f7fc fc73 	bl	80008b8 <LCD_WriteReg>
 8003fd2:	2102      	movs	r1, #2
 8003fd4:	2035      	movs	r0, #53	; 0x35
 8003fd6:	f7fc fc6f 	bl	80008b8 <LCD_WriteReg>
 8003fda:	f641 710f 	movw	r1, #7951	; 0x1f0f
 8003fde:	2036      	movs	r0, #54	; 0x36
 8003fe0:	f7fc fc6a 	bl	80008b8 <LCD_WriteReg>
 8003fe4:	f240 7107 	movw	r1, #1799	; 0x707
 8003fe8:	2037      	movs	r0, #55	; 0x37
 8003fea:	f7fc fc65 	bl	80008b8 <LCD_WriteReg>
 8003fee:	2100      	movs	r1, #0
 8003ff0:	2038      	movs	r0, #56	; 0x38
 8003ff2:	f7fc fc61 	bl	80008b8 <LCD_WriteReg>
 8003ff6:	2100      	movs	r1, #0
 8003ff8:	2039      	movs	r0, #57	; 0x39
 8003ffa:	f7fc fc5d 	bl	80008b8 <LCD_WriteReg>
 8003ffe:	f240 7107 	movw	r1, #1799	; 0x707
 8004002:	203a      	movs	r0, #58	; 0x3a
 8004004:	f7fc fc58 	bl	80008b8 <LCD_WriteReg>
 8004008:	2100      	movs	r1, #0
 800400a:	203b      	movs	r0, #59	; 0x3b
 800400c:	f7fc fc54 	bl	80008b8 <LCD_WriteReg>
 8004010:	2107      	movs	r1, #7
 8004012:	203c      	movs	r0, #60	; 0x3c
 8004014:	f7fc fc50 	bl	80008b8 <LCD_WriteReg>
 8004018:	2100      	movs	r1, #0
 800401a:	203d      	movs	r0, #61	; 0x3d
 800401c:	f7fc fc4c 	bl	80008b8 <LCD_WriteReg>
 8004020:	2032      	movs	r0, #50	; 0x32
 8004022:	f001 f883 	bl	800512c <HAL_Delay>
 8004026:	2101      	movs	r1, #1
 8004028:	2007      	movs	r0, #7
 800402a:	f7fc fc45 	bl	80008b8 <LCD_WriteReg>
 800402e:	2101      	movs	r1, #1
 8004030:	2017      	movs	r0, #23
 8004032:	f7fc fc41 	bl	80008b8 <LCD_WriteReg>
 8004036:	2032      	movs	r0, #50	; 0x32
 8004038:	f001 f878 	bl	800512c <HAL_Delay>
 800403c:	f44f 51bd 	mov.w	r1, #6048	; 0x17a0
 8004040:	2010      	movs	r0, #16
 8004042:	f7fc fc39 	bl	80008b8 <LCD_WriteReg>
 8004046:	f240 2117 	movw	r1, #535	; 0x217
 800404a:	2011      	movs	r0, #17
 800404c:	f7fc fc34 	bl	80008b8 <LCD_WriteReg>
 8004050:	f44f 718f 	mov.w	r1, #286	; 0x11e
 8004054:	2012      	movs	r0, #18
 8004056:	f7fc fc2f 	bl	80008b8 <LCD_WriteReg>
 800405a:	f44f 6170 	mov.w	r1, #3840	; 0xf00
 800405e:	2013      	movs	r0, #19
 8004060:	f7fc fc2a 	bl	80008b8 <LCD_WriteReg>
 8004064:	2100      	movs	r1, #0
 8004066:	202a      	movs	r0, #42	; 0x2a
 8004068:	f7fc fc26 	bl	80008b8 <LCD_WriteReg>
 800406c:	210a      	movs	r1, #10
 800406e:	2029      	movs	r0, #41	; 0x29
 8004070:	f7fc fc22 	bl	80008b8 <LCD_WriteReg>
 8004074:	f44f 719f 	mov.w	r1, #318	; 0x13e
 8004078:	2012      	movs	r0, #18
 800407a:	f7fc fc1d 	bl	80008b8 <LCD_WriteReg>
 800407e:	2100      	movs	r1, #0
 8004080:	2050      	movs	r0, #80	; 0x50
 8004082:	f7fc fc19 	bl	80008b8 <LCD_WriteReg>
 8004086:	21ef      	movs	r1, #239	; 0xef
 8004088:	2051      	movs	r0, #81	; 0x51
 800408a:	f7fc fc15 	bl	80008b8 <LCD_WriteReg>
 800408e:	2100      	movs	r1, #0
 8004090:	2052      	movs	r0, #82	; 0x52
 8004092:	f7fc fc11 	bl	80008b8 <LCD_WriteReg>
 8004096:	f240 113f 	movw	r1, #319	; 0x13f
 800409a:	2053      	movs	r0, #83	; 0x53
 800409c:	f7fc fc0c 	bl	80008b8 <LCD_WriteReg>
 80040a0:	f44f 511c 	mov.w	r1, #9984	; 0x2700
 80040a4:	2060      	movs	r0, #96	; 0x60
 80040a6:	f7fc fc07 	bl	80008b8 <LCD_WriteReg>
 80040aa:	2101      	movs	r1, #1
 80040ac:	2061      	movs	r0, #97	; 0x61
 80040ae:	f7fc fc03 	bl	80008b8 <LCD_WriteReg>
 80040b2:	2100      	movs	r1, #0
 80040b4:	206a      	movs	r0, #106	; 0x6a
 80040b6:	f7fc fbff 	bl	80008b8 <LCD_WriteReg>
 80040ba:	2100      	movs	r1, #0
 80040bc:	2080      	movs	r0, #128	; 0x80
 80040be:	f7fc fbfb 	bl	80008b8 <LCD_WriteReg>
 80040c2:	2100      	movs	r1, #0
 80040c4:	2081      	movs	r0, #129	; 0x81
 80040c6:	f7fc fbf7 	bl	80008b8 <LCD_WriteReg>
 80040ca:	2100      	movs	r1, #0
 80040cc:	2082      	movs	r0, #130	; 0x82
 80040ce:	f7fc fbf3 	bl	80008b8 <LCD_WriteReg>
 80040d2:	2100      	movs	r1, #0
 80040d4:	2083      	movs	r0, #131	; 0x83
 80040d6:	f7fc fbef 	bl	80008b8 <LCD_WriteReg>
 80040da:	2100      	movs	r1, #0
 80040dc:	2084      	movs	r0, #132	; 0x84
 80040de:	f7fc fbeb 	bl	80008b8 <LCD_WriteReg>
 80040e2:	2100      	movs	r1, #0
 80040e4:	2085      	movs	r0, #133	; 0x85
 80040e6:	f7fc fbe7 	bl	80008b8 <LCD_WriteReg>
 80040ea:	2113      	movs	r1, #19
 80040ec:	2090      	movs	r0, #144	; 0x90
 80040ee:	f7fc fbe3 	bl	80008b8 <LCD_WriteReg>
 80040f2:	f44f 7140 	mov.w	r1, #768	; 0x300
 80040f6:	2092      	movs	r0, #146	; 0x92
 80040f8:	f7fc fbde 	bl	80008b8 <LCD_WriteReg>
 80040fc:	2105      	movs	r1, #5
 80040fe:	2093      	movs	r0, #147	; 0x93
 8004100:	f7fc fbda 	bl	80008b8 <LCD_WriteReg>
 8004104:	2100      	movs	r1, #0
 8004106:	2095      	movs	r0, #149	; 0x95
 8004108:	f7fc fbd6 	bl	80008b8 <LCD_WriteReg>
 800410c:	2100      	movs	r1, #0
 800410e:	2097      	movs	r0, #151	; 0x97
 8004110:	f7fc fbd2 	bl	80008b8 <LCD_WriteReg>
 8004114:	2100      	movs	r1, #0
 8004116:	2098      	movs	r0, #152	; 0x98
 8004118:	f7fc fbce 	bl	80008b8 <LCD_WriteReg>
 800411c:	f44f 7180 	mov.w	r1, #256	; 0x100
 8004120:	2001      	movs	r0, #1
 8004122:	f7fc fbc9 	bl	80008b8 <LCD_WriteReg>
 8004126:	f44f 61e0 	mov.w	r1, #1792	; 0x700
 800412a:	2002      	movs	r0, #2
 800412c:	f7fc fbc4 	bl	80008b8 <LCD_WriteReg>
 8004130:	f241 0138 	movw	r1, #4152	; 0x1038
 8004134:	2003      	movs	r0, #3
 8004136:	f7fc fbbf 	bl	80008b8 <LCD_WriteReg>
 800413a:	2100      	movs	r1, #0
 800413c:	2004      	movs	r0, #4
 800413e:	f7fc fbbb 	bl	80008b8 <LCD_WriteReg>
 8004142:	2100      	movs	r1, #0
 8004144:	200c      	movs	r0, #12
 8004146:	f7fc fbb7 	bl	80008b8 <LCD_WriteReg>
 800414a:	2100      	movs	r1, #0
 800414c:	200f      	movs	r0, #15
 800414e:	f7fc fbb3 	bl	80008b8 <LCD_WriteReg>
 8004152:	2100      	movs	r1, #0
 8004154:	2020      	movs	r0, #32
 8004156:	f7fc fbaf 	bl	80008b8 <LCD_WriteReg>
 800415a:	2021      	movs	r0, #33	; 0x21
 800415c:	2100      	movs	r1, #0
 800415e:	f7fc fbab 	bl	80008b8 <LCD_WriteReg>
 8004162:	4601      	mov	r1, r0
 8004164:	2007      	movs	r0, #7
 8004166:	f7fc fba7 	bl	80008b8 <LCD_WriteReg>
 800416a:	2014      	movs	r0, #20
 800416c:	f000 ffde 	bl	800512c <HAL_Delay>
 8004170:	2161      	movs	r1, #97	; 0x61
 8004172:	2007      	movs	r0, #7
 8004174:	f7fc fba0 	bl	80008b8 <LCD_WriteReg>
 8004178:	2014      	movs	r0, #20
 800417a:	f000 ffd7 	bl	800512c <HAL_Delay>
 800417e:	2007      	movs	r0, #7
 8004180:	f240 1173 	movw	r1, #371	; 0x173
 8004184:	f7fc fb98 	bl	80008b8 <LCD_WriteReg>
 8004188:	2014      	movs	r0, #20
 800418a:	e6ea      	b.n	8003f62 <LCD_Init+0x2be6>
 800418c:	2100      	movs	r1, #0
 800418e:	4608      	mov	r0, r1
 8004190:	f7fc fb92 	bl	80008b8 <LCD_WriteReg>
 8004194:	4601      	mov	r1, r0
 8004196:	f7fc fb8f 	bl	80008b8 <LCD_WriteReg>
 800419a:	4601      	mov	r1, r0
 800419c:	f7fc fb8c 	bl	80008b8 <LCD_WriteReg>
 80041a0:	4601      	mov	r1, r0
 80041a2:	f7fc fb89 	bl	80008b8 <LCD_WriteReg>
 80041a6:	2101      	movs	r1, #1
 80041a8:	20a4      	movs	r0, #164	; 0xa4
 80041aa:	f7fc fb85 	bl	80008b8 <LCD_WriteReg>
 80041ae:	2014      	movs	r0, #20
 80041b0:	f000 ffbc 	bl	800512c <HAL_Delay>
 80041b4:	f44f 511c 	mov.w	r1, #9984	; 0x2700
 80041b8:	2060      	movs	r0, #96	; 0x60
 80041ba:	f7fc fb7d 	bl	80008b8 <LCD_WriteReg>
 80041be:	f240 2102 	movw	r1, #514	; 0x202
 80041c2:	2008      	movs	r0, #8
 80041c4:	f7fc fb78 	bl	80008b8 <LCD_WriteReg>
 80041c8:	f44f 7105 	mov.w	r1, #532	; 0x214
 80041cc:	2030      	movs	r0, #48	; 0x30
 80041ce:	f7fc fb73 	bl	80008b8 <LCD_WriteReg>
 80041d2:	f243 7115 	movw	r1, #14101	; 0x3715
 80041d6:	2031      	movs	r0, #49	; 0x31
 80041d8:	f7fc fb6e 	bl	80008b8 <LCD_WriteReg>
 80041dc:	f240 6104 	movw	r1, #1540	; 0x604
 80041e0:	2032      	movs	r0, #50	; 0x32
 80041e2:	f7fc fb69 	bl	80008b8 <LCD_WriteReg>
 80041e6:	f640 6116 	movw	r1, #3606	; 0xe16
 80041ea:	2033      	movs	r0, #51	; 0x33
 80041ec:	f7fc fb64 	bl	80008b8 <LCD_WriteReg>
 80041f0:	f242 2111 	movw	r1, #8721	; 0x2211
 80041f4:	2034      	movs	r0, #52	; 0x34
 80041f6:	f7fc fb5f 	bl	80008b8 <LCD_WriteReg>
 80041fa:	f44f 51a8 	mov.w	r1, #5376	; 0x1500
 80041fe:	2035      	movs	r0, #53	; 0x35
 8004200:	f7fc fb5a 	bl	80008b8 <LCD_WriteReg>
 8004204:	f248 5107 	movw	r1, #34055	; 0x8507
 8004208:	2036      	movs	r0, #54	; 0x36
 800420a:	f7fc fb55 	bl	80008b8 <LCD_WriteReg>
 800420e:	f241 4107 	movw	r1, #5127	; 0x1407
 8004212:	2037      	movs	r0, #55	; 0x37
 8004214:	f7fc fb50 	bl	80008b8 <LCD_WriteReg>
 8004218:	f241 4103 	movw	r1, #5123	; 0x1403
 800421c:	2038      	movs	r0, #56	; 0x38
 800421e:	f7fc fb4b 	bl	80008b8 <LCD_WriteReg>
 8004222:	2120      	movs	r1, #32
 8004224:	2039      	movs	r0, #57	; 0x39
 8004226:	f7fc fb47 	bl	80008b8 <LCD_WriteReg>
 800422a:	211a      	movs	r1, #26
 800422c:	2090      	movs	r0, #144	; 0x90
 800422e:	f7fc fb43 	bl	80008b8 <LCD_WriteReg>
 8004232:	2100      	movs	r1, #0
 8004234:	2010      	movs	r0, #16
 8004236:	f7fc fb3f 	bl	80008b8 <LCD_WriteReg>
 800423a:	2107      	movs	r1, #7
 800423c:	2011      	movs	r0, #17
 800423e:	f7fc fb3b 	bl	80008b8 <LCD_WriteReg>
 8004242:	2100      	movs	r1, #0
 8004244:	2012      	movs	r0, #18
 8004246:	f7fc fb37 	bl	80008b8 <LCD_WriteReg>
 800424a:	2100      	movs	r1, #0
 800424c:	2013      	movs	r0, #19
 800424e:	f7fc fb33 	bl	80008b8 <LCD_WriteReg>
 8004252:	2014      	movs	r0, #20
 8004254:	f000 ff6a 	bl	800512c <HAL_Delay>
 8004258:	f44f 61e6 	mov.w	r1, #1840	; 0x730
 800425c:	2010      	movs	r0, #16
 800425e:	f7fc fb2b 	bl	80008b8 <LCD_WriteReg>
 8004262:	f240 1137 	movw	r1, #311	; 0x137
 8004266:	2011      	movs	r0, #17
 8004268:	f7fc fb26 	bl	80008b8 <LCD_WriteReg>
 800426c:	2014      	movs	r0, #20
 800426e:	f000 ff5d 	bl	800512c <HAL_Delay>
 8004272:	f44f 71dc 	mov.w	r1, #440	; 0x1b8
 8004276:	2012      	movs	r0, #18
 8004278:	f7fc fb1e 	bl	80008b8 <LCD_WriteReg>
 800427c:	2014      	movs	r0, #20
 800427e:	f000 ff55 	bl	800512c <HAL_Delay>
 8004282:	f44f 6170 	mov.w	r1, #3840	; 0xf00
 8004286:	2013      	movs	r0, #19
 8004288:	f7fc fb16 	bl	80008b8 <LCD_WriteReg>
 800428c:	2180      	movs	r1, #128	; 0x80
 800428e:	202a      	movs	r0, #42	; 0x2a
 8004290:	f7fc fb12 	bl	80008b8 <LCD_WriteReg>
 8004294:	2148      	movs	r1, #72	; 0x48
 8004296:	2029      	movs	r0, #41	; 0x29
 8004298:	f7fc fb0e 	bl	80008b8 <LCD_WriteReg>
 800429c:	2014      	movs	r0, #20
 800429e:	f000 ff45 	bl	800512c <HAL_Delay>
 80042a2:	f44f 7180 	mov.w	r1, #256	; 0x100
 80042a6:	2001      	movs	r0, #1
 80042a8:	f7fc fb06 	bl	80008b8 <LCD_WriteReg>
 80042ac:	f44f 61e0 	mov.w	r1, #1792	; 0x700
 80042b0:	2002      	movs	r0, #2
 80042b2:	f7fc fb01 	bl	80008b8 <LCD_WriteReg>
 80042b6:	f241 0138 	movw	r1, #4152	; 0x1038
 80042ba:	2003      	movs	r0, #3
 80042bc:	f7fc fafc 	bl	80008b8 <LCD_WriteReg>
 80042c0:	f240 2102 	movw	r1, #514	; 0x202
 80042c4:	2008      	movs	r0, #8
 80042c6:	f7fc faf7 	bl	80008b8 <LCD_WriteReg>
 80042ca:	2100      	movs	r1, #0
 80042cc:	200a      	movs	r0, #10
 80042ce:	f7fc faf3 	bl	80008b8 <LCD_WriteReg>
 80042d2:	2100      	movs	r1, #0
 80042d4:	200c      	movs	r0, #12
 80042d6:	f7fc faef 	bl	80008b8 <LCD_WriteReg>
 80042da:	2100      	movs	r1, #0
 80042dc:	200d      	movs	r0, #13
 80042de:	f7fc faeb 	bl	80008b8 <LCD_WriteReg>
 80042e2:	2130      	movs	r1, #48	; 0x30
 80042e4:	200e      	movs	r0, #14
 80042e6:	f7fc fae7 	bl	80008b8 <LCD_WriteReg>
 80042ea:	2100      	movs	r1, #0
 80042ec:	2050      	movs	r0, #80	; 0x50
 80042ee:	f7fc fae3 	bl	80008b8 <LCD_WriteReg>
 80042f2:	21ef      	movs	r1, #239	; 0xef
 80042f4:	2051      	movs	r0, #81	; 0x51
 80042f6:	f7fc fadf 	bl	80008b8 <LCD_WriteReg>
 80042fa:	2100      	movs	r1, #0
 80042fc:	2052      	movs	r0, #82	; 0x52
 80042fe:	f7fc fadb 	bl	80008b8 <LCD_WriteReg>
 8004302:	f240 113f 	movw	r1, #319	; 0x13f
 8004306:	2053      	movs	r0, #83	; 0x53
 8004308:	f7fc fad6 	bl	80008b8 <LCD_WriteReg>
 800430c:	f44f 511c 	mov.w	r1, #9984	; 0x2700
 8004310:	2060      	movs	r0, #96	; 0x60
 8004312:	f7fc fad1 	bl	80008b8 <LCD_WriteReg>
 8004316:	2101      	movs	r1, #1
 8004318:	2061      	movs	r0, #97	; 0x61
 800431a:	f7fc facd 	bl	80008b8 <LCD_WriteReg>
 800431e:	2100      	movs	r1, #0
 8004320:	206a      	movs	r0, #106	; 0x6a
 8004322:	f7fc fac9 	bl	80008b8 <LCD_WriteReg>
 8004326:	2111      	movs	r1, #17
 8004328:	2090      	movs	r0, #144	; 0x90
 800432a:	f7fc fac5 	bl	80008b8 <LCD_WriteReg>
 800432e:	f44f 61c0 	mov.w	r1, #1536	; 0x600
 8004332:	2092      	movs	r0, #146	; 0x92
 8004334:	f7fc fac0 	bl	80008b8 <LCD_WriteReg>
 8004338:	f240 4102 	movw	r1, #1026	; 0x402
 800433c:	2093      	movs	r0, #147	; 0x93
 800433e:	f7fc fabb 	bl	80008b8 <LCD_WriteReg>
 8004342:	2102      	movs	r1, #2
 8004344:	2094      	movs	r0, #148	; 0x94
 8004346:	f7fc fab7 	bl	80008b8 <LCD_WriteReg>
 800434a:	2014      	movs	r0, #20
 800434c:	f000 feee 	bl	800512c <HAL_Delay>
 8004350:	2101      	movs	r1, #1
 8004352:	2007      	movs	r0, #7
 8004354:	f7fc fab0 	bl	80008b8 <LCD_WriteReg>
 8004358:	2014      	movs	r0, #20
 800435a:	f000 fee7 	bl	800512c <HAL_Delay>
 800435e:	2007      	movs	r0, #7
 8004360:	2161      	movs	r1, #97	; 0x61
 8004362:	f7fc faa9 	bl	80008b8 <LCD_WriteReg>
 8004366:	f240 1173 	movw	r1, #371	; 0x173
 800436a:	f7fc faa5 	bl	80008b8 <LCD_WriteReg>
 800436e:	2100      	movs	r1, #0
 8004370:	2020      	movs	r0, #32
 8004372:	f7fc faa1 	bl	80008b8 <LCD_WriteReg>
 8004376:	2100      	movs	r1, #0
 8004378:	2021      	movs	r0, #33	; 0x21
 800437a:	f7ff bbb1 	b.w	8003ae0 <LCD_Init+0x2764>
 800437e:	2100      	movs	r1, #0
 8004380:	4608      	mov	r0, r1
 8004382:	f7fc fa99 	bl	80008b8 <LCD_WriteReg>
 8004386:	4601      	mov	r1, r0
 8004388:	f7fc fa96 	bl	80008b8 <LCD_WriteReg>
 800438c:	2014      	movs	r0, #20
 800438e:	f000 fecd 	bl	800512c <HAL_Delay>
 8004392:	2100      	movs	r1, #0
 8004394:	4608      	mov	r0, r1
 8004396:	f7fc fa8f 	bl	80008b8 <LCD_WriteReg>
 800439a:	4601      	mov	r1, r0
 800439c:	f7fc fa8c 	bl	80008b8 <LCD_WriteReg>
 80043a0:	4601      	mov	r1, r0
 80043a2:	f7fc fa89 	bl	80008b8 <LCD_WriteReg>
 80043a6:	4601      	mov	r1, r0
 80043a8:	f7fc fa86 	bl	80008b8 <LCD_WriteReg>
 80043ac:	2101      	movs	r1, #1
 80043ae:	20a4      	movs	r0, #164	; 0xa4
 80043b0:	f7fc fa82 	bl	80008b8 <LCD_WriteReg>
 80043b4:	2014      	movs	r0, #20
 80043b6:	f000 feb9 	bl	800512c <HAL_Delay>
 80043ba:	f44f 511c 	mov.w	r1, #9984	; 0x2700
 80043be:	2060      	movs	r0, #96	; 0x60
 80043c0:	f7fc fa7a 	bl	80008b8 <LCD_WriteReg>
 80043c4:	f640 0106 	movw	r1, #2054	; 0x806
 80043c8:	2008      	movs	r0, #8
 80043ca:	f7fc fa75 	bl	80008b8 <LCD_WriteReg>
 80043ce:	f240 7103 	movw	r1, #1795	; 0x703
 80043d2:	2030      	movs	r0, #48	; 0x30
 80043d4:	f7fc fa70 	bl	80008b8 <LCD_WriteReg>
 80043d8:	2101      	movs	r1, #1
 80043da:	2031      	movs	r0, #49	; 0x31
 80043dc:	f7fc fa6c 	bl	80008b8 <LCD_WriteReg>
 80043e0:	2104      	movs	r1, #4
 80043e2:	2032      	movs	r0, #50	; 0x32
 80043e4:	f7fc fa68 	bl	80008b8 <LCD_WriteReg>
 80043e8:	f44f 7181 	mov.w	r1, #258	; 0x102
 80043ec:	2033      	movs	r0, #51	; 0x33
 80043ee:	f7fc fa63 	bl	80008b8 <LCD_WriteReg>
 80043f2:	f44f 7140 	mov.w	r1, #768	; 0x300
 80043f6:	2034      	movs	r0, #52	; 0x34
 80043f8:	f7fc fa5e 	bl	80008b8 <LCD_WriteReg>
 80043fc:	f240 1103 	movw	r1, #259	; 0x103
 8004400:	2035      	movs	r0, #53	; 0x35
 8004402:	f7fc fa59 	bl	80008b8 <LCD_WriteReg>
 8004406:	211f      	movs	r1, #31
 8004408:	2036      	movs	r0, #54	; 0x36
 800440a:	f7fc fa55 	bl	80008b8 <LCD_WriteReg>
 800440e:	f240 7103 	movw	r1, #1795	; 0x703
 8004412:	2037      	movs	r0, #55	; 0x37
 8004414:	f7fc fa50 	bl	80008b8 <LCD_WriteReg>
 8004418:	2101      	movs	r1, #1
 800441a:	2038      	movs	r0, #56	; 0x38
 800441c:	f7fc fa4c 	bl	80008b8 <LCD_WriteReg>
 8004420:	2104      	movs	r1, #4
 8004422:	2039      	movs	r0, #57	; 0x39
 8004424:	f7fc fa48 	bl	80008b8 <LCD_WriteReg>
 8004428:	2115      	movs	r1, #21
 800442a:	2090      	movs	r0, #144	; 0x90
 800442c:	f7fc fa44 	bl	80008b8 <LCD_WriteReg>
 8004430:	f44f 6182 	mov.w	r1, #1040	; 0x410
 8004434:	2010      	movs	r0, #16
 8004436:	f7fc fa3f 	bl	80008b8 <LCD_WriteReg>
 800443a:	f240 2147 	movw	r1, #583	; 0x247
 800443e:	2011      	movs	r0, #17
 8004440:	f7fc fa3a 	bl	80008b8 <LCD_WriteReg>
 8004444:	f44f 71de 	mov.w	r1, #444	; 0x1bc
 8004448:	2012      	movs	r0, #18
 800444a:	f7fc fa35 	bl	80008b8 <LCD_WriteReg>
 800444e:	f44f 6160 	mov.w	r1, #3584	; 0xe00
 8004452:	2013      	movs	r0, #19
 8004454:	f7fc fa30 	bl	80008b8 <LCD_WriteReg>
 8004458:	2078      	movs	r0, #120	; 0x78
 800445a:	f000 fe67 	bl	800512c <HAL_Delay>
 800445e:	f44f 7180 	mov.w	r1, #256	; 0x100
 8004462:	2001      	movs	r0, #1
 8004464:	f7fc fa28 	bl	80008b8 <LCD_WriteReg>
 8004468:	f44f 7100 	mov.w	r1, #512	; 0x200
 800446c:	2002      	movs	r0, #2
 800446e:	f7fc fa23 	bl	80008b8 <LCD_WriteReg>
 8004472:	f241 0130 	movw	r1, #4144	; 0x1030
 8004476:	2003      	movs	r0, #3
 8004478:	f7fc fa1e 	bl	80008b8 <LCD_WriteReg>
 800447c:	2108      	movs	r1, #8
 800447e:	200a      	movs	r0, #10
 8004480:	f7fc fa1a 	bl	80008b8 <LCD_WriteReg>
 8004484:	2100      	movs	r1, #0
 8004486:	200c      	movs	r0, #12
 8004488:	f7fc fa16 	bl	80008b8 <LCD_WriteReg>
 800448c:	2120      	movs	r1, #32
 800448e:	200e      	movs	r0, #14
 8004490:	f7fc fa12 	bl	80008b8 <LCD_WriteReg>
 8004494:	2100      	movs	r1, #0
 8004496:	200f      	movs	r0, #15
 8004498:	f7fc fa0e 	bl	80008b8 <LCD_WriteReg>
 800449c:	2100      	movs	r1, #0
 800449e:	2020      	movs	r0, #32
 80044a0:	f7fc fa0a 	bl	80008b8 <LCD_WriteReg>
 80044a4:	2100      	movs	r1, #0
 80044a6:	2021      	movs	r0, #33	; 0x21
 80044a8:	f7fc fa06 	bl	80008b8 <LCD_WriteReg>
 80044ac:	213d      	movs	r1, #61	; 0x3d
 80044ae:	202a      	movs	r0, #42	; 0x2a
 80044b0:	f7fc fa02 	bl	80008b8 <LCD_WriteReg>
 80044b4:	2014      	movs	r0, #20
 80044b6:	f000 fe39 	bl	800512c <HAL_Delay>
 80044ba:	212d      	movs	r1, #45	; 0x2d
 80044bc:	2029      	movs	r0, #41	; 0x29
 80044be:	f7fc f9fb 	bl	80008b8 <LCD_WriteReg>
 80044c2:	2100      	movs	r1, #0
 80044c4:	2050      	movs	r0, #80	; 0x50
 80044c6:	f7fc f9f7 	bl	80008b8 <LCD_WriteReg>
 80044ca:	f24d 01ef 	movw	r1, #53487	; 0xd0ef
 80044ce:	2051      	movs	r0, #81	; 0x51
 80044d0:	f7fc f9f2 	bl	80008b8 <LCD_WriteReg>
 80044d4:	2100      	movs	r1, #0
 80044d6:	2052      	movs	r0, #82	; 0x52
 80044d8:	f7fc f9ee 	bl	80008b8 <LCD_WriteReg>
 80044dc:	f240 113f 	movw	r1, #319	; 0x13f
 80044e0:	2053      	movs	r0, #83	; 0x53
 80044e2:	f7fc f9e9 	bl	80008b8 <LCD_WriteReg>
 80044e6:	2100      	movs	r1, #0
 80044e8:	2061      	movs	r0, #97	; 0x61
 80044ea:	f7fc f9e5 	bl	80008b8 <LCD_WriteReg>
 80044ee:	2100      	movs	r1, #0
 80044f0:	206a      	movs	r0, #106	; 0x6a
 80044f2:	f7fc f9e1 	bl	80008b8 <LCD_WriteReg>
 80044f6:	f44f 7140 	mov.w	r1, #768	; 0x300
 80044fa:	2092      	movs	r0, #146	; 0x92
 80044fc:	f7fc f9dc 	bl	80008b8 <LCD_WriteReg>
 8004500:	2105      	movs	r1, #5
 8004502:	2093      	movs	r0, #147	; 0x93
 8004504:	f7fc f9d8 	bl	80008b8 <LCD_WriteReg>
 8004508:	f44f 7180 	mov.w	r1, #256	; 0x100
 800450c:	e485      	b.n	8003e1a <LCD_Init+0x2a9e>
 800450e:	2101      	movs	r1, #1
 8004510:	2000      	movs	r0, #0
 8004512:	f7fc f9d1 	bl	80008b8 <LCD_WriteReg>
 8004516:	200a      	movs	r0, #10
 8004518:	f000 fe08 	bl	800512c <HAL_Delay>
 800451c:	f241 6128 	movw	r1, #5672	; 0x1628
 8004520:	2010      	movs	r0, #16
 8004522:	f7fc f9c9 	bl	80008b8 <LCD_WriteReg>
 8004526:	210e      	movs	r1, #14
 8004528:	2012      	movs	r0, #18
 800452a:	f7fc f9c5 	bl	80008b8 <LCD_WriteReg>
 800452e:	f640 2139 	movw	r1, #2617	; 0xa39
 8004532:	2013      	movs	r0, #19
 8004534:	f7fc f9c0 	bl	80008b8 <LCD_WriteReg>
 8004538:	200a      	movs	r0, #10
 800453a:	f000 fdf7 	bl	800512c <HAL_Delay>
 800453e:	2140      	movs	r1, #64	; 0x40
 8004540:	2011      	movs	r0, #17
 8004542:	f7fc f9b9 	bl	80008b8 <LCD_WriteReg>
 8004546:	2150      	movs	r1, #80	; 0x50
 8004548:	2015      	movs	r0, #21
 800454a:	f7fc f9b5 	bl	80008b8 <LCD_WriteReg>
 800454e:	200a      	movs	r0, #10
 8004550:	f000 fdec 	bl	800512c <HAL_Delay>
 8004554:	211e      	movs	r1, #30
 8004556:	2012      	movs	r0, #18
 8004558:	f7fc f9ae 	bl	80008b8 <LCD_WriteReg>
 800455c:	200a      	movs	r0, #10
 800455e:	f000 fde5 	bl	800512c <HAL_Delay>
 8004562:	f44f 51b1 	mov.w	r1, #5664	; 0x1620
 8004566:	2010      	movs	r0, #16
 8004568:	f7fc f9a6 	bl	80008b8 <LCD_WriteReg>
 800456c:	f642 2139 	movw	r1, #10809	; 0x2a39
 8004570:	2013      	movs	r0, #19
 8004572:	f7fc f9a1 	bl	80008b8 <LCD_WriteReg>
 8004576:	200a      	movs	r0, #10
 8004578:	f000 fdd8 	bl	800512c <HAL_Delay>
 800457c:	f44f 7180 	mov.w	r1, #256	; 0x100
 8004580:	2001      	movs	r0, #1
 8004582:	f7fc f999 	bl	80008b8 <LCD_WriteReg>
 8004586:	f44f 7140 	mov.w	r1, #768	; 0x300
 800458a:	2002      	movs	r0, #2
 800458c:	f7fc f994 	bl	80008b8 <LCD_WriteReg>
 8004590:	f241 0138 	movw	r1, #4152	; 0x1038
 8004594:	2003      	movs	r0, #3
 8004596:	f7fc f98f 	bl	80008b8 <LCD_WriteReg>
 800459a:	2008      	movs	r0, #8
 800459c:	f240 2102 	movw	r1, #514	; 0x202
 80045a0:	f7fc f98a 	bl	80008b8 <LCD_WriteReg>
 80045a4:	4601      	mov	r1, r0
 80045a6:	200a      	movs	r0, #10
 80045a8:	f7fc f986 	bl	80008b8 <LCD_WriteReg>
 80045ac:	2100      	movs	r1, #0
 80045ae:	2030      	movs	r0, #48	; 0x30
 80045b0:	f7fc f982 	bl	80008b8 <LCD_WriteReg>
 80045b4:	f240 4102 	movw	r1, #1026	; 0x402
 80045b8:	2031      	movs	r0, #49	; 0x31
 80045ba:	f7fc f97d 	bl	80008b8 <LCD_WriteReg>
 80045be:	f44f 7183 	mov.w	r1, #262	; 0x106
 80045c2:	2032      	movs	r0, #50	; 0x32
 80045c4:	f7fc f978 	bl	80008b8 <LCD_WriteReg>
 80045c8:	f240 5103 	movw	r1, #1283	; 0x503
 80045cc:	2033      	movs	r0, #51	; 0x33
 80045ce:	f7fc f973 	bl	80008b8 <LCD_WriteReg>
 80045d2:	f44f 7182 	mov.w	r1, #260	; 0x104
 80045d6:	2034      	movs	r0, #52	; 0x34
 80045d8:	f7fc f96e 	bl	80008b8 <LCD_WriteReg>
 80045dc:	f240 3101 	movw	r1, #769	; 0x301
 80045e0:	2035      	movs	r0, #53	; 0x35
 80045e2:	f7fc f969 	bl	80008b8 <LCD_WriteReg>
 80045e6:	f240 7107 	movw	r1, #1799	; 0x707
 80045ea:	2036      	movs	r0, #54	; 0x36
 80045ec:	f7fc f964 	bl	80008b8 <LCD_WriteReg>
 80045f0:	f240 3105 	movw	r1, #773	; 0x305
 80045f4:	2037      	movs	r0, #55	; 0x37
 80045f6:	f7fc f95f 	bl	80008b8 <LCD_WriteReg>
 80045fa:	f44f 7102 	mov.w	r1, #520	; 0x208
 80045fe:	2038      	movs	r0, #56	; 0x38
 8004600:	f7fc f95a 	bl	80008b8 <LCD_WriteReg>
 8004604:	f640 710b 	movw	r1, #3851	; 0xf0b
 8004608:	2039      	movs	r0, #57	; 0x39
 800460a:	f7fc f955 	bl	80008b8 <LCD_WriteReg>
 800460e:	2102      	movs	r1, #2
 8004610:	2041      	movs	r0, #65	; 0x41
 8004612:	f7fc f951 	bl	80008b8 <LCD_WriteReg>
 8004616:	f44f 511c 	mov.w	r1, #9984	; 0x2700
 800461a:	2060      	movs	r0, #96	; 0x60
 800461c:	f7fc f94c 	bl	80008b8 <LCD_WriteReg>
 8004620:	2101      	movs	r1, #1
 8004622:	2061      	movs	r0, #97	; 0x61
 8004624:	f7fc f948 	bl	80008b8 <LCD_WriteReg>
 8004628:	f44f 7104 	mov.w	r1, #528	; 0x210
 800462c:	2090      	movs	r0, #144	; 0x90
 800462e:	f7fc f943 	bl	80008b8 <LCD_WriteReg>
 8004632:	f44f 7185 	mov.w	r1, #266	; 0x10a
 8004636:	2092      	movs	r0, #146	; 0x92
 8004638:	f7fc f93e 	bl	80008b8 <LCD_WriteReg>
 800463c:	2104      	movs	r1, #4
 800463e:	2093      	movs	r0, #147	; 0x93
 8004640:	f7fc f93a 	bl	80008b8 <LCD_WriteReg>
 8004644:	f44f 7180 	mov.w	r1, #256	; 0x100
 8004648:	20a0      	movs	r0, #160	; 0xa0
 800464a:	f7fc f935 	bl	80008b8 <LCD_WriteReg>
 800464e:	2007      	movs	r0, #7
 8004650:	2101      	movs	r1, #1
 8004652:	f7fc f931 	bl	80008b8 <LCD_WriteReg>
 8004656:	2121      	movs	r1, #33	; 0x21
 8004658:	f7fc f92e 	bl	80008b8 <LCD_WriteReg>
 800465c:	2123      	movs	r1, #35	; 0x23
 800465e:	f7fc f92b 	bl	80008b8 <LCD_WriteReg>
 8004662:	2133      	movs	r1, #51	; 0x33
 8004664:	f7fc f928 	bl	80008b8 <LCD_WriteReg>
 8004668:	f240 1133 	movw	r1, #307	; 0x133
 800466c:	f7fc f924 	bl	80008b8 <LCD_WriteReg>
 8004670:	2100      	movs	r1, #0
 8004672:	20a0      	movs	r0, #160	; 0xa0
 8004674:	f7ff bbd2 	b.w	8003e1c <LCD_Init+0x2aa0>
 8004678:	2130      	movs	r1, #48	; 0x30
 800467a:	2015      	movs	r0, #21
 800467c:	f7fc f91c 	bl	80008b8 <LCD_WriteReg>
 8004680:	2110      	movs	r1, #16
 8004682:	209a      	movs	r0, #154	; 0x9a
 8004684:	f7fc f918 	bl	80008b8 <LCD_WriteReg>
 8004688:	2120      	movs	r1, #32
 800468a:	2011      	movs	r0, #17
 800468c:	f7fc f914 	bl	80008b8 <LCD_WriteReg>
 8004690:	f243 4128 	movw	r1, #13352	; 0x3428
 8004694:	2010      	movs	r0, #16
 8004696:	f7fc f90f 	bl	80008b8 <LCD_WriteReg>
 800469a:	2102      	movs	r1, #2
 800469c:	2012      	movs	r0, #18
 800469e:	f7fc f90b 	bl	80008b8 <LCD_WriteReg>
 80046a2:	f241 0138 	movw	r1, #4152	; 0x1038
 80046a6:	2013      	movs	r0, #19
 80046a8:	f7fc f906 	bl	80008b8 <LCD_WriteReg>
 80046ac:	2028      	movs	r0, #40	; 0x28
 80046ae:	f000 fd3d 	bl	800512c <HAL_Delay>
 80046b2:	2112      	movs	r1, #18
 80046b4:	4608      	mov	r0, r1
 80046b6:	f7fc f8ff 	bl	80008b8 <LCD_WriteReg>
 80046ba:	2028      	movs	r0, #40	; 0x28
 80046bc:	f000 fd36 	bl	800512c <HAL_Delay>
 80046c0:	f243 4120 	movw	r1, #13344	; 0x3420
 80046c4:	2010      	movs	r0, #16
 80046c6:	f7fc f8f7 	bl	80008b8 <LCD_WriteReg>
 80046ca:	f243 0138 	movw	r1, #12344	; 0x3038
 80046ce:	2013      	movs	r0, #19
 80046d0:	f7fc f8f2 	bl	80008b8 <LCD_WriteReg>
 80046d4:	2046      	movs	r0, #70	; 0x46
 80046d6:	f000 fd29 	bl	800512c <HAL_Delay>
 80046da:	2100      	movs	r1, #0
 80046dc:	2030      	movs	r0, #48	; 0x30
 80046de:	f7fc f8eb 	bl	80008b8 <LCD_WriteReg>
 80046e2:	f240 4102 	movw	r1, #1026	; 0x402
 80046e6:	2031      	movs	r0, #49	; 0x31
 80046e8:	f7fc f8e6 	bl	80008b8 <LCD_WriteReg>
 80046ec:	f240 3107 	movw	r1, #775	; 0x307
 80046f0:	2032      	movs	r0, #50	; 0x32
 80046f2:	f7fc f8e1 	bl	80008b8 <LCD_WriteReg>
 80046f6:	f44f 7141 	mov.w	r1, #772	; 0x304
 80046fa:	2033      	movs	r0, #51	; 0x33
 80046fc:	f7fc f8dc 	bl	80008b8 <LCD_WriteReg>
 8004700:	2104      	movs	r1, #4
 8004702:	2034      	movs	r0, #52	; 0x34
 8004704:	f7fc f8d8 	bl	80008b8 <LCD_WriteReg>
 8004708:	f240 4101 	movw	r1, #1025	; 0x401
 800470c:	2035      	movs	r0, #53	; 0x35
 800470e:	f7fc f8d3 	bl	80008b8 <LCD_WriteReg>
 8004712:	f240 7107 	movw	r1, #1799	; 0x707
 8004716:	2036      	movs	r0, #54	; 0x36
 8004718:	f7fc f8ce 	bl	80008b8 <LCD_WriteReg>
 800471c:	f240 3105 	movw	r1, #773	; 0x305
 8004720:	2037      	movs	r0, #55	; 0x37
 8004722:	f7fc f8c9 	bl	80008b8 <LCD_WriteReg>
 8004726:	f44f 61c2 	mov.w	r1, #1552	; 0x610
 800472a:	2038      	movs	r0, #56	; 0x38
 800472c:	f7fc f8c4 	bl	80008b8 <LCD_WriteReg>
 8004730:	f44f 61c2 	mov.w	r1, #1552	; 0x610
 8004734:	2039      	movs	r0, #57	; 0x39
 8004736:	f7fc f8bf 	bl	80008b8 <LCD_WriteReg>
 800473a:	f44f 7180 	mov.w	r1, #256	; 0x100
 800473e:	2001      	movs	r0, #1
 8004740:	f7fc f8ba 	bl	80008b8 <LCD_WriteReg>
 8004744:	f44f 7140 	mov.w	r1, #768	; 0x300
 8004748:	2002      	movs	r0, #2
 800474a:	f7fc f8b5 	bl	80008b8 <LCD_WriteReg>
 800474e:	f241 0130 	movw	r1, #4144	; 0x1030
 8004752:	2003      	movs	r0, #3
 8004754:	f7fc f8b0 	bl	80008b8 <LCD_WriteReg>
 8004758:	2008      	movs	r0, #8
 800475a:	f640 0108 	movw	r1, #2056	; 0x808
 800475e:	f7fc f8ab 	bl	80008b8 <LCD_WriteReg>
 8004762:	4601      	mov	r1, r0
 8004764:	200a      	movs	r0, #10
 8004766:	f7fc f8a7 	bl	80008b8 <LCD_WriteReg>
 800476a:	f44f 511c 	mov.w	r1, #9984	; 0x2700
 800476e:	2060      	movs	r0, #96	; 0x60
 8004770:	f7fc f8a2 	bl	80008b8 <LCD_WriteReg>
 8004774:	2101      	movs	r1, #1
 8004776:	2061      	movs	r0, #97	; 0x61
 8004778:	f7fc f89e 	bl	80008b8 <LCD_WriteReg>
 800477c:	f44f 719f 	mov.w	r1, #318	; 0x13e
 8004780:	2090      	movs	r0, #144	; 0x90
 8004782:	f7fc f899 	bl	80008b8 <LCD_WriteReg>
 8004786:	f44f 7180 	mov.w	r1, #256	; 0x100
 800478a:	2092      	movs	r0, #146	; 0x92
 800478c:	f7fc f894 	bl	80008b8 <LCD_WriteReg>
 8004790:	f44f 7180 	mov.w	r1, #256	; 0x100
 8004794:	2093      	movs	r0, #147	; 0x93
 8004796:	f7fc f88f 	bl	80008b8 <LCD_WriteReg>
 800479a:	f44f 5140 	mov.w	r1, #12288	; 0x3000
 800479e:	20a0      	movs	r0, #160	; 0xa0
 80047a0:	f7fc f88a 	bl	80008b8 <LCD_WriteReg>
 80047a4:	2110      	movs	r1, #16
 80047a6:	20a3      	movs	r0, #163	; 0xa3
 80047a8:	f7fc f886 	bl	80008b8 <LCD_WriteReg>
 80047ac:	2007      	movs	r0, #7
 80047ae:	2101      	movs	r1, #1
 80047b0:	f7fc f882 	bl	80008b8 <LCD_WriteReg>
 80047b4:	2121      	movs	r1, #33	; 0x21
 80047b6:	f7fc f87f 	bl	80008b8 <LCD_WriteReg>
 80047ba:	2123      	movs	r1, #35	; 0x23
 80047bc:	f7fc f87c 	bl	80008b8 <LCD_WriteReg>
 80047c0:	2133      	movs	r1, #51	; 0x33
 80047c2:	f7fc f879 	bl	80008b8 <LCD_WriteReg>
 80047c6:	f240 1133 	movw	r1, #307	; 0x133
 80047ca:	f7ff bb27 	b.w	8003e1c <LCD_Init+0x2aa0>
 80047ce:	20e2      	movs	r0, #226	; 0xe2
 80047d0:	f44f 7500 	mov.w	r5, #512	; 0x200
 80047d4:	f44f 7880 	mov.w	r8, #256	; 0x100
 80047d8:	f7fc f82c 	bl	8000834 <LCD_WR_REG>
 80047dc:	231d      	movs	r3, #29
 80047de:	4cac      	ldr	r4, [pc, #688]	; (8004a90 <LCD_Init+0x3714>)
 80047e0:	4fac      	ldr	r7, [pc, #688]	; (8004a94 <LCD_Init+0x3718>)
 80047e2:	2680      	movs	r6, #128	; 0x80
 80047e4:	f8c4 8010 	str.w	r8, [r4, #16]
 80047e8:	2204      	movs	r2, #4
 80047ea:	6165      	str	r5, [r4, #20]
 80047ec:	60fb      	str	r3, [r7, #12]
 80047ee:	2302      	movs	r3, #2
 80047f0:	f04f 0a01 	mov.w	sl, #1
 80047f4:	f04f 0b03 	mov.w	fp, #3
 80047f8:	6166      	str	r6, [r4, #20]
 80047fa:	2001      	movs	r0, #1
 80047fc:	6126      	str	r6, [r4, #16]
 80047fe:	6125      	str	r5, [r4, #16]
 8004800:	f8c4 8010 	str.w	r8, [r4, #16]
 8004804:	6165      	str	r5, [r4, #20]
 8004806:	60fb      	str	r3, [r7, #12]
 8004808:	6166      	str	r6, [r4, #20]
 800480a:	6126      	str	r6, [r4, #16]
 800480c:	6125      	str	r5, [r4, #16]
 800480e:	f8c4 8010 	str.w	r8, [r4, #16]
 8004812:	6165      	str	r5, [r4, #20]
 8004814:	60fa      	str	r2, [r7, #12]
 8004816:	6166      	str	r6, [r4, #20]
 8004818:	6126      	str	r6, [r4, #16]
 800481a:	6125      	str	r5, [r4, #16]
 800481c:	f000 fc86 	bl	800512c <HAL_Delay>
 8004820:	20e0      	movs	r0, #224	; 0xe0
 8004822:	f7fc f807 	bl	8000834 <LCD_WR_REG>
 8004826:	f8c4 8010 	str.w	r8, [r4, #16]
 800482a:	200a      	movs	r0, #10
 800482c:	6165      	str	r5, [r4, #20]
 800482e:	f8c7 a00c 	str.w	sl, [r7, #12]
 8004832:	6166      	str	r6, [r4, #20]
 8004834:	6126      	str	r6, [r4, #16]
 8004836:	6125      	str	r5, [r4, #16]
 8004838:	f000 fc78 	bl	800512c <HAL_Delay>
 800483c:	20e0      	movs	r0, #224	; 0xe0
 800483e:	f7fb fff9 	bl	8000834 <LCD_WR_REG>
 8004842:	f8c4 8010 	str.w	r8, [r4, #16]
 8004846:	200c      	movs	r0, #12
 8004848:	6165      	str	r5, [r4, #20]
 800484a:	f8c7 b00c 	str.w	fp, [r7, #12]
 800484e:	6166      	str	r6, [r4, #20]
 8004850:	6126      	str	r6, [r4, #16]
 8004852:	6125      	str	r5, [r4, #16]
 8004854:	f000 fc6a 	bl	800512c <HAL_Delay>
 8004858:	4650      	mov	r0, sl
 800485a:	f7fb ffeb 	bl	8000834 <LCD_WR_REG>
 800485e:	200a      	movs	r0, #10
 8004860:	f000 fc64 	bl	800512c <HAL_Delay>
 8004864:	20e6      	movs	r0, #230	; 0xe6
 8004866:	f7fb ffe5 	bl	8000834 <LCD_WR_REG>
 800486a:	212f      	movs	r1, #47	; 0x2f
 800486c:	f8c4 8010 	str.w	r8, [r4, #16]
 8004870:	6165      	str	r5, [r4, #20]
 8004872:	60f9      	str	r1, [r7, #12]
 8004874:	21ff      	movs	r1, #255	; 0xff
 8004876:	6166      	str	r6, [r4, #20]
 8004878:	20b0      	movs	r0, #176	; 0xb0
 800487a:	6126      	str	r6, [r4, #16]
 800487c:	6125      	str	r5, [r4, #16]
 800487e:	f8c4 8010 	str.w	r8, [r4, #16]
 8004882:	6165      	str	r5, [r4, #20]
 8004884:	60f9      	str	r1, [r7, #12]
 8004886:	6166      	str	r6, [r4, #20]
 8004888:	6126      	str	r6, [r4, #16]
 800488a:	6125      	str	r5, [r4, #16]
 800488c:	f8c4 8010 	str.w	r8, [r4, #16]
 8004890:	6165      	str	r5, [r4, #20]
 8004892:	60f9      	str	r1, [r7, #12]
 8004894:	6166      	str	r6, [r4, #20]
 8004896:	6126      	str	r6, [r4, #16]
 8004898:	6125      	str	r5, [r4, #16]
 800489a:	f7fb ffcb 	bl	8000834 <LCD_WR_REG>
 800489e:	2120      	movs	r1, #32
 80048a0:	f8c4 8010 	str.w	r8, [r4, #16]
 80048a4:	f04f 0900 	mov.w	r9, #0
 80048a8:	6165      	str	r5, [r4, #20]
 80048aa:	60f9      	str	r1, [r7, #12]
 80048ac:	f240 311f 	movw	r1, #799	; 0x31f
 80048b0:	6166      	str	r6, [r4, #20]
 80048b2:	6126      	str	r6, [r4, #16]
 80048b4:	6125      	str	r5, [r4, #16]
 80048b6:	f8c4 8010 	str.w	r8, [r4, #16]
 80048ba:	6165      	str	r5, [r4, #20]
 80048bc:	f8c7 900c 	str.w	r9, [r7, #12]
 80048c0:	6166      	str	r6, [r4, #20]
 80048c2:	6126      	str	r6, [r4, #16]
 80048c4:	6125      	str	r5, [r4, #16]
 80048c6:	f8c4 8010 	str.w	r8, [r4, #16]
 80048ca:	6165      	str	r5, [r4, #20]
 80048cc:	f8c7 b00c 	str.w	fp, [r7, #12]
 80048d0:	6166      	str	r6, [r4, #20]
 80048d2:	6126      	str	r6, [r4, #16]
 80048d4:	6125      	str	r5, [r4, #16]
 80048d6:	f8c4 8010 	str.w	r8, [r4, #16]
 80048da:	6165      	str	r5, [r4, #20]
 80048dc:	60f9      	str	r1, [r7, #12]
 80048de:	f240 11df 	movw	r1, #479	; 0x1df
 80048e2:	6166      	str	r6, [r4, #20]
 80048e4:	20b4      	movs	r0, #180	; 0xb4
 80048e6:	6126      	str	r6, [r4, #16]
 80048e8:	6125      	str	r5, [r4, #16]
 80048ea:	f8c4 8010 	str.w	r8, [r4, #16]
 80048ee:	6165      	str	r5, [r4, #20]
 80048f0:	f8c7 a00c 	str.w	sl, [r7, #12]
 80048f4:	6166      	str	r6, [r4, #20]
 80048f6:	6126      	str	r6, [r4, #16]
 80048f8:	6125      	str	r5, [r4, #16]
 80048fa:	f8c4 8010 	str.w	r8, [r4, #16]
 80048fe:	6165      	str	r5, [r4, #20]
 8004900:	60f9      	str	r1, [r7, #12]
 8004902:	6166      	str	r6, [r4, #20]
 8004904:	6126      	str	r6, [r4, #16]
 8004906:	6125      	str	r5, [r4, #16]
 8004908:	f8c4 8010 	str.w	r8, [r4, #16]
 800490c:	6165      	str	r5, [r4, #20]
 800490e:	f8c7 900c 	str.w	r9, [r7, #12]
 8004912:	6166      	str	r6, [r4, #20]
 8004914:	6126      	str	r6, [r4, #16]
 8004916:	6125      	str	r5, [r4, #16]
 8004918:	f7fb ff8c 	bl	8000834 <LCD_WR_REG>
 800491c:	2204      	movs	r2, #4
 800491e:	f8c4 8010 	str.w	r8, [r4, #16]
 8004922:	6165      	str	r5, [r4, #20]
 8004924:	60fa      	str	r2, [r7, #12]
 8004926:	f240 421f 	movw	r2, #1055	; 0x41f
 800492a:	6166      	str	r6, [r4, #20]
 800492c:	6126      	str	r6, [r4, #16]
 800492e:	6125      	str	r5, [r4, #16]
 8004930:	f8c4 8010 	str.w	r8, [r4, #16]
 8004934:	6165      	str	r5, [r4, #20]
 8004936:	60fa      	str	r2, [r7, #12]
 8004938:	222e      	movs	r2, #46	; 0x2e
 800493a:	6166      	str	r6, [r4, #20]
 800493c:	20b6      	movs	r0, #182	; 0xb6
 800493e:	6126      	str	r6, [r4, #16]
 8004940:	6125      	str	r5, [r4, #16]
 8004942:	f8c4 8010 	str.w	r8, [r4, #16]
 8004946:	6165      	str	r5, [r4, #20]
 8004948:	f8c7 900c 	str.w	r9, [r7, #12]
 800494c:	6166      	str	r6, [r4, #20]
 800494e:	6126      	str	r6, [r4, #16]
 8004950:	6125      	str	r5, [r4, #16]
 8004952:	f8c4 8010 	str.w	r8, [r4, #16]
 8004956:	6165      	str	r5, [r4, #20]
 8004958:	60fa      	str	r2, [r7, #12]
 800495a:	6166      	str	r6, [r4, #20]
 800495c:	6126      	str	r6, [r4, #16]
 800495e:	6125      	str	r5, [r4, #16]
 8004960:	f8c4 8010 	str.w	r8, [r4, #16]
 8004964:	6165      	str	r5, [r4, #20]
 8004966:	f8c7 900c 	str.w	r9, [r7, #12]
 800496a:	6166      	str	r6, [r4, #20]
 800496c:	6126      	str	r6, [r4, #16]
 800496e:	6125      	str	r5, [r4, #16]
 8004970:	f8c4 8010 	str.w	r8, [r4, #16]
 8004974:	6165      	str	r5, [r4, #20]
 8004976:	f8c7 900c 	str.w	r9, [r7, #12]
 800497a:	6166      	str	r6, [r4, #20]
 800497c:	6126      	str	r6, [r4, #16]
 800497e:	6125      	str	r5, [r4, #16]
 8004980:	f8c4 8010 	str.w	r8, [r4, #16]
 8004984:	6165      	str	r5, [r4, #20]
 8004986:	f8c7 900c 	str.w	r9, [r7, #12]
 800498a:	6166      	str	r6, [r4, #20]
 800498c:	6126      	str	r6, [r4, #16]
 800498e:	6125      	str	r5, [r4, #16]
 8004990:	f8c4 8010 	str.w	r8, [r4, #16]
 8004994:	6165      	str	r5, [r4, #20]
 8004996:	f8c7 900c 	str.w	r9, [r7, #12]
 800499a:	6166      	str	r6, [r4, #20]
 800499c:	6126      	str	r6, [r4, #16]
 800499e:	6125      	str	r5, [r4, #16]
 80049a0:	f7fb ff48 	bl	8000834 <LCD_WR_REG>
 80049a4:	2302      	movs	r3, #2
 80049a6:	f8c4 8010 	str.w	r8, [r4, #16]
 80049aa:	6165      	str	r5, [r4, #20]
 80049ac:	60fb      	str	r3, [r7, #12]
 80049ae:	f44f 7303 	mov.w	r3, #524	; 0x20c
 80049b2:	6166      	str	r6, [r4, #20]
 80049b4:	6126      	str	r6, [r4, #16]
 80049b6:	6125      	str	r5, [r4, #16]
 80049b8:	f8c4 8010 	str.w	r8, [r4, #16]
 80049bc:	6165      	str	r5, [r4, #20]
 80049be:	60fb      	str	r3, [r7, #12]
 80049c0:	2317      	movs	r3, #23
 80049c2:	6166      	str	r6, [r4, #20]
 80049c4:	6126      	str	r6, [r4, #16]
 80049c6:	6125      	str	r5, [r4, #16]
 80049c8:	f8c4 8010 	str.w	r8, [r4, #16]
 80049cc:	6165      	str	r5, [r4, #20]
 80049ce:	f8c7 900c 	str.w	r9, [r7, #12]
 80049d2:	6166      	str	r6, [r4, #20]
 80049d4:	6126      	str	r6, [r4, #16]
 80049d6:	6125      	str	r5, [r4, #16]
 80049d8:	f8c4 8010 	str.w	r8, [r4, #16]
 80049dc:	6165      	str	r5, [r4, #20]
 80049de:	60fb      	str	r3, [r7, #12]
 80049e0:	2315      	movs	r3, #21
 80049e2:	6166      	str	r6, [r4, #20]
 80049e4:	20f0      	movs	r0, #240	; 0xf0
 80049e6:	6126      	str	r6, [r4, #16]
 80049e8:	6125      	str	r5, [r4, #16]
 80049ea:	f8c4 8010 	str.w	r8, [r4, #16]
 80049ee:	6165      	str	r5, [r4, #20]
 80049f0:	60fb      	str	r3, [r7, #12]
 80049f2:	6166      	str	r6, [r4, #20]
 80049f4:	6126      	str	r6, [r4, #16]
 80049f6:	6125      	str	r5, [r4, #16]
 80049f8:	f8c4 8010 	str.w	r8, [r4, #16]
 80049fc:	6165      	str	r5, [r4, #20]
 80049fe:	f8c7 900c 	str.w	r9, [r7, #12]
 8004a02:	6166      	str	r6, [r4, #20]
 8004a04:	6126      	str	r6, [r4, #16]
 8004a06:	6125      	str	r5, [r4, #16]
 8004a08:	f8c4 8010 	str.w	r8, [r4, #16]
 8004a0c:	6165      	str	r5, [r4, #20]
 8004a0e:	f8c7 900c 	str.w	r9, [r7, #12]
 8004a12:	6166      	str	r6, [r4, #20]
 8004a14:	6126      	str	r6, [r4, #16]
 8004a16:	6125      	str	r5, [r4, #16]
 8004a18:	f7fb ff0c 	bl	8000834 <LCD_WR_REG>
 8004a1c:	f8c4 8010 	str.w	r8, [r4, #16]
 8004a20:	2029      	movs	r0, #41	; 0x29
 8004a22:	6165      	str	r5, [r4, #20]
 8004a24:	f8c7 b00c 	str.w	fp, [r7, #12]
 8004a28:	6166      	str	r6, [r4, #20]
 8004a2a:	6126      	str	r6, [r4, #16]
 8004a2c:	6125      	str	r5, [r4, #16]
 8004a2e:	f7fb ff01 	bl	8000834 <LCD_WR_REG>
 8004a32:	20d0      	movs	r0, #208	; 0xd0
 8004a34:	f7fb fefe 	bl	8000834 <LCD_WR_REG>
 8004a38:	f8c4 8010 	str.w	r8, [r4, #16]
 8004a3c:	20be      	movs	r0, #190	; 0xbe
 8004a3e:	6165      	str	r5, [r4, #20]
 8004a40:	f8c7 900c 	str.w	r9, [r7, #12]
 8004a44:	6166      	str	r6, [r4, #20]
 8004a46:	6126      	str	r6, [r4, #16]
 8004a48:	6125      	str	r5, [r4, #16]
 8004a4a:	f7fb fef3 	bl	8000834 <LCD_WR_REG>
 8004a4e:	2305      	movs	r3, #5
 8004a50:	f8c4 8010 	str.w	r8, [r4, #16]
 8004a54:	6165      	str	r5, [r4, #20]
 8004a56:	60fb      	str	r3, [r7, #12]
 8004a58:	23fe      	movs	r3, #254	; 0xfe
 8004a5a:	6166      	str	r6, [r4, #20]
 8004a5c:	20b8      	movs	r0, #184	; 0xb8
 8004a5e:	6126      	str	r6, [r4, #16]
 8004a60:	6125      	str	r5, [r4, #16]
 8004a62:	f8c4 8010 	str.w	r8, [r4, #16]
 8004a66:	6165      	str	r5, [r4, #20]
 8004a68:	60fb      	str	r3, [r7, #12]
 8004a6a:	6166      	str	r6, [r4, #20]
 8004a6c:	6126      	str	r6, [r4, #16]
 8004a6e:	6125      	str	r5, [r4, #16]
 8004a70:	f8c4 8010 	str.w	r8, [r4, #16]
 8004a74:	6165      	str	r5, [r4, #20]
 8004a76:	f8c7 a00c 	str.w	sl, [r7, #12]
 8004a7a:	6166      	str	r6, [r4, #20]
 8004a7c:	6126      	str	r6, [r4, #16]
 8004a7e:	6125      	str	r5, [r4, #16]
 8004a80:	f8c4 8010 	str.w	r8, [r4, #16]
 8004a84:	6165      	str	r5, [r4, #20]
 8004a86:	f8c7 900c 	str.w	r9, [r7, #12]
 8004a8a:	6166      	str	r6, [r4, #20]
 8004a8c:	6126      	str	r6, [r4, #16]
 8004a8e:	e003      	b.n	8004a98 <LCD_Init+0x371c>
 8004a90:	40011000 	.word	0x40011000
 8004a94:	40010c00 	.word	0x40010c00
 8004a98:	6125      	str	r5, [r4, #16]
 8004a9a:	f8c4 8010 	str.w	r8, [r4, #16]
 8004a9e:	6165      	str	r5, [r4, #20]
 8004aa0:	f8c7 900c 	str.w	r9, [r7, #12]
 8004aa4:	6166      	str	r6, [r4, #20]
 8004aa6:	6126      	str	r6, [r4, #16]
 8004aa8:	6125      	str	r5, [r4, #16]
 8004aaa:	f8c4 8010 	str.w	r8, [r4, #16]
 8004aae:	6165      	str	r5, [r4, #20]
 8004ab0:	f8c7 900c 	str.w	r9, [r7, #12]
 8004ab4:	6166      	str	r6, [r4, #20]
 8004ab6:	6126      	str	r6, [r4, #16]
 8004ab8:	6125      	str	r5, [r4, #16]
 8004aba:	f7fb febb 	bl	8000834 <LCD_WR_REG>
 8004abe:	f8c4 8010 	str.w	r8, [r4, #16]
 8004ac2:	20ba      	movs	r0, #186	; 0xba
 8004ac4:	6165      	str	r5, [r4, #20]
 8004ac6:	f8c7 b00c 	str.w	fp, [r7, #12]
 8004aca:	6166      	str	r6, [r4, #20]
 8004acc:	6126      	str	r6, [r4, #16]
 8004ace:	6125      	str	r5, [r4, #16]
 8004ad0:	f8c4 8010 	str.w	r8, [r4, #16]
 8004ad4:	6165      	str	r5, [r4, #20]
 8004ad6:	f8c7 a00c 	str.w	sl, [r7, #12]
 8004ada:	6166      	str	r6, [r4, #20]
 8004adc:	6126      	str	r6, [r4, #16]
 8004ade:	6125      	str	r5, [r4, #16]
 8004ae0:	f7fb fea8 	bl	8000834 <LCD_WR_REG>
 8004ae4:	f8c4 8010 	str.w	r8, [r4, #16]
 8004ae8:	2064      	movs	r0, #100	; 0x64
 8004aea:	6165      	str	r5, [r4, #20]
 8004aec:	f8c7 a00c 	str.w	sl, [r7, #12]
 8004af0:	6166      	str	r6, [r4, #20]
 8004af2:	6126      	str	r6, [r4, #16]
 8004af4:	6125      	str	r5, [r4, #16]
 8004af6:	f7fc fb0f 	bl	8001118 <LCD_SSD_BackLightSet>
 8004afa:	f7fc be30 	b.w	800175e <LCD_Init+0x3e2>
 8004afe:	bf00      	nop

08004b00 <LCD_Fill>:
 8004b00:	e92d 4ff0 	stmdb	sp!, {r4, r5, r6, r7, r8, r9, sl, fp, lr}
 8004b04:	4698      	mov	r8, r3
 8004b06:	f646 0304 	movw	r3, #26628	; 0x6804
 8004b0a:	4e2a      	ldr	r6, [pc, #168]	; (8004bb4 <LCD_Fill+0xb4>)
 8004b0c:	460d      	mov	r5, r1
 8004b0e:	88b1      	ldrh	r1, [r6, #4]
 8004b10:	b085      	sub	sp, #20
 8004b12:	4299      	cmp	r1, r3
 8004b14:	4614      	mov	r4, r2
 8004b16:	4607      	mov	r7, r0
 8004b18:	f8bd 2038 	ldrh.w	r2, [sp, #56]	; 0x38
 8004b1c:	d123      	bne.n	8004b66 <LCD_Fill+0x66>
 8004b1e:	f896 b006 	ldrb.w	fp, [r6, #6]
 8004b22:	f1bb 0f01 	cmp.w	fp, #1
 8004b26:	d11e      	bne.n	8004b66 <LCD_Fill+0x66>
 8004b28:	2300      	movs	r3, #0
 8004b2a:	f04f 092a 	mov.w	r9, #42	; 0x2a
 8004b2e:	f04f 0a2b 	mov.w	sl, #43	; 0x2b
 8004b32:	8831      	ldrh	r1, [r6, #0]
 8004b34:	71b3      	strb	r3, [r6, #6]
 8004b36:	3901      	subs	r1, #1
 8004b38:	b289      	uxth	r1, r1
 8004b3a:	1a0b      	subs	r3, r1, r0
 8004b3c:	1b09      	subs	r1, r1, r4
 8004b3e:	f8a6 900a 	strh.w	r9, [r6, #10]
 8004b42:	f8a6 a00c 	strh.w	sl, [r6, #12]
 8004b46:	4628      	mov	r0, r5
 8004b48:	9200      	str	r2, [sp, #0]
 8004b4a:	b29b      	uxth	r3, r3
 8004b4c:	4642      	mov	r2, r8
 8004b4e:	b289      	uxth	r1, r1
 8004b50:	f7ff ffd6 	bl	8004b00 <LCD_Fill>
 8004b54:	f886 b006 	strb.w	fp, [r6, #6]
 8004b58:	f8a6 a00a 	strh.w	sl, [r6, #10]
 8004b5c:	f8a6 900c 	strh.w	r9, [r6, #12]
 8004b60:	b005      	add	sp, #20
 8004b62:	e8bd 8ff0 	ldmia.w	sp!, {r4, r5, r6, r7, r8, r9, sl, fp, pc}
 8004b66:	3401      	adds	r4, #1
 8004b68:	1be4      	subs	r4, r4, r7
 8004b6a:	4e13      	ldr	r6, [pc, #76]	; (8004bb8 <LCD_Fill+0xb8>)
 8004b6c:	f8df 904c 	ldr.w	r9, [pc, #76]	; 8004bbc <LCD_Fill+0xbc>
 8004b70:	b2a4      	uxth	r4, r4
 8004b72:	4545      	cmp	r5, r8
 8004b74:	d8f4      	bhi.n	8004b60 <LCD_Fill+0x60>
 8004b76:	4629      	mov	r1, r5
 8004b78:	4638      	mov	r0, r7
 8004b7a:	9203      	str	r2, [sp, #12]
 8004b7c:	f7fb fed2 	bl	8000924 <LCD_SetCursor>
 8004b80:	f7fb feb8 	bl	80008f4 <LCD_WriteRAM_Prepare>
 8004b84:	2300      	movs	r3, #0
 8004b86:	f44f 7e80 	mov.w	lr, #256	; 0x100
 8004b8a:	f44f 7100 	mov.w	r1, #512	; 0x200
 8004b8e:	2080      	movs	r0, #128	; 0x80
 8004b90:	9a03      	ldr	r2, [sp, #12]
 8004b92:	fa1f fc83 	uxth.w	ip, r3
 8004b96:	4564      	cmp	r4, ip
 8004b98:	d802      	bhi.n	8004ba0 <LCD_Fill+0xa0>
 8004b9a:	3501      	adds	r5, #1
 8004b9c:	b2ad      	uxth	r5, r5
 8004b9e:	e7e8      	b.n	8004b72 <LCD_Fill+0x72>
 8004ba0:	f8c6 e010 	str.w	lr, [r6, #16]
 8004ba4:	3301      	adds	r3, #1
 8004ba6:	6171      	str	r1, [r6, #20]
 8004ba8:	f8c9 200c 	str.w	r2, [r9, #12]
 8004bac:	6170      	str	r0, [r6, #20]
 8004bae:	6130      	str	r0, [r6, #16]
 8004bb0:	6131      	str	r1, [r6, #16]
 8004bb2:	e7ee      	b.n	8004b92 <LCD_Fill+0x92>
 8004bb4:	2000007e 	.word	0x2000007e
 8004bb8:	40011000 	.word	0x40011000
 8004bbc:	40010c00 	.word	0x40010c00

08004bc0 <LCD_DrawLine>:
 8004bc0:	e92d 4ff0 	stmdb	sp!, {r4, r5, r6, r7, r8, r9, sl, fp, lr}
 8004bc4:	461d      	mov	r5, r3
 8004bc6:	eba2 0800 	sub.w	r8, r2, r0
 8004bca:	f1b8 0f00 	cmp.w	r8, #0
 8004bce:	4604      	mov	r4, r0
 8004bd0:	460b      	mov	r3, r1
 8004bd2:	b085      	sub	sp, #20
 8004bd4:	eba5 0901 	sub.w	r9, r5, r1
 8004bd8:	dc1d      	bgt.n	8004c16 <LCD_DrawLine+0x56>
 8004bda:	d01e      	beq.n	8004c1a <LCD_DrawLine+0x5a>
 8004bdc:	eba0 0802 	sub.w	r8, r0, r2
 8004be0:	f04f 32ff 	mov.w	r2, #4294967295
 8004be4:	f1b9 0f00 	cmp.w	r9, #0
 8004be8:	dc19      	bgt.n	8004c1e <LCD_DrawLine+0x5e>
 8004bea:	d01b      	beq.n	8004c24 <LCD_DrawLine+0x64>
 8004bec:	f04f 3bff 	mov.w	fp, #4294967295
 8004bf0:	eba1 0905 	sub.w	r9, r1, r5
 8004bf4:	2500      	movs	r5, #0
 8004bf6:	45c8      	cmp	r8, r9
 8004bf8:	46c2      	mov	sl, r8
 8004bfa:	bfb8      	it	lt
 8004bfc:	46ca      	movlt	sl, r9
 8004bfe:	462f      	mov	r7, r5
 8004c00:	462e      	mov	r6, r5
 8004c02:	f10a 0101 	add.w	r1, sl, #1
 8004c06:	9101      	str	r1, [sp, #4]
 8004c08:	9801      	ldr	r0, [sp, #4]
 8004c0a:	b2a9      	uxth	r1, r5
 8004c0c:	4281      	cmp	r1, r0
 8004c0e:	dd0b      	ble.n	8004c28 <LCD_DrawLine+0x68>
 8004c10:	b005      	add	sp, #20
 8004c12:	e8bd 8ff0 	ldmia.w	sp!, {r4, r5, r6, r7, r8, r9, sl, fp, pc}
 8004c16:	2201      	movs	r2, #1
 8004c18:	e7e4      	b.n	8004be4 <LCD_DrawLine+0x24>
 8004c1a:	4642      	mov	r2, r8
 8004c1c:	e7e2      	b.n	8004be4 <LCD_DrawLine+0x24>
 8004c1e:	f04f 0b01 	mov.w	fp, #1
 8004c22:	e7e7      	b.n	8004bf4 <LCD_DrawLine+0x34>
 8004c24:	46cb      	mov	fp, r9
 8004c26:	e7e5      	b.n	8004bf4 <LCD_DrawLine+0x34>
 8004c28:	b299      	uxth	r1, r3
 8004c2a:	b2a0      	uxth	r0, r4
 8004c2c:	4446      	add	r6, r8
 8004c2e:	9203      	str	r2, [sp, #12]
 8004c30:	9302      	str	r3, [sp, #8]
 8004c32:	444f      	add	r7, r9
 8004c34:	f7fc f900 	bl	8000e38 <LCD_DrawPoint>
 8004c38:	e9dd 3202 	ldrd	r3, r2, [sp, #8]
 8004c3c:	45b2      	cmp	sl, r6
 8004c3e:	bfbc      	itt	lt
 8004c40:	eba6 060a 	sublt.w	r6, r6, sl
 8004c44:	18a4      	addlt	r4, r4, r2
 8004c46:	45ba      	cmp	sl, r7
 8004c48:	bfbc      	itt	lt
 8004c4a:	eba7 070a 	sublt.w	r7, r7, sl
 8004c4e:	445b      	addlt	r3, fp
 8004c50:	3501      	adds	r5, #1
 8004c52:	e7d9      	b.n	8004c08 <LCD_DrawLine+0x48>

08004c54 <LCD_DrawRectangle>:
 8004c54:	e92d 41f0 	stmdb	sp!, {r4, r5, r6, r7, r8, lr}
 8004c58:	461c      	mov	r4, r3
 8004c5a:	4606      	mov	r6, r0
 8004c5c:	460d      	mov	r5, r1
 8004c5e:	4617      	mov	r7, r2
 8004c60:	460b      	mov	r3, r1
 8004c62:	f7ff ffad 	bl	8004bc0 <LCD_DrawLine>
 8004c66:	4623      	mov	r3, r4
 8004c68:	4632      	mov	r2, r6
 8004c6a:	4629      	mov	r1, r5
 8004c6c:	4630      	mov	r0, r6
 8004c6e:	f7ff ffa7 	bl	8004bc0 <LCD_DrawLine>
 8004c72:	4623      	mov	r3, r4
 8004c74:	463a      	mov	r2, r7
 8004c76:	4621      	mov	r1, r4
 8004c78:	4630      	mov	r0, r6
 8004c7a:	f7ff ffa1 	bl	8004bc0 <LCD_DrawLine>
 8004c7e:	4623      	mov	r3, r4
 8004c80:	463a      	mov	r2, r7
 8004c82:	4629      	mov	r1, r5
 8004c84:	4638      	mov	r0, r7
 8004c86:	e8bd 41f0 	ldmia.w	sp!, {r4, r5, r6, r7, r8, lr}
 8004c8a:	f7ff bf99 	b.w	8004bc0 <LCD_DrawLine>
	...

08004c90 <LCD_ShowChar>:
 8004c90:	e92d 4ff0 	stmdb	sp!, {r4, r5, r6, r7, r8, r9, sl, fp, lr}
 8004c94:	461c      	mov	r4, r3
 8004c96:	b087      	sub	sp, #28
 8004c98:	f89d 3040 	ldrb.w	r3, [sp, #64]	; 0x40
 8004c9c:	460f      	mov	r7, r1
 8004c9e:	9305      	str	r3, [sp, #20]
 8004ca0:	f014 0307 	ands.w	r3, r4, #7
 8004ca4:	bf18      	it	ne
 8004ca6:	2301      	movne	r3, #1
 8004ca8:	0861      	lsrs	r1, r4, #1
 8004caa:	eb03 03d4 	add.w	r3, r3, r4, lsr #3
 8004cae:	434b      	muls	r3, r1
 8004cb0:	2124      	movs	r1, #36	; 0x24
 8004cb2:	b2db      	uxtb	r3, r3
 8004cb4:	9302      	str	r3, [sp, #8]
 8004cb6:	3a20      	subs	r2, #32
 8004cb8:	4b29      	ldr	r3, [pc, #164]	; (8004d60 <LCD_ShowChar+0xd0>)
 8004cba:	b2d2      	uxtb	r2, r2
 8004cbc:	fb01 3302 	mla	r3, r1, r2, r3
 8004cc0:	210c      	movs	r1, #12
 8004cc2:	4681      	mov	r9, r0
 8004cc4:	46bb      	mov	fp, r7
 8004cc6:	2600      	movs	r6, #0
 8004cc8:	9304      	str	r3, [sp, #16]
 8004cca:	4b26      	ldr	r3, [pc, #152]	; (8004d64 <LCD_ShowChar+0xd4>)
 8004ccc:	eb03 1302 	add.w	r3, r3, r2, lsl #4
 8004cd0:	9301      	str	r3, [sp, #4]
 8004cd2:	4b25      	ldr	r3, [pc, #148]	; (8004d68 <LCD_ShowChar+0xd8>)
 8004cd4:	fb01 3302 	mla	r3, r1, r2, r3
 8004cd8:	9303      	str	r3, [sp, #12]
 8004cda:	9a02      	ldr	r2, [sp, #8]
 8004cdc:	b2f3      	uxtb	r3, r6
 8004cde:	429a      	cmp	r2, r3
 8004ce0:	d802      	bhi.n	8004ce8 <LCD_ShowChar+0x58>
 8004ce2:	b007      	add	sp, #28
 8004ce4:	e8bd 8ff0 	ldmia.w	sp!, {r4, r5, r6, r7, r8, r9, sl, fp, pc}
 8004ce8:	2c0c      	cmp	r4, #12
 8004cea:	d129      	bne.n	8004d40 <LCD_ShowChar+0xb0>
 8004cec:	9b03      	ldr	r3, [sp, #12]
 8004cee:	5d9d      	ldrb	r5, [r3, r6]
 8004cf0:	f8df 8078 	ldr.w	r8, [pc, #120]	; 8004d6c <LCD_ShowChar+0xdc>
 8004cf4:	f10b 0308 	add.w	r3, fp, #8
 8004cf8:	fa1f fa83 	uxth.w	sl, r3
 8004cfc:	062b      	lsls	r3, r5, #24
 8004cfe:	d527      	bpl.n	8004d50 <LCD_ShowChar+0xc0>
 8004d00:	4b1b      	ldr	r3, [pc, #108]	; (8004d70 <LCD_ShowChar+0xe0>)
 8004d02:	4659      	mov	r1, fp
 8004d04:	4648      	mov	r0, r9
 8004d06:	881a      	ldrh	r2, [r3, #0]
 8004d08:	f7fc f8b2 	bl	8000e70 <LCD_Fast_DrawPoint>
 8004d0c:	f8b8 2002 	ldrh.w	r2, [r8, #2]
 8004d10:	f10b 0101 	add.w	r1, fp, #1
 8004d14:	fa1f fb81 	uxth.w	fp, r1
 8004d18:	006d      	lsls	r5, r5, #1
 8004d1a:	455a      	cmp	r2, fp
 8004d1c:	b2ed      	uxtb	r5, r5
 8004d1e:	d9e0      	bls.n	8004ce2 <LCD_ShowChar+0x52>
 8004d20:	ebab 0207 	sub.w	r2, fp, r7
 8004d24:	42a2      	cmp	r2, r4
 8004d26:	d118      	bne.n	8004d5a <LCD_ShowChar+0xca>
 8004d28:	f8b8 3000 	ldrh.w	r3, [r8]
 8004d2c:	f109 0001 	add.w	r0, r9, #1
 8004d30:	fa1f f980 	uxth.w	r9, r0
 8004d34:	454b      	cmp	r3, r9
 8004d36:	d9d4      	bls.n	8004ce2 <LCD_ShowChar+0x52>
 8004d38:	46ba      	mov	sl, r7
 8004d3a:	46d3      	mov	fp, sl
 8004d3c:	3601      	adds	r6, #1
 8004d3e:	e7cc      	b.n	8004cda <LCD_ShowChar+0x4a>
 8004d40:	2c10      	cmp	r4, #16
 8004d42:	d101      	bne.n	8004d48 <LCD_ShowChar+0xb8>
 8004d44:	9b01      	ldr	r3, [sp, #4]
 8004d46:	e7d2      	b.n	8004cee <LCD_ShowChar+0x5e>
 8004d48:	2c18      	cmp	r4, #24
 8004d4a:	d1ca      	bne.n	8004ce2 <LCD_ShowChar+0x52>
 8004d4c:	9b04      	ldr	r3, [sp, #16]
 8004d4e:	e7ce      	b.n	8004cee <LCD_ShowChar+0x5e>
 8004d50:	9b05      	ldr	r3, [sp, #20]
 8004d52:	2b00      	cmp	r3, #0
 8004d54:	d1da      	bne.n	8004d0c <LCD_ShowChar+0x7c>
 8004d56:	4b07      	ldr	r3, [pc, #28]	; (8004d74 <LCD_ShowChar+0xe4>)
 8004d58:	e7d3      	b.n	8004d02 <LCD_ShowChar+0x72>
 8004d5a:	45da      	cmp	sl, fp
 8004d5c:	d1ce      	bne.n	8004cfc <LCD_ShowChar+0x6c>
 8004d5e:	e7ec      	b.n	8004d3a <LCD_ShowChar+0xaa>
 8004d60:	08006ca7 	.word	0x08006ca7
 8004d64:	080066b7 	.word	0x080066b7
 8004d68:	08006243 	.word	0x08006243
 8004d6c:	2000007e 	.word	0x2000007e
 8004d70:	2000007c 	.word	0x2000007c
 8004d74:	20000000 	.word	0x20000000

08004d78 <LCD_ShowString>:
 8004d78:	e92d 4ff0 	stmdb	sp!, {r4, r5, r6, r7, r8, r9, sl, fp, lr}
 8004d7c:	461f      	mov	r7, r3
 8004d7e:	4604      	mov	r4, r0
 8004d80:	460d      	mov	r5, r1
 8004d82:	f04f 0b00 	mov.w	fp, #0
 8004d86:	b085      	sub	sp, #20
 8004d88:	4402      	add	r2, r0
 8004d8a:	f89d 3038 	ldrb.w	r3, [sp, #56]	; 0x38
 8004d8e:	b296      	uxth	r6, r2
 8004d90:	9a0f      	ldr	r2, [sp, #60]	; 0x3c
 8004d92:	440f      	add	r7, r1
 8004d94:	b2bf      	uxth	r7, r7
 8004d96:	ea4f 0953 	mov.w	r9, r3, lsr #1
 8004d9a:	f102 38ff 	add.w	r8, r2, #4294967295
 8004d9e:	fa5f fa80 	uxtb.w	sl, r0
 8004da2:	f818 2f01 	ldrb.w	r2, [r8, #1]!
 8004da6:	f1a2 0120 	sub.w	r1, r2, #32
 8004daa:	295e      	cmp	r1, #94	; 0x5e
 8004dac:	d902      	bls.n	8004db4 <LCD_ShowString+0x3c>
 8004dae:	b005      	add	sp, #20
 8004db0:	e8bd 8ff0 	ldmia.w	sp!, {r4, r5, r6, r7, r8, r9, sl, fp, pc}
 8004db4:	42b4      	cmp	r4, r6
 8004db6:	bf22      	ittt	cs
 8004db8:	18ed      	addcs	r5, r5, r3
 8004dba:	b2ad      	uxthcs	r5, r5
 8004dbc:	4654      	movcs	r4, sl
 8004dbe:	42bd      	cmp	r5, r7
 8004dc0:	d2f5      	bcs.n	8004dae <LCD_ShowString+0x36>
 8004dc2:	4620      	mov	r0, r4
 8004dc4:	4629      	mov	r1, r5
 8004dc6:	f8cd b000 	str.w	fp, [sp]
 8004dca:	444c      	add	r4, r9
 8004dcc:	9303      	str	r3, [sp, #12]
 8004dce:	b2a4      	uxth	r4, r4
 8004dd0:	f7ff ff5e 	bl	8004c90 <LCD_ShowChar>
 8004dd4:	9b03      	ldr	r3, [sp, #12]
 8004dd6:	e7e4      	b.n	8004da2 <LCD_ShowString+0x2a>

08004dd8 <SystemClock_Config>:
 8004dd8:	b510      	push	{r4, lr}
 8004dda:	b090      	sub	sp, #64	; 0x40
 8004ddc:	2214      	movs	r2, #20
 8004dde:	2100      	movs	r1, #0
 8004de0:	a808      	add	r0, sp, #32
 8004de2:	f000 fd85 	bl	80058f0 <memset>
 8004de6:	2214      	movs	r2, #20
 8004de8:	2100      	movs	r1, #0
 8004dea:	a801      	add	r0, sp, #4
 8004dec:	f000 fd80 	bl	80058f0 <memset>
 8004df0:	2402      	movs	r4, #2
 8004df2:	f44f 3380 	mov.w	r3, #65536	; 0x10000
 8004df6:	2201      	movs	r2, #1
 8004df8:	e9cd 430d 	strd	r4, r3, [sp, #52]	; 0x34
 8004dfc:	e9cd 2306 	strd	r2, r3, [sp, #24]
 8004e00:	f44f 13e0 	mov.w	r3, #1835008	; 0x1c0000
 8004e04:	a806      	add	r0, sp, #24
 8004e06:	920a      	str	r2, [sp, #40]	; 0x28
 8004e08:	930f      	str	r3, [sp, #60]	; 0x3c
 8004e0a:	f000 fadf 	bl	80053cc <HAL_RCC_OscConfig>
 8004e0e:	b108      	cbz	r0, 8004e14 <SystemClock_Config+0x3c>
 8004e10:	b672      	cpsid	i
 8004e12:	e7fe      	b.n	8004e12 <SystemClock_Config+0x3a>
 8004e14:	230f      	movs	r3, #15
 8004e16:	e9cd 3401 	strd	r3, r4, [sp, #4]
 8004e1a:	f44f 6380 	mov.w	r3, #1024	; 0x400
 8004e1e:	9003      	str	r0, [sp, #12]
 8004e20:	e9cd 3004 	strd	r3, r0, [sp, #16]
 8004e24:	4621      	mov	r1, r4
 8004e26:	a801      	add	r0, sp, #4
 8004e28:	f000 fca6 	bl	8005778 <HAL_RCC_ClockConfig>
 8004e2c:	b108      	cbz	r0, 8004e32 <SystemClock_Config+0x5a>
 8004e2e:	b672      	cpsid	i
 8004e30:	e7fe      	b.n	8004e30 <SystemClock_Config+0x58>
 8004e32:	b010      	add	sp, #64	; 0x40
 8004e34:	bd10      	pop	{r4, pc}
	...

08004e38 <main>:
 8004e38:	e92d 41f0 	stmdb	sp!, {r4, r5, r6, r7, r8, lr}
 8004e3c:	b09a      	sub	sp, #104	; 0x68
 8004e3e:	f000 f951 	bl	80050e4 <HAL_Init>
 8004e42:	f7ff ffc9 	bl	8004dd8 <SystemClock_Config>
 8004e46:	4b55      	ldr	r3, [pc, #340]	; (8004f9c <main+0x164>)
 8004e48:	2500      	movs	r5, #0
 8004e4a:	699a      	ldr	r2, [r3, #24]
 8004e4c:	f64f 77e0 	movw	r7, #65504	; 0xffe0
 8004e50:	f042 0220 	orr.w	r2, r2, #32
 8004e54:	619a      	str	r2, [r3, #24]
 8004e56:	699a      	ldr	r2, [r3, #24]
 8004e58:	4c51      	ldr	r4, [pc, #324]	; (8004fa0 <main+0x168>)
 8004e5a:	f002 0220 	and.w	r2, r2, #32
 8004e5e:	9203      	str	r2, [sp, #12]
 8004e60:	9a03      	ldr	r2, [sp, #12]
 8004e62:	699a      	ldr	r2, [r3, #24]
 8004e64:	f042 0204 	orr.w	r2, r2, #4
 8004e68:	619a      	str	r2, [r3, #24]
 8004e6a:	699b      	ldr	r3, [r3, #24]
 8004e6c:	f003 0304 	and.w	r3, r3, #4
 8004e70:	9304      	str	r3, [sp, #16]
 8004e72:	9b04      	ldr	r3, [sp, #16]
 8004e74:	f7fc fa82 	bl	800137c <LCD_Init>
 8004e78:	2d0b      	cmp	r5, #11
 8004e7a:	d83a      	bhi.n	8004ef2 <main+0xba>
 8004e7c:	e8df f005 	tbb	[pc, r5]
 8004e80:	18130e06 	.word	0x18130e06
 8004e84:	342d261f 	.word	0x342d261f
 8004e88:	867f7871 	.word	0x867f7871
 8004e8c:	f64f 70ff 	movw	r0, #65535	; 0xffff
 8004e90:	f7fc fa32 	bl	80012f8 <LCD_Clear>
 8004e94:	f64f 73ff 	movw	r3, #65535	; 0xffff
 8004e98:	8023      	strh	r3, [r4, #0]
 8004e9a:	e02a      	b.n	8004ef2 <main+0xba>
 8004e9c:	2000      	movs	r0, #0
 8004e9e:	f7fc fa2b 	bl	80012f8 <LCD_Clear>
 8004ea2:	2300      	movs	r3, #0
 8004ea4:	e7f8      	b.n	8004e98 <main+0x60>
 8004ea6:	201f      	movs	r0, #31
 8004ea8:	f7fc fa26 	bl	80012f8 <LCD_Clear>
 8004eac:	231f      	movs	r3, #31
 8004eae:	e7f3      	b.n	8004e98 <main+0x60>
 8004eb0:	f44f 4078 	mov.w	r0, #63488	; 0xf800
 8004eb4:	f7fc fa20 	bl	80012f8 <LCD_Clear>
 8004eb8:	f44f 4378 	mov.w	r3, #63488	; 0xf800
 8004ebc:	e7ec      	b.n	8004e98 <main+0x60>
 8004ebe:	f64f 001f 	movw	r0, #63519	; 0xf81f
 8004ec2:	f7fc fa19 	bl	80012f8 <LCD_Clear>
 8004ec6:	f64f 031f 	movw	r3, #63519	; 0xf81f
 8004eca:	e7e5      	b.n	8004e98 <main+0x60>
 8004ecc:	f44f 60fc 	mov.w	r0, #2016	; 0x7e0
 8004ed0:	f7fc fa12 	bl	80012f8 <LCD_Clear>
 8004ed4:	f44f 63fc 	mov.w	r3, #2016	; 0x7e0
 8004ed8:	e7de      	b.n	8004e98 <main+0x60>
 8004eda:	f647 70ff 	movw	r0, #32767	; 0x7fff
 8004ede:	f7fc fa0b 	bl	80012f8 <LCD_Clear>
 8004ee2:	f647 73ff 	movw	r3, #32767	; 0x7fff
 8004ee6:	e7d7      	b.n	8004e98 <main+0x60>
 8004ee8:	f64f 70e0 	movw	r0, #65504	; 0xffe0
 8004eec:	f7fc fa04 	bl	80012f8 <LCD_Clear>
 8004ef0:	8027      	strh	r7, [r4, #0]
 8004ef2:	f44f 4378 	mov.w	r3, #63488	; 0xf800
 8004ef6:	f8df 80ac 	ldr.w	r8, [pc, #172]	; 8004fa4 <main+0x16c>
 8004efa:	ae05      	add	r6, sp, #20
 8004efc:	f8a8 3000 	strh.w	r3, [r8]
 8004f00:	4b29      	ldr	r3, [pc, #164]	; (8004fa8 <main+0x170>)
 8004f02:	4630      	mov	r0, r6
 8004f04:	889a      	ldrh	r2, [r3, #4]
 8004f06:	4929      	ldr	r1, [pc, #164]	; (8004fac <main+0x174>)
 8004f08:	f000 fcd2 	bl	80058b0 <siprintf>
 8004f0c:	4b28      	ldr	r3, [pc, #160]	; (8004fb0 <main+0x178>)
 8004f0e:	22c8      	movs	r2, #200	; 0xc8
 8004f10:	9301      	str	r3, [sp, #4]
 8004f12:	2318      	movs	r3, #24
 8004f14:	2128      	movs	r1, #40	; 0x28
 8004f16:	9300      	str	r3, [sp, #0]
 8004f18:	201e      	movs	r0, #30
 8004f1a:	f7ff ff2d 	bl	8004d78 <LCD_ShowString>
 8004f1e:	2310      	movs	r3, #16
 8004f20:	22c8      	movs	r2, #200	; 0xc8
 8004f22:	9300      	str	r3, [sp, #0]
 8004f24:	2146      	movs	r1, #70	; 0x46
 8004f26:	201e      	movs	r0, #30
 8004f28:	9601      	str	r6, [sp, #4]
 8004f2a:	f7ff ff25 	bl	8004d78 <LCD_ShowString>
 8004f2e:	2300      	movs	r3, #0
 8004f30:	22d2      	movs	r2, #210	; 0xd2
 8004f32:	f8a8 3000 	strh.w	r3, [r8]
 8004f36:	2196      	movs	r1, #150	; 0x96
 8004f38:	23be      	movs	r3, #190	; 0xbe
 8004f3a:	201e      	movs	r0, #30
 8004f3c:	3501      	adds	r5, #1
 8004f3e:	f7ff fe89 	bl	8004c54 <LCD_DrawRectangle>
 8004f42:	b2ed      	uxtb	r5, r5
 8004f44:	23bd      	movs	r3, #189	; 0xbd
 8004f46:	22d1      	movs	r2, #209	; 0xd1
 8004f48:	2197      	movs	r1, #151	; 0x97
 8004f4a:	201f      	movs	r0, #31
 8004f4c:	9700      	str	r7, [sp, #0]
 8004f4e:	f7ff fdd7 	bl	8004b00 <LCD_Fill>
 8004f52:	2d0c      	cmp	r5, #12
 8004f54:	f44f 60fa 	mov.w	r0, #2000	; 0x7d0
 8004f58:	bf08      	it	eq
 8004f5a:	2500      	moveq	r5, #0
 8004f5c:	f000 f8e6 	bl	800512c <HAL_Delay>
 8004f60:	e78a      	b.n	8004e78 <main+0x40>
 8004f62:	f64f 4007 	movw	r0, #64519	; 0xfc07
 8004f66:	f7fc f9c7 	bl	80012f8 <LCD_Clear>
 8004f6a:	f64f 4307 	movw	r3, #64519	; 0xfc07
 8004f6e:	e793      	b.n	8004e98 <main+0x60>
 8004f70:	f248 4030 	movw	r0, #33840	; 0x8430
 8004f74:	f7fc f9c0 	bl	80012f8 <LCD_Clear>
 8004f78:	f248 4330 	movw	r3, #33840	; 0x8430
 8004f7c:	e78c      	b.n	8004e98 <main+0x60>
 8004f7e:	f24c 6018 	movw	r0, #50712	; 0xc618
 8004f82:	f7fc f9b9 	bl	80012f8 <LCD_Clear>
 8004f86:	f24c 6318 	movw	r3, #50712	; 0xc618
 8004f8a:	e785      	b.n	8004e98 <main+0x60>
 8004f8c:	f64b 4040 	movw	r0, #48192	; 0xbc40
 8004f90:	f7fc f9b2 	bl	80012f8 <LCD_Clear>
 8004f94:	f64b 4340 	movw	r3, #48192	; 0xbc40
 8004f98:	e77e      	b.n	8004e98 <main+0x60>
 8004f9a:	bf00      	nop
 8004f9c:	40021000 	.word	0x40021000
 8004fa0:	20000000 	.word	0x20000000
 8004fa4:	2000007c 	.word	0x2000007c
 8004fa8:	2000007e 	.word	0x2000007e
 8004fac:	08007a03 	.word	0x08007a03
 8004fb0:	08007a06 	.word	0x08007a06

08004fb4 <HAL_MspInit>:
 8004fb4:	4b0e      	ldr	r3, [pc, #56]	; (8004ff0 <HAL_MspInit+0x3c>)
 8004fb6:	b082      	sub	sp, #8
 8004fb8:	699a      	ldr	r2, [r3, #24]
 8004fba:	f042 0201 	orr.w	r2, r2, #1
 8004fbe:	619a      	str	r2, [r3, #24]
 8004fc0:	699a      	ldr	r2, [r3, #24]
 8004fc2:	f002 0201 	and.w	r2, r2, #1
 8004fc6:	9200      	str	r2, [sp, #0]
 8004fc8:	9a00      	ldr	r2, [sp, #0]
 8004fca:	69da      	ldr	r2, [r3, #28]
 8004fcc:	f042 5280 	orr.w	r2, r2, #268435456	; 0x10000000
 8004fd0:	61da      	str	r2, [r3, #28]
 8004fd2:	69db      	ldr	r3, [r3, #28]
 8004fd4:	4a07      	ldr	r2, [pc, #28]	; (8004ff4 <HAL_MspInit+0x40>)
 8004fd6:	f003 5380 	and.w	r3, r3, #268435456	; 0x10000000
 8004fda:	9301      	str	r3, [sp, #4]
 8004fdc:	9b01      	ldr	r3, [sp, #4]
 8004fde:	6853      	ldr	r3, [r2, #4]
 8004fe0:	f023 63e0 	bic.w	r3, r3, #117440512	; 0x7000000
 8004fe4:	f043 7300 	orr.w	r3, r3, #33554432	; 0x2000000
 8004fe8:	6053      	str	r3, [r2, #4]
 8004fea:	b002      	add	sp, #8
 8004fec:	4770      	bx	lr
 8004fee:	bf00      	nop
 8004ff0:	40021000 	.word	0x40021000
 8004ff4:	40010000 	.word	0x40010000

08004ff8 <NMI_Handler>:
 8004ff8:	e7fe      	b.n	8004ff8 <NMI_Handler>

08004ffa <HardFault_Handler>:
 8004ffa:	e7fe      	b.n	8004ffa <HardFault_Handler>

08004ffc <MemManage_Handler>:
 8004ffc:	e7fe      	b.n	8004ffc <MemManage_Handler>

08004ffe <BusFault_Handler>:
 8004ffe:	e7fe      	b.n	8004ffe <BusFault_Handler>

08005000 <UsageFault_Handler>:
 8005000:	e7fe      	b.n	8005000 <UsageFault_Handler>

08005002 <SVC_Handler>:
 8005002:	4770      	bx	lr

08005004 <DebugMon_Handler>:
 8005004:	4770      	bx	lr

08005006 <PendSV_Handler>:
 8005006:	4770      	bx	lr

08005008 <SysTick_Handler>:
 8005008:	f000 b87e 	b.w	8005108 <HAL_IncTick>

0800500c <_sbrk>:
 800500c:	4a0b      	ldr	r2, [pc, #44]	; (800503c <_sbrk+0x30>)
 800500e:	4603      	mov	r3, r0
 8005010:	6811      	ldr	r1, [r2, #0]
 8005012:	b510      	push	{r4, lr}
 8005014:	b909      	cbnz	r1, 800501a <_sbrk+0xe>
 8005016:	490a      	ldr	r1, [pc, #40]	; (8005040 <_sbrk+0x34>)
 8005018:	6011      	str	r1, [r2, #0]
 800501a:	6810      	ldr	r0, [r2, #0]
 800501c:	4909      	ldr	r1, [pc, #36]	; (8005044 <_sbrk+0x38>)
 800501e:	4c0a      	ldr	r4, [pc, #40]	; (8005048 <_sbrk+0x3c>)
 8005020:	4403      	add	r3, r0
 8005022:	1b09      	subs	r1, r1, r4
 8005024:	428b      	cmp	r3, r1
 8005026:	d906      	bls.n	8005036 <_sbrk+0x2a>
 8005028:	f000 fc6a 	bl	8005900 <__errno>
 800502c:	230c      	movs	r3, #12
 800502e:	6003      	str	r3, [r0, #0]
 8005030:	f04f 30ff 	mov.w	r0, #4294967295
 8005034:	bd10      	pop	{r4, pc}
 8005036:	6013      	str	r3, [r2, #0]
 8005038:	e7fc      	b.n	8005034 <_sbrk+0x28>
 800503a:	bf00      	nop
 800503c:	2000008c 	.word	0x2000008c
 8005040:	200001e0 	.word	0x200001e0
 8005044:	2000c000 	.word	0x2000c000
 8005048:	00000400 	.word	0x00000400

0800504c <SystemInit>:
 800504c:	4770      	bx	lr
	...

08005050 <Reset_Handler>:
 8005050:	480c      	ldr	r0, [pc, #48]	; (8005084 <LoopFillZerobss+0x12>)
 8005052:	490d      	ldr	r1, [pc, #52]	; (8005088 <LoopFillZerobss+0x16>)
 8005054:	4a0d      	ldr	r2, [pc, #52]	; (800508c <LoopFillZerobss+0x1a>)
 8005056:	2300      	movs	r3, #0
 8005058:	e002      	b.n	8005060 <LoopCopyDataInit>

0800505a <CopyDataInit>:
 800505a:	58d4      	ldr	r4, [r2, r3]
 800505c:	50c4      	str	r4, [r0, r3]
 800505e:	3304      	adds	r3, #4

08005060 <LoopCopyDataInit>:
 8005060:	18c4      	adds	r4, r0, r3
 8005062:	428c      	cmp	r4, r1
 8005064:	d3f9      	bcc.n	800505a <CopyDataInit>
 8005066:	4a0a      	ldr	r2, [pc, #40]	; (8005090 <LoopFillZerobss+0x1e>)
 8005068:	4c0a      	ldr	r4, [pc, #40]	; (8005094 <LoopFillZerobss+0x22>)
 800506a:	2300      	movs	r3, #0
 800506c:	e001      	b.n	8005072 <LoopFillZerobss>

0800506e <FillZerobss>:
 800506e:	6013      	str	r3, [r2, #0]
 8005070:	3204      	adds	r2, #4

08005072 <LoopFillZerobss>:
 8005072:	42a2      	cmp	r2, r4
 8005074:	d3fb      	bcc.n	800506e <FillZerobss>
 8005076:	f7ff ffe9 	bl	800504c <SystemInit>
 800507a:	f000 fc47 	bl	800590c <__libc_init_array>
 800507e:	f7ff fedb 	bl	8004e38 <main>
 8005082:	4770      	bx	lr
 8005084:	20000000 	.word	0x20000000
 8005088:	20000060 	.word	0x20000060
 800508c:	08007a74 	.word	0x08007a74
 8005090:	20000060 	.word	0x20000060
 8005094:	200001dc 	.word	0x200001dc

08005098 <ADC1_2_IRQHandler>:
 8005098:	e7fe      	b.n	8005098 <ADC1_2_IRQHandler>
	...

0800509c <HAL_InitTick>:
 800509c:	b538      	push	{r3, r4, r5, lr}
 800509e:	4b0e      	ldr	r3, [pc, #56]	; (80050d8 <HAL_InitTick+0x3c>)
 80050a0:	4605      	mov	r5, r0
 80050a2:	781a      	ldrb	r2, [r3, #0]
 80050a4:	f44f 737a 	mov.w	r3, #1000	; 0x3e8
 80050a8:	fbb3 f3f2 	udiv	r3, r3, r2
 80050ac:	4a0b      	ldr	r2, [pc, #44]	; (80050dc <HAL_InitTick+0x40>)
 80050ae:	6810      	ldr	r0, [r2, #0]
 80050b0:	fbb0 f0f3 	udiv	r0, r0, r3
 80050b4:	f000 f88e 	bl	80051d4 <HAL_SYSTICK_Config>
 80050b8:	4604      	mov	r4, r0
 80050ba:	b958      	cbnz	r0, 80050d4 <HAL_InitTick+0x38>
 80050bc:	2d0f      	cmp	r5, #15
 80050be:	d809      	bhi.n	80050d4 <HAL_InitTick+0x38>
 80050c0:	4602      	mov	r2, r0
 80050c2:	4629      	mov	r1, r5
 80050c4:	f04f 30ff 	mov.w	r0, #4294967295
 80050c8:	f000 f854 	bl	8005174 <HAL_NVIC_SetPriority>
 80050cc:	4620      	mov	r0, r4
 80050ce:	4b04      	ldr	r3, [pc, #16]	; (80050e0 <HAL_InitTick+0x44>)
 80050d0:	601d      	str	r5, [r3, #0]
 80050d2:	bd38      	pop	{r3, r4, r5, pc}
 80050d4:	2001      	movs	r0, #1
 80050d6:	e7fc      	b.n	80050d2 <HAL_InitTick+0x36>
 80050d8:	20000008 	.word	0x20000008
 80050dc:	20000004 	.word	0x20000004
 80050e0:	2000000c 	.word	0x2000000c

080050e4 <HAL_Init>:
 80050e4:	4a07      	ldr	r2, [pc, #28]	; (8005104 <HAL_Init+0x20>)
 80050e6:	b508      	push	{r3, lr}
 80050e8:	6813      	ldr	r3, [r2, #0]
 80050ea:	2003      	movs	r0, #3
 80050ec:	f043 0310 	orr.w	r3, r3, #16
 80050f0:	6013      	str	r3, [r2, #0]
 80050f2:	f000 f82d 	bl	8005150 <HAL_NVIC_SetPriorityGrouping>
 80050f6:	200f      	movs	r0, #15
 80050f8:	f7ff ffd0 	bl	800509c <HAL_InitTick>
 80050fc:	f7ff ff5a 	bl	8004fb4 <HAL_MspInit>
 8005100:	2000      	movs	r0, #0
 8005102:	bd08      	pop	{r3, pc}
 8005104:	40022000 	.word	0x40022000

08005108 <HAL_IncTick>:
 8005108:	4a03      	ldr	r2, [pc, #12]	; (8005118 <HAL_IncTick+0x10>)
 800510a:	4b04      	ldr	r3, [pc, #16]	; (800511c <HAL_IncTick+0x14>)
 800510c:	6811      	ldr	r1, [r2, #0]
 800510e:	781b      	ldrb	r3, [r3, #0]
 8005110:	440b      	add	r3, r1
 8005112:	6013      	str	r3, [r2, #0]
 8005114:	4770      	bx	lr
 8005116:	bf00      	nop
 8005118:	20000090 	.word	0x20000090
 800511c:	20000008 	.word	0x20000008

08005120 <HAL_GetTick>:
 8005120:	4b01      	ldr	r3, [pc, #4]	; (8005128 <HAL_GetTick+0x8>)
 8005122:	6818      	ldr	r0, [r3, #0]
 8005124:	4770      	bx	lr
 8005126:	bf00      	nop
 8005128:	20000090 	.word	0x20000090

0800512c <HAL_Delay>:
 800512c:	b538      	push	{r3, r4, r5, lr}
 800512e:	4604      	mov	r4, r0
 8005130:	f7ff fff6 	bl	8005120 <HAL_GetTick>
 8005134:	4605      	mov	r5, r0
 8005136:	1c63      	adds	r3, r4, #1
 8005138:	bf1e      	ittt	ne
 800513a:	4b04      	ldrne	r3, [pc, #16]	; (800514c <HAL_Delay+0x20>)
 800513c:	781b      	ldrbne	r3, [r3, #0]
 800513e:	18e4      	addne	r4, r4, r3
 8005140:	f7ff ffee 	bl	8005120 <HAL_GetTick>
 8005144:	1b43      	subs	r3, r0, r5
 8005146:	42a3      	cmp	r3, r4
 8005148:	d3fa      	bcc.n	8005140 <HAL_Delay+0x14>
 800514a:	bd38      	pop	{r3, r4, r5, pc}
 800514c:	20000008 	.word	0x20000008

08005150 <HAL_NVIC_SetPriorityGrouping>:
 8005150:	4907      	ldr	r1, [pc, #28]	; (8005170 <HAL_NVIC_SetPriorityGrouping+0x20>)
 8005152:	0203      	lsls	r3, r0, #8
 8005154:	68ca      	ldr	r2, [r1, #12]
 8005156:	f403 63e0 	and.w	r3, r3, #1792	; 0x700
 800515a:	f422 62e0 	bic.w	r2, r2, #1792	; 0x700
 800515e:	0412      	lsls	r2, r2, #16
 8005160:	0c12      	lsrs	r2, r2, #16
 8005162:	4313      	orrs	r3, r2
 8005164:	f043 63bf 	orr.w	r3, r3, #100139008	; 0x5f80000
 8005168:	f443 3300 	orr.w	r3, r3, #131072	; 0x20000
 800516c:	60cb      	str	r3, [r1, #12]
 800516e:	4770      	bx	lr
 8005170:	e000ed00 	.word	0xe000ed00

08005174 <HAL_NVIC_SetPriority>:
 8005174:	4b15      	ldr	r3, [pc, #84]	; (80051cc <HAL_NVIC_SetPriority+0x58>)
 8005176:	b530      	push	{r4, r5, lr}
 8005178:	68dc      	ldr	r4, [r3, #12]
 800517a:	f3c4 2402 	ubfx	r4, r4, #8, #3
 800517e:	f1c4 0307 	rsb	r3, r4, #7
 8005182:	1d25      	adds	r5, r4, #4
 8005184:	2b04      	cmp	r3, #4
 8005186:	bf28      	it	cs
 8005188:	2304      	movcs	r3, #4
 800518a:	2d06      	cmp	r5, #6
 800518c:	f04f 35ff 	mov.w	r5, #4294967295
 8005190:	bf94      	ite	ls
 8005192:	2400      	movls	r4, #0
 8005194:	3c03      	subhi	r4, #3
 8005196:	fa05 f303 	lsl.w	r3, r5, r3
 800519a:	ea21 0303 	bic.w	r3, r1, r3
 800519e:	40a5      	lsls	r5, r4
 80051a0:	ea22 0205 	bic.w	r2, r2, r5
 80051a4:	40a3      	lsls	r3, r4
 80051a6:	2800      	cmp	r0, #0
 80051a8:	ea43 0302 	orr.w	r3, r3, r2
 80051ac:	bfac      	ite	ge
 80051ae:	f100 4060 	addge.w	r0, r0, #3758096384	; 0xe0000000
 80051b2:	4a07      	ldrlt	r2, [pc, #28]	; (80051d0 <HAL_NVIC_SetPriority+0x5c>)
 80051b4:	ea4f 1303 	mov.w	r3, r3, lsl #4
 80051b8:	b2db      	uxtb	r3, r3
 80051ba:	bfab      	itete	ge
 80051bc:	f500 4061 	addge.w	r0, r0, #57600	; 0xe100
 80051c0:	f000 000f 	andlt.w	r0, r0, #15
 80051c4:	f880 3300 	strbge.w	r3, [r0, #768]	; 0x300
 80051c8:	5413      	strblt	r3, [r2, r0]
 80051ca:	bd30      	pop	{r4, r5, pc}
 80051cc:	e000ed00 	.word	0xe000ed00
 80051d0:	e000ed14 	.word	0xe000ed14

080051d4 <HAL_SYSTICK_Config>:
 80051d4:	3801      	subs	r0, #1
 80051d6:	f1b0 7f80 	cmp.w	r0, #16777216	; 0x1000000
 80051da:	d20b      	bcs.n	80051f4 <HAL_SYSTICK_Config+0x20>
 80051dc:	f04f 23e0 	mov.w	r3, #3758153728	; 0xe000e000
 80051e0:	21f0      	movs	r1, #240	; 0xf0
 80051e2:	4a05      	ldr	r2, [pc, #20]	; (80051f8 <HAL_SYSTICK_Config+0x24>)
 80051e4:	6158      	str	r0, [r3, #20]
 80051e6:	f882 1023 	strb.w	r1, [r2, #35]	; 0x23
 80051ea:	2000      	movs	r0, #0
 80051ec:	2207      	movs	r2, #7
 80051ee:	6198      	str	r0, [r3, #24]
 80051f0:	611a      	str	r2, [r3, #16]
 80051f2:	4770      	bx	lr
 80051f4:	2001      	movs	r0, #1
 80051f6:	4770      	bx	lr
 80051f8:	e000ed00 	.word	0xe000ed00

080051fc <HAL_GPIO_Init>:
 80051fc:	e92d 4ff7 	stmdb	sp!, {r0, r1, r2, r4, r5, r6, r7, r8, r9, sl, fp, lr}
 8005200:	2200      	movs	r2, #0
 8005202:	4616      	mov	r6, r2
 8005204:	4f6a      	ldr	r7, [pc, #424]	; (80053b0 <HAL_GPIO_Init+0x1b4>)
 8005206:	4b6b      	ldr	r3, [pc, #428]	; (80053b4 <HAL_GPIO_Init+0x1b8>)
 8005208:	f8df c1ac 	ldr.w	ip, [pc, #428]	; 80053b8 <HAL_GPIO_Init+0x1bc>
 800520c:	f8df e1ac 	ldr.w	lr, [pc, #428]	; 80053bc <HAL_GPIO_Init+0x1c0>
 8005210:	680c      	ldr	r4, [r1, #0]
 8005212:	fa34 f506 	lsrs.w	r5, r4, r6
 8005216:	d102      	bne.n	800521e <HAL_GPIO_Init+0x22>
 8005218:	b003      	add	sp, #12
 800521a:	e8bd 8ff0 	ldmia.w	sp!, {r4, r5, r6, r7, r8, r9, sl, fp, pc}
 800521e:	f04f 0801 	mov.w	r8, #1
 8005222:	fa08 f806 	lsl.w	r8, r8, r6
 8005226:	ea04 0508 	and.w	r5, r4, r8
 800522a:	ea38 0404 	bics.w	r4, r8, r4
 800522e:	f040 8081 	bne.w	8005334 <HAL_GPIO_Init+0x138>
 8005232:	684c      	ldr	r4, [r1, #4]
 8005234:	2c03      	cmp	r4, #3
 8005236:	d807      	bhi.n	8005248 <HAL_GPIO_Init+0x4c>
 8005238:	3c01      	subs	r4, #1
 800523a:	2c02      	cmp	r4, #2
 800523c:	f200 808c 	bhi.w	8005358 <HAL_GPIO_Init+0x15c>
 8005240:	e8df f004 	tbb	[pc, r4]
 8005244:	a29d      	.short	0xa29d
 8005246:	a8          	.byte	0xa8
 8005247:	00          	.byte	0x00
 8005248:	2c12      	cmp	r4, #18
 800524a:	f000 80a0 	beq.w	800538e <HAL_GPIO_Init+0x192>
 800524e:	d873      	bhi.n	8005338 <HAL_GPIO_Init+0x13c>
 8005250:	2c11      	cmp	r4, #17
 8005252:	f000 8096 	beq.w	8005382 <HAL_GPIO_Init+0x186>
 8005256:	2dff      	cmp	r5, #255	; 0xff
 8005258:	bf98      	it	ls
 800525a:	4682      	movls	sl, r0
 800525c:	f04f 090f 	mov.w	r9, #15
 8005260:	bf88      	it	hi
 8005262:	f100 0a04 	addhi.w	sl, r0, #4
 8005266:	ea4f 0486 	mov.w	r4, r6, lsl #2
 800526a:	f8da 8000 	ldr.w	r8, [sl]
 800526e:	bf88      	it	hi
 8005270:	3c20      	subhi	r4, #32
 8005272:	fa09 fb04 	lsl.w	fp, r9, r4
 8005276:	ea28 080b 	bic.w	r8, r8, fp
 800527a:	fa02 f404 	lsl.w	r4, r2, r4
 800527e:	ea48 0404 	orr.w	r4, r8, r4
 8005282:	f8ca 4000 	str.w	r4, [sl]
 8005286:	f8d1 a004 	ldr.w	sl, [r1, #4]
 800528a:	f01a 5f80 	tst.w	sl, #268435456	; 0x10000000
 800528e:	d051      	beq.n	8005334 <HAL_GPIO_Init+0x138>
 8005290:	69bc      	ldr	r4, [r7, #24]
 8005292:	f026 0803 	bic.w	r8, r6, #3
 8005296:	f044 0401 	orr.w	r4, r4, #1
 800529a:	61bc      	str	r4, [r7, #24]
 800529c:	69bc      	ldr	r4, [r7, #24]
 800529e:	f108 4880 	add.w	r8, r8, #1073741824	; 0x40000000
 80052a2:	f004 0401 	and.w	r4, r4, #1
 80052a6:	9401      	str	r4, [sp, #4]
 80052a8:	f508 3880 	add.w	r8, r8, #65536	; 0x10000
 80052ac:	f006 0b03 	and.w	fp, r6, #3
 80052b0:	9c01      	ldr	r4, [sp, #4]
 80052b2:	ea4f 0b8b 	mov.w	fp, fp, lsl #2
 80052b6:	f8d8 4008 	ldr.w	r4, [r8, #8]
 80052ba:	fa09 f90b 	lsl.w	r9, r9, fp
 80052be:	ea24 0909 	bic.w	r9, r4, r9
 80052c2:	4c3f      	ldr	r4, [pc, #252]	; (80053c0 <HAL_GPIO_Init+0x1c4>)
 80052c4:	42a0      	cmp	r0, r4
 80052c6:	d069      	beq.n	800539c <HAL_GPIO_Init+0x1a0>
 80052c8:	f504 6480 	add.w	r4, r4, #1024	; 0x400
 80052cc:	42a0      	cmp	r0, r4
 80052ce:	d067      	beq.n	80053a0 <HAL_GPIO_Init+0x1a4>
 80052d0:	f504 6480 	add.w	r4, r4, #1024	; 0x400
 80052d4:	42a0      	cmp	r0, r4
 80052d6:	d065      	beq.n	80053a4 <HAL_GPIO_Init+0x1a8>
 80052d8:	f504 6480 	add.w	r4, r4, #1024	; 0x400
 80052dc:	42a0      	cmp	r0, r4
 80052de:	d063      	beq.n	80053a8 <HAL_GPIO_Init+0x1ac>
 80052e0:	f504 6480 	add.w	r4, r4, #1024	; 0x400
 80052e4:	42a0      	cmp	r0, r4
 80052e6:	d061      	beq.n	80053ac <HAL_GPIO_Init+0x1b0>
 80052e8:	4560      	cmp	r0, ip
 80052ea:	bf0c      	ite	eq
 80052ec:	2405      	moveq	r4, #5
 80052ee:	2406      	movne	r4, #6
 80052f0:	fa04 f40b 	lsl.w	r4, r4, fp
 80052f4:	ea44 0409 	orr.w	r4, r4, r9
 80052f8:	f8c8 4008 	str.w	r4, [r8, #8]
 80052fc:	681c      	ldr	r4, [r3, #0]
 80052fe:	f41a 3f80 	tst.w	sl, #65536	; 0x10000
 8005302:	bf14      	ite	ne
 8005304:	432c      	orrne	r4, r5
 8005306:	43ac      	biceq	r4, r5
 8005308:	601c      	str	r4, [r3, #0]
 800530a:	685c      	ldr	r4, [r3, #4]
 800530c:	f41a 3f00 	tst.w	sl, #131072	; 0x20000
 8005310:	bf14      	ite	ne
 8005312:	432c      	orrne	r4, r5
 8005314:	43ac      	biceq	r4, r5
 8005316:	605c      	str	r4, [r3, #4]
 8005318:	689c      	ldr	r4, [r3, #8]
 800531a:	f41a 1f80 	tst.w	sl, #1048576	; 0x100000
 800531e:	bf14      	ite	ne
 8005320:	432c      	orrne	r4, r5
 8005322:	43ac      	biceq	r4, r5
 8005324:	609c      	str	r4, [r3, #8]
 8005326:	68dc      	ldr	r4, [r3, #12]
 8005328:	f41a 1f00 	tst.w	sl, #2097152	; 0x200000
 800532c:	bf14      	ite	ne
 800532e:	432c      	orrne	r4, r5
 8005330:	43ac      	biceq	r4, r5
 8005332:	60dc      	str	r4, [r3, #12]
 8005334:	3601      	adds	r6, #1
 8005336:	e76b      	b.n	8005210 <HAL_GPIO_Init+0x14>
 8005338:	4574      	cmp	r4, lr
 800533a:	d00d      	beq.n	8005358 <HAL_GPIO_Init+0x15c>
 800533c:	d818      	bhi.n	8005370 <HAL_GPIO_Init+0x174>
 800533e:	f8df 9084 	ldr.w	r9, [pc, #132]	; 80053c4 <HAL_GPIO_Init+0x1c8>
 8005342:	454c      	cmp	r4, r9
 8005344:	d008      	beq.n	8005358 <HAL_GPIO_Init+0x15c>
 8005346:	f509 2970 	add.w	r9, r9, #983040	; 0xf0000
 800534a:	454c      	cmp	r4, r9
 800534c:	d004      	beq.n	8005358 <HAL_GPIO_Init+0x15c>
 800534e:	f5a9 1980 	sub.w	r9, r9, #1048576	; 0x100000
 8005352:	454c      	cmp	r4, r9
 8005354:	f47f af7f 	bne.w	8005256 <HAL_GPIO_Init+0x5a>
 8005358:	688a      	ldr	r2, [r1, #8]
 800535a:	b1ea      	cbz	r2, 8005398 <HAL_GPIO_Init+0x19c>
 800535c:	2a01      	cmp	r2, #1
 800535e:	bf08      	it	eq
 8005360:	f8c0 8010 	streq.w	r8, [r0, #16]
 8005364:	f04f 0208 	mov.w	r2, #8
 8005368:	bf18      	it	ne
 800536a:	f8c0 8014 	strne.w	r8, [r0, #20]
 800536e:	e772      	b.n	8005256 <HAL_GPIO_Init+0x5a>
 8005370:	f8df 9054 	ldr.w	r9, [pc, #84]	; 80053c8 <HAL_GPIO_Init+0x1cc>
 8005374:	454c      	cmp	r4, r9
 8005376:	d0ef      	beq.n	8005358 <HAL_GPIO_Init+0x15c>
 8005378:	f509 3980 	add.w	r9, r9, #65536	; 0x10000
 800537c:	e7e9      	b.n	8005352 <HAL_GPIO_Init+0x156>
 800537e:	68ca      	ldr	r2, [r1, #12]
 8005380:	e769      	b.n	8005256 <HAL_GPIO_Init+0x5a>
 8005382:	68ca      	ldr	r2, [r1, #12]
 8005384:	3204      	adds	r2, #4
 8005386:	e766      	b.n	8005256 <HAL_GPIO_Init+0x5a>
 8005388:	68ca      	ldr	r2, [r1, #12]
 800538a:	3208      	adds	r2, #8
 800538c:	e763      	b.n	8005256 <HAL_GPIO_Init+0x5a>
 800538e:	68ca      	ldr	r2, [r1, #12]
 8005390:	320c      	adds	r2, #12
 8005392:	e760      	b.n	8005256 <HAL_GPIO_Init+0x5a>
 8005394:	2200      	movs	r2, #0
 8005396:	e75e      	b.n	8005256 <HAL_GPIO_Init+0x5a>
 8005398:	2204      	movs	r2, #4
 800539a:	e75c      	b.n	8005256 <HAL_GPIO_Init+0x5a>
 800539c:	2400      	movs	r4, #0
 800539e:	e7a7      	b.n	80052f0 <HAL_GPIO_Init+0xf4>
 80053a0:	2401      	movs	r4, #1
 80053a2:	e7a5      	b.n	80052f0 <HAL_GPIO_Init+0xf4>
 80053a4:	2402      	movs	r4, #2
 80053a6:	e7a3      	b.n	80052f0 <HAL_GPIO_Init+0xf4>
 80053a8:	2403      	movs	r4, #3
 80053aa:	e7a1      	b.n	80052f0 <HAL_GPIO_Init+0xf4>
 80053ac:	2404      	movs	r4, #4
 80053ae:	e79f      	b.n	80052f0 <HAL_GPIO_Init+0xf4>
 80053b0:	40021000 	.word	0x40021000
 80053b4:	40010400 	.word	0x40010400
 80053b8:	40011c00 	.word	0x40011c00
 80053bc:	10220000 	.word	0x10220000
 80053c0:	40010800 	.word	0x40010800
 80053c4:	10120000 	.word	0x10120000
 80053c8:	10310000 	.word	0x10310000

080053cc <HAL_RCC_OscConfig>:
 80053cc:	e92d 41f3 	stmdb	sp!, {r0, r1, r4, r5, r6, r7, r8, lr}
 80053d0:	4605      	mov	r5, r0
 80053d2:	b338      	cbz	r0, 8005424 <HAL_RCC_OscConfig+0x58>
 80053d4:	6803      	ldr	r3, [r0, #0]
 80053d6:	07db      	lsls	r3, r3, #31
 80053d8:	d410      	bmi.n	80053fc <HAL_RCC_OscConfig+0x30>
 80053da:	682b      	ldr	r3, [r5, #0]
 80053dc:	079f      	lsls	r7, r3, #30
 80053de:	d45e      	bmi.n	800549e <HAL_RCC_OscConfig+0xd2>
 80053e0:	682b      	ldr	r3, [r5, #0]
 80053e2:	0719      	lsls	r1, r3, #28
 80053e4:	f100 8095 	bmi.w	8005512 <HAL_RCC_OscConfig+0x146>
 80053e8:	682b      	ldr	r3, [r5, #0]
 80053ea:	075a      	lsls	r2, r3, #29
 80053ec:	f100 80c1 	bmi.w	8005572 <HAL_RCC_OscConfig+0x1a6>
 80053f0:	69e8      	ldr	r0, [r5, #28]
 80053f2:	2800      	cmp	r0, #0
 80053f4:	f040 812c 	bne.w	8005650 <HAL_RCC_OscConfig+0x284>
 80053f8:	2000      	movs	r0, #0
 80053fa:	e029      	b.n	8005450 <HAL_RCC_OscConfig+0x84>
 80053fc:	4c90      	ldr	r4, [pc, #576]	; (8005640 <HAL_RCC_OscConfig+0x274>)
 80053fe:	6863      	ldr	r3, [r4, #4]
 8005400:	f003 030c 	and.w	r3, r3, #12
 8005404:	2b04      	cmp	r3, #4
 8005406:	d007      	beq.n	8005418 <HAL_RCC_OscConfig+0x4c>
 8005408:	6863      	ldr	r3, [r4, #4]
 800540a:	f003 030c 	and.w	r3, r3, #12
 800540e:	2b08      	cmp	r3, #8
 8005410:	d10a      	bne.n	8005428 <HAL_RCC_OscConfig+0x5c>
 8005412:	6863      	ldr	r3, [r4, #4]
 8005414:	03de      	lsls	r6, r3, #15
 8005416:	d507      	bpl.n	8005428 <HAL_RCC_OscConfig+0x5c>
 8005418:	6823      	ldr	r3, [r4, #0]
 800541a:	039c      	lsls	r4, r3, #14
 800541c:	d5dd      	bpl.n	80053da <HAL_RCC_OscConfig+0xe>
 800541e:	686b      	ldr	r3, [r5, #4]
 8005420:	2b00      	cmp	r3, #0
 8005422:	d1da      	bne.n	80053da <HAL_RCC_OscConfig+0xe>
 8005424:	2001      	movs	r0, #1
 8005426:	e013      	b.n	8005450 <HAL_RCC_OscConfig+0x84>
 8005428:	686b      	ldr	r3, [r5, #4]
 800542a:	f5b3 3f80 	cmp.w	r3, #65536	; 0x10000
 800542e:	d112      	bne.n	8005456 <HAL_RCC_OscConfig+0x8a>
 8005430:	6823      	ldr	r3, [r4, #0]
 8005432:	f443 3380 	orr.w	r3, r3, #65536	; 0x10000
 8005436:	6023      	str	r3, [r4, #0]
 8005438:	f7ff fe72 	bl	8005120 <HAL_GetTick>
 800543c:	4606      	mov	r6, r0
 800543e:	6823      	ldr	r3, [r4, #0]
 8005440:	0398      	lsls	r0, r3, #14
 8005442:	d4ca      	bmi.n	80053da <HAL_RCC_OscConfig+0xe>
 8005444:	f7ff fe6c 	bl	8005120 <HAL_GetTick>
 8005448:	1b80      	subs	r0, r0, r6
 800544a:	2864      	cmp	r0, #100	; 0x64
 800544c:	d9f7      	bls.n	800543e <HAL_RCC_OscConfig+0x72>
 800544e:	2003      	movs	r0, #3
 8005450:	b002      	add	sp, #8
 8005452:	e8bd 81f0 	ldmia.w	sp!, {r4, r5, r6, r7, r8, pc}
 8005456:	b99b      	cbnz	r3, 8005480 <HAL_RCC_OscConfig+0xb4>
 8005458:	6823      	ldr	r3, [r4, #0]
 800545a:	f423 3380 	bic.w	r3, r3, #65536	; 0x10000
 800545e:	6023      	str	r3, [r4, #0]
 8005460:	6823      	ldr	r3, [r4, #0]
 8005462:	f423 2380 	bic.w	r3, r3, #262144	; 0x40000
 8005466:	6023      	str	r3, [r4, #0]
 8005468:	f7ff fe5a 	bl	8005120 <HAL_GetTick>
 800546c:	4606      	mov	r6, r0
 800546e:	6823      	ldr	r3, [r4, #0]
 8005470:	0399      	lsls	r1, r3, #14
 8005472:	d5b2      	bpl.n	80053da <HAL_RCC_OscConfig+0xe>
 8005474:	f7ff fe54 	bl	8005120 <HAL_GetTick>
 8005478:	1b80      	subs	r0, r0, r6
 800547a:	2864      	cmp	r0, #100	; 0x64
 800547c:	d9f7      	bls.n	800546e <HAL_RCC_OscConfig+0xa2>
 800547e:	e7e6      	b.n	800544e <HAL_RCC_OscConfig+0x82>
 8005480:	f5b3 2fa0 	cmp.w	r3, #327680	; 0x50000
 8005484:	6823      	ldr	r3, [r4, #0]
 8005486:	d103      	bne.n	8005490 <HAL_RCC_OscConfig+0xc4>
 8005488:	f443 2380 	orr.w	r3, r3, #262144	; 0x40000
 800548c:	6023      	str	r3, [r4, #0]
 800548e:	e7cf      	b.n	8005430 <HAL_RCC_OscConfig+0x64>
 8005490:	f423 3380 	bic.w	r3, r3, #65536	; 0x10000
 8005494:	6023      	str	r3, [r4, #0]
 8005496:	6823      	ldr	r3, [r4, #0]
 8005498:	f423 2380 	bic.w	r3, r3, #262144	; 0x40000
 800549c:	e7cb      	b.n	8005436 <HAL_RCC_OscConfig+0x6a>
 800549e:	4c68      	ldr	r4, [pc, #416]	; (8005640 <HAL_RCC_OscConfig+0x274>)
 80054a0:	6863      	ldr	r3, [r4, #4]
 80054a2:	f013 0f0c 	tst.w	r3, #12
 80054a6:	d007      	beq.n	80054b8 <HAL_RCC_OscConfig+0xec>
 80054a8:	6863      	ldr	r3, [r4, #4]
 80054aa:	f003 030c 	and.w	r3, r3, #12
 80054ae:	2b08      	cmp	r3, #8
 80054b0:	d110      	bne.n	80054d4 <HAL_RCC_OscConfig+0x108>
 80054b2:	6863      	ldr	r3, [r4, #4]
 80054b4:	03da      	lsls	r2, r3, #15
 80054b6:	d40d      	bmi.n	80054d4 <HAL_RCC_OscConfig+0x108>
 80054b8:	6823      	ldr	r3, [r4, #0]
 80054ba:	079b      	lsls	r3, r3, #30
 80054bc:	d502      	bpl.n	80054c4 <HAL_RCC_OscConfig+0xf8>
 80054be:	692b      	ldr	r3, [r5, #16]
 80054c0:	2b01      	cmp	r3, #1
 80054c2:	d1af      	bne.n	8005424 <HAL_RCC_OscConfig+0x58>
 80054c4:	6823      	ldr	r3, [r4, #0]
 80054c6:	696a      	ldr	r2, [r5, #20]
 80054c8:	f023 03f8 	bic.w	r3, r3, #248	; 0xf8
 80054cc:	ea43 03c2 	orr.w	r3, r3, r2, lsl #3
 80054d0:	6023      	str	r3, [r4, #0]
 80054d2:	e785      	b.n	80053e0 <HAL_RCC_OscConfig+0x14>
 80054d4:	692a      	ldr	r2, [r5, #16]
 80054d6:	4b5b      	ldr	r3, [pc, #364]	; (8005644 <HAL_RCC_OscConfig+0x278>)
 80054d8:	b16a      	cbz	r2, 80054f6 <HAL_RCC_OscConfig+0x12a>
 80054da:	2201      	movs	r2, #1
 80054dc:	601a      	str	r2, [r3, #0]
 80054de:	f7ff fe1f 	bl	8005120 <HAL_GetTick>
 80054e2:	4606      	mov	r6, r0
 80054e4:	6823      	ldr	r3, [r4, #0]
 80054e6:	079f      	lsls	r7, r3, #30
 80054e8:	d4ec      	bmi.n	80054c4 <HAL_RCC_OscConfig+0xf8>
 80054ea:	f7ff fe19 	bl	8005120 <HAL_GetTick>
 80054ee:	1b80      	subs	r0, r0, r6
 80054f0:	2802      	cmp	r0, #2
 80054f2:	d9f7      	bls.n	80054e4 <HAL_RCC_OscConfig+0x118>
 80054f4:	e7ab      	b.n	800544e <HAL_RCC_OscConfig+0x82>
 80054f6:	601a      	str	r2, [r3, #0]
 80054f8:	f7ff fe12 	bl	8005120 <HAL_GetTick>
 80054fc:	4606      	mov	r6, r0
 80054fe:	6823      	ldr	r3, [r4, #0]
 8005500:	0798      	lsls	r0, r3, #30
 8005502:	f57f af6d 	bpl.w	80053e0 <HAL_RCC_OscConfig+0x14>
 8005506:	f7ff fe0b 	bl	8005120 <HAL_GetTick>
 800550a:	1b80      	subs	r0, r0, r6
 800550c:	2802      	cmp	r0, #2
 800550e:	d9f6      	bls.n	80054fe <HAL_RCC_OscConfig+0x132>
 8005510:	e79d      	b.n	800544e <HAL_RCC_OscConfig+0x82>
 8005512:	69aa      	ldr	r2, [r5, #24]
 8005514:	4e4a      	ldr	r6, [pc, #296]	; (8005640 <HAL_RCC_OscConfig+0x274>)
 8005516:	4b4b      	ldr	r3, [pc, #300]	; (8005644 <HAL_RCC_OscConfig+0x278>)
 8005518:	b1e2      	cbz	r2, 8005554 <HAL_RCC_OscConfig+0x188>
 800551a:	2201      	movs	r2, #1
 800551c:	f8c3 2480 	str.w	r2, [r3, #1152]	; 0x480
 8005520:	f7ff fdfe 	bl	8005120 <HAL_GetTick>
 8005524:	4604      	mov	r4, r0
 8005526:	6a73      	ldr	r3, [r6, #36]	; 0x24
 8005528:	079b      	lsls	r3, r3, #30
 800552a:	d50d      	bpl.n	8005548 <HAL_RCC_OscConfig+0x17c>
 800552c:	f44f 52fa 	mov.w	r2, #8000	; 0x1f40
 8005530:	4b45      	ldr	r3, [pc, #276]	; (8005648 <HAL_RCC_OscConfig+0x27c>)
 8005532:	681b      	ldr	r3, [r3, #0]
 8005534:	fbb3 f3f2 	udiv	r3, r3, r2
 8005538:	9301      	str	r3, [sp, #4]
 800553a:	bf00      	nop
 800553c:	9b01      	ldr	r3, [sp, #4]
 800553e:	1e5a      	subs	r2, r3, #1
 8005540:	9201      	str	r2, [sp, #4]
 8005542:	2b00      	cmp	r3, #0
 8005544:	d1f9      	bne.n	800553a <HAL_RCC_OscConfig+0x16e>
 8005546:	e74f      	b.n	80053e8 <HAL_RCC_OscConfig+0x1c>
 8005548:	f7ff fdea 	bl	8005120 <HAL_GetTick>
 800554c:	1b00      	subs	r0, r0, r4
 800554e:	2802      	cmp	r0, #2
 8005550:	d9e9      	bls.n	8005526 <HAL_RCC_OscConfig+0x15a>
 8005552:	e77c      	b.n	800544e <HAL_RCC_OscConfig+0x82>
 8005554:	f8c3 2480 	str.w	r2, [r3, #1152]	; 0x480
 8005558:	f7ff fde2 	bl	8005120 <HAL_GetTick>
 800555c:	4604      	mov	r4, r0
 800555e:	6a73      	ldr	r3, [r6, #36]	; 0x24
 8005560:	079f      	lsls	r7, r3, #30
 8005562:	f57f af41 	bpl.w	80053e8 <HAL_RCC_OscConfig+0x1c>
 8005566:	f7ff fddb 	bl	8005120 <HAL_GetTick>
 800556a:	1b00      	subs	r0, r0, r4
 800556c:	2802      	cmp	r0, #2
 800556e:	d9f6      	bls.n	800555e <HAL_RCC_OscConfig+0x192>
 8005570:	e76d      	b.n	800544e <HAL_RCC_OscConfig+0x82>
 8005572:	4c33      	ldr	r4, [pc, #204]	; (8005640 <HAL_RCC_OscConfig+0x274>)
 8005574:	69e3      	ldr	r3, [r4, #28]
 8005576:	00d8      	lsls	r0, r3, #3
 8005578:	d424      	bmi.n	80055c4 <HAL_RCC_OscConfig+0x1f8>
 800557a:	2701      	movs	r7, #1
 800557c:	69e3      	ldr	r3, [r4, #28]
 800557e:	f043 5380 	orr.w	r3, r3, #268435456	; 0x10000000
 8005582:	61e3      	str	r3, [r4, #28]
 8005584:	69e3      	ldr	r3, [r4, #28]
 8005586:	f003 5380 	and.w	r3, r3, #268435456	; 0x10000000
 800558a:	9300      	str	r3, [sp, #0]
 800558c:	9b00      	ldr	r3, [sp, #0]
 800558e:	4e2f      	ldr	r6, [pc, #188]	; (800564c <HAL_RCC_OscConfig+0x280>)
 8005590:	6833      	ldr	r3, [r6, #0]
 8005592:	05d9      	lsls	r1, r3, #23
 8005594:	d518      	bpl.n	80055c8 <HAL_RCC_OscConfig+0x1fc>
 8005596:	68eb      	ldr	r3, [r5, #12]
 8005598:	2b01      	cmp	r3, #1
 800559a:	d126      	bne.n	80055ea <HAL_RCC_OscConfig+0x21e>
 800559c:	6a23      	ldr	r3, [r4, #32]
 800559e:	f043 0301 	orr.w	r3, r3, #1
 80055a2:	6223      	str	r3, [r4, #32]
 80055a4:	f7ff fdbc 	bl	8005120 <HAL_GetTick>
 80055a8:	f241 3888 	movw	r8, #5000	; 0x1388
 80055ac:	4606      	mov	r6, r0
 80055ae:	6a23      	ldr	r3, [r4, #32]
 80055b0:	079b      	lsls	r3, r3, #30
 80055b2:	d53f      	bpl.n	8005634 <HAL_RCC_OscConfig+0x268>
 80055b4:	2f00      	cmp	r7, #0
 80055b6:	f43f af1b 	beq.w	80053f0 <HAL_RCC_OscConfig+0x24>
 80055ba:	69e3      	ldr	r3, [r4, #28]
 80055bc:	f023 5380 	bic.w	r3, r3, #268435456	; 0x10000000
 80055c0:	61e3      	str	r3, [r4, #28]
 80055c2:	e715      	b.n	80053f0 <HAL_RCC_OscConfig+0x24>
 80055c4:	2700      	movs	r7, #0
 80055c6:	e7e2      	b.n	800558e <HAL_RCC_OscConfig+0x1c2>
 80055c8:	6833      	ldr	r3, [r6, #0]
 80055ca:	f443 7380 	orr.w	r3, r3, #256	; 0x100
 80055ce:	6033      	str	r3, [r6, #0]
 80055d0:	f7ff fda6 	bl	8005120 <HAL_GetTick>
 80055d4:	4680      	mov	r8, r0
 80055d6:	6833      	ldr	r3, [r6, #0]
 80055d8:	05da      	lsls	r2, r3, #23
 80055da:	d4dc      	bmi.n	8005596 <HAL_RCC_OscConfig+0x1ca>
 80055dc:	f7ff fda0 	bl	8005120 <HAL_GetTick>
 80055e0:	eba0 0008 	sub.w	r0, r0, r8
 80055e4:	2864      	cmp	r0, #100	; 0x64
 80055e6:	d9f6      	bls.n	80055d6 <HAL_RCC_OscConfig+0x20a>
 80055e8:	e731      	b.n	800544e <HAL_RCC_OscConfig+0x82>
 80055ea:	b9ab      	cbnz	r3, 8005618 <HAL_RCC_OscConfig+0x24c>
 80055ec:	6a23      	ldr	r3, [r4, #32]
 80055ee:	f241 3888 	movw	r8, #5000	; 0x1388
 80055f2:	f023 0301 	bic.w	r3, r3, #1
 80055f6:	6223      	str	r3, [r4, #32]
 80055f8:	6a23      	ldr	r3, [r4, #32]
 80055fa:	f023 0304 	bic.w	r3, r3, #4
 80055fe:	6223      	str	r3, [r4, #32]
 8005600:	f7ff fd8e 	bl	8005120 <HAL_GetTick>
 8005604:	4606      	mov	r6, r0
 8005606:	6a23      	ldr	r3, [r4, #32]
 8005608:	0798      	lsls	r0, r3, #30
 800560a:	d5d3      	bpl.n	80055b4 <HAL_RCC_OscConfig+0x1e8>
 800560c:	f7ff fd88 	bl	8005120 <HAL_GetTick>
 8005610:	1b80      	subs	r0, r0, r6
 8005612:	4540      	cmp	r0, r8
 8005614:	d9f7      	bls.n	8005606 <HAL_RCC_OscConfig+0x23a>
 8005616:	e71a      	b.n	800544e <HAL_RCC_OscConfig+0x82>
 8005618:	2b05      	cmp	r3, #5
 800561a:	6a23      	ldr	r3, [r4, #32]
 800561c:	d103      	bne.n	8005626 <HAL_RCC_OscConfig+0x25a>
 800561e:	f043 0304 	orr.w	r3, r3, #4
 8005622:	6223      	str	r3, [r4, #32]
 8005624:	e7ba      	b.n	800559c <HAL_RCC_OscConfig+0x1d0>
 8005626:	f023 0301 	bic.w	r3, r3, #1
 800562a:	6223      	str	r3, [r4, #32]
 800562c:	6a23      	ldr	r3, [r4, #32]
 800562e:	f023 0304 	bic.w	r3, r3, #4
 8005632:	e7b6      	b.n	80055a2 <HAL_RCC_OscConfig+0x1d6>
 8005634:	f7ff fd74 	bl	8005120 <HAL_GetTick>
 8005638:	1b80      	subs	r0, r0, r6
 800563a:	4540      	cmp	r0, r8
 800563c:	d9b7      	bls.n	80055ae <HAL_RCC_OscConfig+0x1e2>
 800563e:	e706      	b.n	800544e <HAL_RCC_OscConfig+0x82>
 8005640:	40021000 	.word	0x40021000
 8005644:	42420000 	.word	0x42420000
 8005648:	20000004 	.word	0x20000004
 800564c:	40007000 	.word	0x40007000
 8005650:	4c2a      	ldr	r4, [pc, #168]	; (80056fc <HAL_RCC_OscConfig+0x330>)
 8005652:	6863      	ldr	r3, [r4, #4]
 8005654:	f003 030c 	and.w	r3, r3, #12
 8005658:	2b08      	cmp	r3, #8
 800565a:	d03e      	beq.n	80056da <HAL_RCC_OscConfig+0x30e>
 800565c:	2200      	movs	r2, #0
 800565e:	4b28      	ldr	r3, [pc, #160]	; (8005700 <HAL_RCC_OscConfig+0x334>)
 8005660:	2802      	cmp	r0, #2
 8005662:	661a      	str	r2, [r3, #96]	; 0x60
 8005664:	d12c      	bne.n	80056c0 <HAL_RCC_OscConfig+0x2f4>
 8005666:	f7ff fd5b 	bl	8005120 <HAL_GetTick>
 800566a:	4606      	mov	r6, r0
 800566c:	6823      	ldr	r3, [r4, #0]
 800566e:	0199      	lsls	r1, r3, #6
 8005670:	d420      	bmi.n	80056b4 <HAL_RCC_OscConfig+0x2e8>
 8005672:	6a2b      	ldr	r3, [r5, #32]
 8005674:	f5b3 3f80 	cmp.w	r3, #65536	; 0x10000
 8005678:	d105      	bne.n	8005686 <HAL_RCC_OscConfig+0x2ba>
 800567a:	6862      	ldr	r2, [r4, #4]
 800567c:	68a9      	ldr	r1, [r5, #8]
 800567e:	f422 3200 	bic.w	r2, r2, #131072	; 0x20000
 8005682:	430a      	orrs	r2, r1
 8005684:	6062      	str	r2, [r4, #4]
 8005686:	6a69      	ldr	r1, [r5, #36]	; 0x24
 8005688:	6862      	ldr	r2, [r4, #4]
 800568a:	430b      	orrs	r3, r1
 800568c:	f422 1274 	bic.w	r2, r2, #3997696	; 0x3d0000
 8005690:	4313      	orrs	r3, r2
 8005692:	2201      	movs	r2, #1
 8005694:	6063      	str	r3, [r4, #4]
 8005696:	4b1a      	ldr	r3, [pc, #104]	; (8005700 <HAL_RCC_OscConfig+0x334>)
 8005698:	661a      	str	r2, [r3, #96]	; 0x60
 800569a:	f7ff fd41 	bl	8005120 <HAL_GetTick>
 800569e:	4605      	mov	r5, r0
 80056a0:	6823      	ldr	r3, [r4, #0]
 80056a2:	019a      	lsls	r2, r3, #6
 80056a4:	f53f aea8 	bmi.w	80053f8 <HAL_RCC_OscConfig+0x2c>
 80056a8:	f7ff fd3a 	bl	8005120 <HAL_GetTick>
 80056ac:	1b40      	subs	r0, r0, r5
 80056ae:	2802      	cmp	r0, #2
 80056b0:	d9f6      	bls.n	80056a0 <HAL_RCC_OscConfig+0x2d4>
 80056b2:	e6cc      	b.n	800544e <HAL_RCC_OscConfig+0x82>
 80056b4:	f7ff fd34 	bl	8005120 <HAL_GetTick>
 80056b8:	1b80      	subs	r0, r0, r6
 80056ba:	2802      	cmp	r0, #2
 80056bc:	d9d6      	bls.n	800566c <HAL_RCC_OscConfig+0x2a0>
 80056be:	e6c6      	b.n	800544e <HAL_RCC_OscConfig+0x82>
 80056c0:	f7ff fd2e 	bl	8005120 <HAL_GetTick>
 80056c4:	4605      	mov	r5, r0
 80056c6:	6823      	ldr	r3, [r4, #0]
 80056c8:	019b      	lsls	r3, r3, #6
 80056ca:	f57f ae95 	bpl.w	80053f8 <HAL_RCC_OscConfig+0x2c>
 80056ce:	f7ff fd27 	bl	8005120 <HAL_GetTick>
 80056d2:	1b40      	subs	r0, r0, r5
 80056d4:	2802      	cmp	r0, #2
 80056d6:	d9f6      	bls.n	80056c6 <HAL_RCC_OscConfig+0x2fa>
 80056d8:	e6b9      	b.n	800544e <HAL_RCC_OscConfig+0x82>
 80056da:	2801      	cmp	r0, #1
 80056dc:	f43f aeb8 	beq.w	8005450 <HAL_RCC_OscConfig+0x84>
 80056e0:	6863      	ldr	r3, [r4, #4]
 80056e2:	6a2a      	ldr	r2, [r5, #32]
 80056e4:	f403 3180 	and.w	r1, r3, #65536	; 0x10000
 80056e8:	4291      	cmp	r1, r2
 80056ea:	f47f ae9b 	bne.w	8005424 <HAL_RCC_OscConfig+0x58>
 80056ee:	6a6a      	ldr	r2, [r5, #36]	; 0x24
 80056f0:	f403 1370 	and.w	r3, r3, #3932160	; 0x3c0000
 80056f4:	4293      	cmp	r3, r2
 80056f6:	f43f ae7f 	beq.w	80053f8 <HAL_RCC_OscConfig+0x2c>
 80056fa:	e693      	b.n	8005424 <HAL_RCC_OscConfig+0x58>
 80056fc:	40021000 	.word	0x40021000
 8005700:	42420000 	.word	0x42420000

08005704 <HAL_RCC_GetSysClockFreq>:
 8005704:	b530      	push	{r4, r5, lr}
 8005706:	4b18      	ldr	r3, [pc, #96]	; (8005768 <HAL_RCC_GetSysClockFreq+0x64>)
 8005708:	b087      	sub	sp, #28
 800570a:	ac02      	add	r4, sp, #8
 800570c:	f103 0510 	add.w	r5, r3, #16
 8005710:	4622      	mov	r2, r4
 8005712:	6818      	ldr	r0, [r3, #0]
 8005714:	6859      	ldr	r1, [r3, #4]
 8005716:	3308      	adds	r3, #8
 8005718:	c203      	stmia	r2!, {r0, r1}
 800571a:	42ab      	cmp	r3, r5
 800571c:	4614      	mov	r4, r2
 800571e:	d1f7      	bne.n	8005710 <HAL_RCC_GetSysClockFreq+0xc>
 8005720:	f240 2301 	movw	r3, #513	; 0x201
 8005724:	4911      	ldr	r1, [pc, #68]	; (800576c <HAL_RCC_GetSysClockFreq+0x68>)
 8005726:	f8ad 3004 	strh.w	r3, [sp, #4]
 800572a:	684b      	ldr	r3, [r1, #4]
 800572c:	f003 020c 	and.w	r2, r3, #12
 8005730:	2a08      	cmp	r2, #8
 8005732:	d117      	bne.n	8005764 <HAL_RCC_GetSysClockFreq+0x60>
 8005734:	f3c3 4283 	ubfx	r2, r3, #18, #4
 8005738:	3218      	adds	r2, #24
 800573a:	446a      	add	r2, sp
 800573c:	03db      	lsls	r3, r3, #15
 800573e:	f812 0c10 	ldrb.w	r0, [r2, #-16]
 8005742:	d50c      	bpl.n	800575e <HAL_RCC_GetSysClockFreq+0x5a>
 8005744:	684b      	ldr	r3, [r1, #4]
 8005746:	4a0a      	ldr	r2, [pc, #40]	; (8005770 <HAL_RCC_GetSysClockFreq+0x6c>)
 8005748:	f3c3 4340 	ubfx	r3, r3, #17, #1
 800574c:	4350      	muls	r0, r2
 800574e:	3318      	adds	r3, #24
 8005750:	446b      	add	r3, sp
 8005752:	f813 3c14 	ldrb.w	r3, [r3, #-20]
 8005756:	fbb0 f0f3 	udiv	r0, r0, r3
 800575a:	b007      	add	sp, #28
 800575c:	bd30      	pop	{r4, r5, pc}
 800575e:	4b05      	ldr	r3, [pc, #20]	; (8005774 <HAL_RCC_GetSysClockFreq+0x70>)
 8005760:	4358      	muls	r0, r3
 8005762:	e7fa      	b.n	800575a <HAL_RCC_GetSysClockFreq+0x56>
 8005764:	4802      	ldr	r0, [pc, #8]	; (8005770 <HAL_RCC_GetSysClockFreq+0x6c>)
 8005766:	e7f8      	b.n	800575a <HAL_RCC_GetSysClockFreq+0x56>
 8005768:	08007a25 	.word	0x08007a25
 800576c:	40021000 	.word	0x40021000
 8005770:	007a1200 	.word	0x007a1200
 8005774:	003d0900 	.word	0x003d0900

08005778 <HAL_RCC_ClockConfig>:
 8005778:	e92d 41f0 	stmdb	sp!, {r4, r5, r6, r7, r8, lr}
 800577c:	460d      	mov	r5, r1
 800577e:	4604      	mov	r4, r0
 8005780:	b910      	cbnz	r0, 8005788 <HAL_RCC_ClockConfig+0x10>
 8005782:	2001      	movs	r0, #1
 8005784:	e8bd 81f0 	ldmia.w	sp!, {r4, r5, r6, r7, r8, pc}
 8005788:	4a44      	ldr	r2, [pc, #272]	; (800589c <HAL_RCC_ClockConfig+0x124>)
 800578a:	6813      	ldr	r3, [r2, #0]
 800578c:	f003 0307 	and.w	r3, r3, #7
 8005790:	428b      	cmp	r3, r1
 8005792:	d328      	bcc.n	80057e6 <HAL_RCC_ClockConfig+0x6e>
 8005794:	6821      	ldr	r1, [r4, #0]
 8005796:	078e      	lsls	r6, r1, #30
 8005798:	d430      	bmi.n	80057fc <HAL_RCC_ClockConfig+0x84>
 800579a:	07ca      	lsls	r2, r1, #31
 800579c:	d443      	bmi.n	8005826 <HAL_RCC_ClockConfig+0xae>
 800579e:	4a3f      	ldr	r2, [pc, #252]	; (800589c <HAL_RCC_ClockConfig+0x124>)
 80057a0:	6813      	ldr	r3, [r2, #0]
 80057a2:	f003 0307 	and.w	r3, r3, #7
 80057a6:	42ab      	cmp	r3, r5
 80057a8:	d865      	bhi.n	8005876 <HAL_RCC_ClockConfig+0xfe>
 80057aa:	6822      	ldr	r2, [r4, #0]
 80057ac:	4d3c      	ldr	r5, [pc, #240]	; (80058a0 <HAL_RCC_ClockConfig+0x128>)
 80057ae:	f012 0f04 	tst.w	r2, #4
 80057b2:	d16c      	bne.n	800588e <HAL_RCC_ClockConfig+0x116>
 80057b4:	0713      	lsls	r3, r2, #28
 80057b6:	d506      	bpl.n	80057c6 <HAL_RCC_ClockConfig+0x4e>
 80057b8:	686b      	ldr	r3, [r5, #4]
 80057ba:	6922      	ldr	r2, [r4, #16]
 80057bc:	f423 5360 	bic.w	r3, r3, #14336	; 0x3800
 80057c0:	ea43 03c2 	orr.w	r3, r3, r2, lsl #3
 80057c4:	606b      	str	r3, [r5, #4]
 80057c6:	f7ff ff9d 	bl	8005704 <HAL_RCC_GetSysClockFreq>
 80057ca:	686b      	ldr	r3, [r5, #4]
 80057cc:	4a35      	ldr	r2, [pc, #212]	; (80058a4 <HAL_RCC_ClockConfig+0x12c>)
 80057ce:	f3c3 1303 	ubfx	r3, r3, #4, #4
 80057d2:	5cd3      	ldrb	r3, [r2, r3]
 80057d4:	40d8      	lsrs	r0, r3
 80057d6:	4b34      	ldr	r3, [pc, #208]	; (80058a8 <HAL_RCC_ClockConfig+0x130>)
 80057d8:	6018      	str	r0, [r3, #0]
 80057da:	4b34      	ldr	r3, [pc, #208]	; (80058ac <HAL_RCC_ClockConfig+0x134>)
 80057dc:	6818      	ldr	r0, [r3, #0]
 80057de:	f7ff fc5d 	bl	800509c <HAL_InitTick>
 80057e2:	2000      	movs	r0, #0
 80057e4:	e7ce      	b.n	8005784 <HAL_RCC_ClockConfig+0xc>
 80057e6:	6813      	ldr	r3, [r2, #0]
 80057e8:	f023 0307 	bic.w	r3, r3, #7
 80057ec:	430b      	orrs	r3, r1
 80057ee:	6013      	str	r3, [r2, #0]
 80057f0:	6813      	ldr	r3, [r2, #0]
 80057f2:	f003 0307 	and.w	r3, r3, #7
 80057f6:	428b      	cmp	r3, r1
 80057f8:	d1c3      	bne.n	8005782 <HAL_RCC_ClockConfig+0xa>
 80057fa:	e7cb      	b.n	8005794 <HAL_RCC_ClockConfig+0x1c>
 80057fc:	4b28      	ldr	r3, [pc, #160]	; (80058a0 <HAL_RCC_ClockConfig+0x128>)
 80057fe:	f011 0f04 	tst.w	r1, #4
 8005802:	bf1e      	ittt	ne
 8005804:	685a      	ldrne	r2, [r3, #4]
 8005806:	f442 62e0 	orrne.w	r2, r2, #1792	; 0x700
 800580a:	605a      	strne	r2, [r3, #4]
 800580c:	0708      	lsls	r0, r1, #28
 800580e:	bf42      	ittt	mi
 8005810:	685a      	ldrmi	r2, [r3, #4]
 8005812:	f442 5260 	orrmi.w	r2, r2, #14336	; 0x3800
 8005816:	605a      	strmi	r2, [r3, #4]
 8005818:	685a      	ldr	r2, [r3, #4]
 800581a:	68a0      	ldr	r0, [r4, #8]
 800581c:	f022 02f0 	bic.w	r2, r2, #240	; 0xf0
 8005820:	4302      	orrs	r2, r0
 8005822:	605a      	str	r2, [r3, #4]
 8005824:	e7b9      	b.n	800579a <HAL_RCC_ClockConfig+0x22>
 8005826:	6862      	ldr	r2, [r4, #4]
 8005828:	4e1d      	ldr	r6, [pc, #116]	; (80058a0 <HAL_RCC_ClockConfig+0x128>)
 800582a:	2a01      	cmp	r2, #1
 800582c:	6833      	ldr	r3, [r6, #0]
 800582e:	d11a      	bne.n	8005866 <HAL_RCC_ClockConfig+0xee>
 8005830:	f413 3f00 	tst.w	r3, #131072	; 0x20000
 8005834:	d0a5      	beq.n	8005782 <HAL_RCC_ClockConfig+0xa>
 8005836:	6873      	ldr	r3, [r6, #4]
 8005838:	f241 3888 	movw	r8, #5000	; 0x1388
 800583c:	f023 0303 	bic.w	r3, r3, #3
 8005840:	4313      	orrs	r3, r2
 8005842:	6073      	str	r3, [r6, #4]
 8005844:	f7ff fc6c 	bl	8005120 <HAL_GetTick>
 8005848:	4607      	mov	r7, r0
 800584a:	6873      	ldr	r3, [r6, #4]
 800584c:	6862      	ldr	r2, [r4, #4]
 800584e:	f003 030c 	and.w	r3, r3, #12
 8005852:	ebb3 0f82 	cmp.w	r3, r2, lsl #2
 8005856:	d0a2      	beq.n	800579e <HAL_RCC_ClockConfig+0x26>
 8005858:	f7ff fc62 	bl	8005120 <HAL_GetTick>
 800585c:	1bc0      	subs	r0, r0, r7
 800585e:	4540      	cmp	r0, r8
 8005860:	d9f3      	bls.n	800584a <HAL_RCC_ClockConfig+0xd2>
 8005862:	2003      	movs	r0, #3
 8005864:	e78e      	b.n	8005784 <HAL_RCC_ClockConfig+0xc>
 8005866:	2a02      	cmp	r2, #2
 8005868:	d102      	bne.n	8005870 <HAL_RCC_ClockConfig+0xf8>
 800586a:	f013 7f00 	tst.w	r3, #33554432	; 0x2000000
 800586e:	e7e1      	b.n	8005834 <HAL_RCC_ClockConfig+0xbc>
 8005870:	f013 0f02 	tst.w	r3, #2
 8005874:	e7de      	b.n	8005834 <HAL_RCC_ClockConfig+0xbc>
 8005876:	6813      	ldr	r3, [r2, #0]
 8005878:	f023 0307 	bic.w	r3, r3, #7
 800587c:	432b      	orrs	r3, r5
 800587e:	6013      	str	r3, [r2, #0]
 8005880:	6813      	ldr	r3, [r2, #0]
 8005882:	f003 0307 	and.w	r3, r3, #7
 8005886:	42ab      	cmp	r3, r5
 8005888:	f47f af7b 	bne.w	8005782 <HAL_RCC_ClockConfig+0xa>
 800588c:	e78d      	b.n	80057aa <HAL_RCC_ClockConfig+0x32>
 800588e:	686b      	ldr	r3, [r5, #4]
 8005890:	68e1      	ldr	r1, [r4, #12]
 8005892:	f423 63e0 	bic.w	r3, r3, #1792	; 0x700
 8005896:	430b      	orrs	r3, r1
 8005898:	606b      	str	r3, [r5, #4]
 800589a:	e78b      	b.n	80057b4 <HAL_RCC_ClockConfig+0x3c>
 800589c:	40022000 	.word	0x40022000
 80058a0:	40021000 	.word	0x40021000
 80058a4:	08007a15 	.word	0x08007a15
 80058a8:	20000004 	.word	0x20000004
 80058ac:	2000000c 	.word	0x2000000c

080058b0 <siprintf>:
 80058b0:	b40e      	push	{r1, r2, r3}
 80058b2:	f06f 4100 	mvn.w	r1, #2147483648	; 0x80000000
 80058b6:	b500      	push	{lr}
 80058b8:	b09c      	sub	sp, #112	; 0x70
 80058ba:	ab1d      	add	r3, sp, #116	; 0x74
 80058bc:	9002      	str	r0, [sp, #8]
 80058be:	9006      	str	r0, [sp, #24]
 80058c0:	9107      	str	r1, [sp, #28]
 80058c2:	9104      	str	r1, [sp, #16]
 80058c4:	4808      	ldr	r0, [pc, #32]	; (80058e8 <siprintf+0x38>)
 80058c6:	4909      	ldr	r1, [pc, #36]	; (80058ec <siprintf+0x3c>)
 80058c8:	f853 2b04 	ldr.w	r2, [r3], #4
 80058cc:	9105      	str	r1, [sp, #20]
 80058ce:	6800      	ldr	r0, [r0, #0]
 80058d0:	a902      	add	r1, sp, #8
 80058d2:	9301      	str	r3, [sp, #4]
 80058d4:	f000 f98e 	bl	8005bf4 <_svfiprintf_r>
 80058d8:	2200      	movs	r2, #0
 80058da:	9b02      	ldr	r3, [sp, #8]
 80058dc:	701a      	strb	r2, [r3, #0]
 80058de:	b01c      	add	sp, #112	; 0x70
 80058e0:	f85d eb04 	ldr.w	lr, [sp], #4
 80058e4:	b003      	add	sp, #12
 80058e6:	4770      	bx	lr
 80058e8:	2000005c 	.word	0x2000005c
 80058ec:	ffff0208 	.word	0xffff0208

080058f0 <memset>:
 80058f0:	4603      	mov	r3, r0
 80058f2:	4402      	add	r2, r0
 80058f4:	4293      	cmp	r3, r2
 80058f6:	d100      	bne.n	80058fa <memset+0xa>
 80058f8:	4770      	bx	lr
 80058fa:	f803 1b01 	strb.w	r1, [r3], #1
 80058fe:	e7f9      	b.n	80058f4 <memset+0x4>

08005900 <__errno>:
 8005900:	4b01      	ldr	r3, [pc, #4]	; (8005908 <__errno+0x8>)
 8005902:	6818      	ldr	r0, [r3, #0]
 8005904:	4770      	bx	lr
 8005906:	bf00      	nop
 8005908:	2000005c 	.word	0x2000005c

0800590c <__libc_init_array>:
 800590c:	b570      	push	{r4, r5, r6, lr}
 800590e:	2600      	movs	r6, #0
 8005910:	4d0c      	ldr	r5, [pc, #48]	; (8005944 <__libc_init_array+0x38>)
 8005912:	4c0d      	ldr	r4, [pc, #52]	; (8005948 <__libc_init_array+0x3c>)
 8005914:	1b64      	subs	r4, r4, r5
 8005916:	10a4      	asrs	r4, r4, #2
 8005918:	42a6      	cmp	r6, r4
 800591a:	d109      	bne.n	8005930 <__libc_init_array+0x24>
 800591c:	f000 fc7a 	bl	8006214 <_init>
 8005920:	2600      	movs	r6, #0
 8005922:	4d0a      	ldr	r5, [pc, #40]	; (800594c <__libc_init_array+0x40>)
 8005924:	4c0a      	ldr	r4, [pc, #40]	; (8005950 <__libc_init_array+0x44>)
 8005926:	1b64      	subs	r4, r4, r5
 8005928:	10a4      	asrs	r4, r4, #2
 800592a:	42a6      	cmp	r6, r4
 800592c:	d105      	bne.n	800593a <__libc_init_array+0x2e>
 800592e:	bd70      	pop	{r4, r5, r6, pc}
 8005930:	f855 3b04 	ldr.w	r3, [r5], #4
 8005934:	4798      	blx	r3
 8005936:	3601      	adds	r6, #1
 8005938:	e7ee      	b.n	8005918 <__libc_init_array+0xc>
 800593a:	f855 3b04 	ldr.w	r3, [r5], #4
 800593e:	4798      	blx	r3
 8005940:	3601      	adds	r6, #1
 8005942:	e7f2      	b.n	800592a <__libc_init_array+0x1e>
 8005944:	08007a6c 	.word	0x08007a6c
 8005948:	08007a6c 	.word	0x08007a6c
 800594c:	08007a6c 	.word	0x08007a6c
 8005950:	08007a70 	.word	0x08007a70

08005954 <__retarget_lock_acquire_recursive>:
 8005954:	4770      	bx	lr

08005956 <__retarget_lock_release_recursive>:
 8005956:	4770      	bx	lr

08005958 <_free_r>:
 8005958:	b538      	push	{r3, r4, r5, lr}
 800595a:	4605      	mov	r5, r0
 800595c:	2900      	cmp	r1, #0
 800595e:	d040      	beq.n	80059e2 <_free_r+0x8a>
 8005960:	f851 3c04 	ldr.w	r3, [r1, #-4]
 8005964:	1f0c      	subs	r4, r1, #4
 8005966:	2b00      	cmp	r3, #0
 8005968:	bfb8      	it	lt
 800596a:	18e4      	addlt	r4, r4, r3
 800596c:	f000 f8dc 	bl	8005b28 <__malloc_lock>
 8005970:	4a1c      	ldr	r2, [pc, #112]	; (80059e4 <_free_r+0x8c>)
 8005972:	6813      	ldr	r3, [r2, #0]
 8005974:	b933      	cbnz	r3, 8005984 <_free_r+0x2c>
 8005976:	6063      	str	r3, [r4, #4]
 8005978:	6014      	str	r4, [r2, #0]
 800597a:	4628      	mov	r0, r5
 800597c:	e8bd 4038 	ldmia.w	sp!, {r3, r4, r5, lr}
 8005980:	f000 b8d8 	b.w	8005b34 <__malloc_unlock>
 8005984:	42a3      	cmp	r3, r4
 8005986:	d908      	bls.n	800599a <_free_r+0x42>
 8005988:	6820      	ldr	r0, [r4, #0]
 800598a:	1821      	adds	r1, r4, r0
 800598c:	428b      	cmp	r3, r1
 800598e:	bf01      	itttt	eq
 8005990:	6819      	ldreq	r1, [r3, #0]
 8005992:	685b      	ldreq	r3, [r3, #4]
 8005994:	1809      	addeq	r1, r1, r0
 8005996:	6021      	streq	r1, [r4, #0]
 8005998:	e7ed      	b.n	8005976 <_free_r+0x1e>
 800599a:	461a      	mov	r2, r3
 800599c:	685b      	ldr	r3, [r3, #4]
 800599e:	b10b      	cbz	r3, 80059a4 <_free_r+0x4c>
 80059a0:	42a3      	cmp	r3, r4
 80059a2:	d9fa      	bls.n	800599a <_free_r+0x42>
 80059a4:	6811      	ldr	r1, [r2, #0]
 80059a6:	1850      	adds	r0, r2, r1
 80059a8:	42a0      	cmp	r0, r4
 80059aa:	d10b      	bne.n	80059c4 <_free_r+0x6c>
 80059ac:	6820      	ldr	r0, [r4, #0]
 80059ae:	4401      	add	r1, r0
 80059b0:	1850      	adds	r0, r2, r1
 80059b2:	4283      	cmp	r3, r0
 80059b4:	6011      	str	r1, [r2, #0]
 80059b6:	d1e0      	bne.n	800597a <_free_r+0x22>
 80059b8:	6818      	ldr	r0, [r3, #0]
 80059ba:	685b      	ldr	r3, [r3, #4]
 80059bc:	4408      	add	r0, r1
 80059be:	6010      	str	r0, [r2, #0]
 80059c0:	6053      	str	r3, [r2, #4]
 80059c2:	e7da      	b.n	800597a <_free_r+0x22>
 80059c4:	d902      	bls.n	80059cc <_free_r+0x74>
 80059c6:	230c      	movs	r3, #12
 80059c8:	602b      	str	r3, [r5, #0]
 80059ca:	e7d6      	b.n	800597a <_free_r+0x22>
 80059cc:	6820      	ldr	r0, [r4, #0]
 80059ce:	1821      	adds	r1, r4, r0
 80059d0:	428b      	cmp	r3, r1
 80059d2:	bf01      	itttt	eq
 80059d4:	6819      	ldreq	r1, [r3, #0]
 80059d6:	685b      	ldreq	r3, [r3, #4]
 80059d8:	1809      	addeq	r1, r1, r0
 80059da:	6021      	streq	r1, [r4, #0]
 80059dc:	6063      	str	r3, [r4, #4]
 80059de:	6054      	str	r4, [r2, #4]
 80059e0:	e7cb      	b.n	800597a <_free_r+0x22>
 80059e2:	bd38      	pop	{r3, r4, r5, pc}
 80059e4:	200001d4 	.word	0x200001d4

080059e8 <sbrk_aligned>:
 80059e8:	b570      	push	{r4, r5, r6, lr}
 80059ea:	4e0e      	ldr	r6, [pc, #56]	; (8005a24 <sbrk_aligned+0x3c>)
 80059ec:	460c      	mov	r4, r1
 80059ee:	6831      	ldr	r1, [r6, #0]
 80059f0:	4605      	mov	r5, r0
 80059f2:	b911      	cbnz	r1, 80059fa <sbrk_aligned+0x12>
 80059f4:	f000 fbaa 	bl	800614c <_sbrk_r>
 80059f8:	6030      	str	r0, [r6, #0]
 80059fa:	4621      	mov	r1, r4
 80059fc:	4628      	mov	r0, r5
 80059fe:	f000 fba5 	bl	800614c <_sbrk_r>
 8005a02:	1c43      	adds	r3, r0, #1
 8005a04:	d00a      	beq.n	8005a1c <sbrk_aligned+0x34>
 8005a06:	1cc4      	adds	r4, r0, #3
 8005a08:	f024 0403 	bic.w	r4, r4, #3
 8005a0c:	42a0      	cmp	r0, r4
 8005a0e:	d007      	beq.n	8005a20 <sbrk_aligned+0x38>
 8005a10:	1a21      	subs	r1, r4, r0
 8005a12:	4628      	mov	r0, r5
 8005a14:	f000 fb9a 	bl	800614c <_sbrk_r>
 8005a18:	3001      	adds	r0, #1
 8005a1a:	d101      	bne.n	8005a20 <sbrk_aligned+0x38>
 8005a1c:	f04f 34ff 	mov.w	r4, #4294967295
 8005a20:	4620      	mov	r0, r4
 8005a22:	bd70      	pop	{r4, r5, r6, pc}
 8005a24:	200001d8 	.word	0x200001d8

08005a28 <_malloc_r>:
 8005a28:	e92d 43f8 	stmdb	sp!, {r3, r4, r5, r6, r7, r8, r9, lr}
 8005a2c:	1ccd      	adds	r5, r1, #3
 8005a2e:	f025 0503 	bic.w	r5, r5, #3
 8005a32:	3508      	adds	r5, #8
 8005a34:	2d0c      	cmp	r5, #12
 8005a36:	bf38      	it	cc
 8005a38:	250c      	movcc	r5, #12
 8005a3a:	2d00      	cmp	r5, #0
 8005a3c:	4607      	mov	r7, r0
 8005a3e:	db01      	blt.n	8005a44 <_malloc_r+0x1c>
 8005a40:	42a9      	cmp	r1, r5
 8005a42:	d905      	bls.n	8005a50 <_malloc_r+0x28>
 8005a44:	230c      	movs	r3, #12
 8005a46:	2600      	movs	r6, #0
 8005a48:	603b      	str	r3, [r7, #0]
 8005a4a:	4630      	mov	r0, r6
 8005a4c:	e8bd 83f8 	ldmia.w	sp!, {r3, r4, r5, r6, r7, r8, r9, pc}
 8005a50:	f8df 80d0 	ldr.w	r8, [pc, #208]	; 8005b24 <_malloc_r+0xfc>
 8005a54:	f000 f868 	bl	8005b28 <__malloc_lock>
 8005a58:	f8d8 3000 	ldr.w	r3, [r8]
 8005a5c:	461c      	mov	r4, r3
 8005a5e:	bb5c      	cbnz	r4, 8005ab8 <_malloc_r+0x90>
 8005a60:	4629      	mov	r1, r5
 8005a62:	4638      	mov	r0, r7
 8005a64:	f7ff ffc0 	bl	80059e8 <sbrk_aligned>
 8005a68:	1c43      	adds	r3, r0, #1
 8005a6a:	4604      	mov	r4, r0
 8005a6c:	d155      	bne.n	8005b1a <_malloc_r+0xf2>
 8005a6e:	f8d8 4000 	ldr.w	r4, [r8]
 8005a72:	4626      	mov	r6, r4
 8005a74:	2e00      	cmp	r6, #0
 8005a76:	d145      	bne.n	8005b04 <_malloc_r+0xdc>
 8005a78:	2c00      	cmp	r4, #0
 8005a7a:	d048      	beq.n	8005b0e <_malloc_r+0xe6>
 8005a7c:	6823      	ldr	r3, [r4, #0]
 8005a7e:	4631      	mov	r1, r6
 8005a80:	4638      	mov	r0, r7
 8005a82:	eb04 0903 	add.w	r9, r4, r3
 8005a86:	f000 fb61 	bl	800614c <_sbrk_r>
 8005a8a:	4581      	cmp	r9, r0
 8005a8c:	d13f      	bne.n	8005b0e <_malloc_r+0xe6>
 8005a8e:	6821      	ldr	r1, [r4, #0]
 8005a90:	4638      	mov	r0, r7
 8005a92:	1a6d      	subs	r5, r5, r1
 8005a94:	4629      	mov	r1, r5
 8005a96:	f7ff ffa7 	bl	80059e8 <sbrk_aligned>
 8005a9a:	3001      	adds	r0, #1
 8005a9c:	d037      	beq.n	8005b0e <_malloc_r+0xe6>
 8005a9e:	6823      	ldr	r3, [r4, #0]
 8005aa0:	442b      	add	r3, r5
 8005aa2:	6023      	str	r3, [r4, #0]
 8005aa4:	f8d8 3000 	ldr.w	r3, [r8]
 8005aa8:	2b00      	cmp	r3, #0
 8005aaa:	d038      	beq.n	8005b1e <_malloc_r+0xf6>
 8005aac:	685a      	ldr	r2, [r3, #4]
 8005aae:	42a2      	cmp	r2, r4
 8005ab0:	d12b      	bne.n	8005b0a <_malloc_r+0xe2>
 8005ab2:	2200      	movs	r2, #0
 8005ab4:	605a      	str	r2, [r3, #4]
 8005ab6:	e00f      	b.n	8005ad8 <_malloc_r+0xb0>
 8005ab8:	6822      	ldr	r2, [r4, #0]
 8005aba:	1b52      	subs	r2, r2, r5
 8005abc:	d41f      	bmi.n	8005afe <_malloc_r+0xd6>
 8005abe:	2a0b      	cmp	r2, #11
 8005ac0:	d917      	bls.n	8005af2 <_malloc_r+0xca>
 8005ac2:	1961      	adds	r1, r4, r5
 8005ac4:	42a3      	cmp	r3, r4
 8005ac6:	6025      	str	r5, [r4, #0]
 8005ac8:	bf18      	it	ne
 8005aca:	6059      	strne	r1, [r3, #4]
 8005acc:	6863      	ldr	r3, [r4, #4]
 8005ace:	bf08      	it	eq
 8005ad0:	f8c8 1000 	streq.w	r1, [r8]
 8005ad4:	5162      	str	r2, [r4, r5]
 8005ad6:	604b      	str	r3, [r1, #4]
 8005ad8:	4638      	mov	r0, r7
 8005ada:	f104 060b 	add.w	r6, r4, #11
 8005ade:	f000 f829 	bl	8005b34 <__malloc_unlock>
 8005ae2:	f026 0607 	bic.w	r6, r6, #7
 8005ae6:	1d23      	adds	r3, r4, #4
 8005ae8:	1af2      	subs	r2, r6, r3
 8005aea:	d0ae      	beq.n	8005a4a <_malloc_r+0x22>
 8005aec:	1b9b      	subs	r3, r3, r6
 8005aee:	50a3      	str	r3, [r4, r2]
 8005af0:	e7ab      	b.n	8005a4a <_malloc_r+0x22>
 8005af2:	42a3      	cmp	r3, r4
 8005af4:	6862      	ldr	r2, [r4, #4]
 8005af6:	d1dd      	bne.n	8005ab4 <_malloc_r+0x8c>
 8005af8:	f8c8 2000 	str.w	r2, [r8]
 8005afc:	e7ec      	b.n	8005ad8 <_malloc_r+0xb0>
 8005afe:	4623      	mov	r3, r4
 8005b00:	6864      	ldr	r4, [r4, #4]
 8005b02:	e7ac      	b.n	8005a5e <_malloc_r+0x36>
 8005b04:	4634      	mov	r4, r6
 8005b06:	6876      	ldr	r6, [r6, #4]
 8005b08:	e7b4      	b.n	8005a74 <_malloc_r+0x4c>
 8005b0a:	4613      	mov	r3, r2
 8005b0c:	e7cc      	b.n	8005aa8 <_malloc_r+0x80>
 8005b0e:	230c      	movs	r3, #12
 8005b10:	4638      	mov	r0, r7
 8005b12:	603b      	str	r3, [r7, #0]
 8005b14:	f000 f80e 	bl	8005b34 <__malloc_unlock>
 8005b18:	e797      	b.n	8005a4a <_malloc_r+0x22>
 8005b1a:	6025      	str	r5, [r4, #0]
 8005b1c:	e7dc      	b.n	8005ad8 <_malloc_r+0xb0>
 8005b1e:	605b      	str	r3, [r3, #4]
 8005b20:	deff      	udf	#255	; 0xff
 8005b22:	bf00      	nop
 8005b24:	200001d4 	.word	0x200001d4

08005b28 <__malloc_lock>:
 8005b28:	4801      	ldr	r0, [pc, #4]	; (8005b30 <__malloc_lock+0x8>)
 8005b2a:	f7ff bf13 	b.w	8005954 <__retarget_lock_acquire_recursive>
 8005b2e:	bf00      	nop
 8005b30:	200001d0 	.word	0x200001d0

08005b34 <__malloc_unlock>:
 8005b34:	4801      	ldr	r0, [pc, #4]	; (8005b3c <__malloc_unlock+0x8>)
 8005b36:	f7ff bf0e 	b.w	8005956 <__retarget_lock_release_recursive>
 8005b3a:	bf00      	nop
 8005b3c:	200001d0 	.word	0x200001d0

08005b40 <__ssputs_r>:
 8005b40:	e92d 47f0 	stmdb	sp!, {r4, r5, r6, r7, r8, r9, sl, lr}
 8005b44:	461f      	mov	r7, r3
 8005b46:	688e      	ldr	r6, [r1, #8]
 8005b48:	4682      	mov	sl, r0
 8005b4a:	42be      	cmp	r6, r7
 8005b4c:	460c      	mov	r4, r1
 8005b4e:	4690      	mov	r8, r2
 8005b50:	680b      	ldr	r3, [r1, #0]
 8005b52:	d82c      	bhi.n	8005bae <__ssputs_r+0x6e>
 8005b54:	898a      	ldrh	r2, [r1, #12]
 8005b56:	f412 6f90 	tst.w	r2, #1152	; 0x480
 8005b5a:	d026      	beq.n	8005baa <__ssputs_r+0x6a>
 8005b5c:	6965      	ldr	r5, [r4, #20]
 8005b5e:	6909      	ldr	r1, [r1, #16]
 8005b60:	eb05 0545 	add.w	r5, r5, r5, lsl #1
 8005b64:	eba3 0901 	sub.w	r9, r3, r1
 8005b68:	eb05 75d5 	add.w	r5, r5, r5, lsr #31
 8005b6c:	1c7b      	adds	r3, r7, #1
 8005b6e:	444b      	add	r3, r9
 8005b70:	106d      	asrs	r5, r5, #1
 8005b72:	429d      	cmp	r5, r3
 8005b74:	bf38      	it	cc
 8005b76:	461d      	movcc	r5, r3
 8005b78:	0553      	lsls	r3, r2, #21
 8005b7a:	d527      	bpl.n	8005bcc <__ssputs_r+0x8c>
 8005b7c:	4629      	mov	r1, r5
 8005b7e:	f7ff ff53 	bl	8005a28 <_malloc_r>
 8005b82:	4606      	mov	r6, r0
 8005b84:	b360      	cbz	r0, 8005be0 <__ssputs_r+0xa0>
 8005b86:	464a      	mov	r2, r9
 8005b88:	6921      	ldr	r1, [r4, #16]
 8005b8a:	f000 fafd 	bl	8006188 <memcpy>
 8005b8e:	89a3      	ldrh	r3, [r4, #12]
 8005b90:	f423 6390 	bic.w	r3, r3, #1152	; 0x480
 8005b94:	f043 0380 	orr.w	r3, r3, #128	; 0x80
 8005b98:	81a3      	strh	r3, [r4, #12]
 8005b9a:	6126      	str	r6, [r4, #16]
 8005b9c:	444e      	add	r6, r9
 8005b9e:	6026      	str	r6, [r4, #0]
 8005ba0:	463e      	mov	r6, r7
 8005ba2:	6165      	str	r5, [r4, #20]
 8005ba4:	eba5 0509 	sub.w	r5, r5, r9
 8005ba8:	60a5      	str	r5, [r4, #8]
 8005baa:	42be      	cmp	r6, r7
 8005bac:	d900      	bls.n	8005bb0 <__ssputs_r+0x70>
 8005bae:	463e      	mov	r6, r7
 8005bb0:	4632      	mov	r2, r6
 8005bb2:	4641      	mov	r1, r8
 8005bb4:	6820      	ldr	r0, [r4, #0]
 8005bb6:	f000 faaf 	bl	8006118 <memmove>
 8005bba:	2000      	movs	r0, #0
 8005bbc:	68a3      	ldr	r3, [r4, #8]
 8005bbe:	1b9b      	subs	r3, r3, r6
 8005bc0:	60a3      	str	r3, [r4, #8]
 8005bc2:	6823      	ldr	r3, [r4, #0]
 8005bc4:	4433      	add	r3, r6
 8005bc6:	6023      	str	r3, [r4, #0]
 8005bc8:	e8bd 87f0 	ldmia.w	sp!, {r4, r5, r6, r7, r8, r9, sl, pc}
 8005bcc:	462a      	mov	r2, r5
 8005bce:	f000 fae9 	bl	80061a4 <_realloc_r>
 8005bd2:	4606      	mov	r6, r0
 8005bd4:	2800      	cmp	r0, #0
 8005bd6:	d1e0      	bne.n	8005b9a <__ssputs_r+0x5a>
 8005bd8:	4650      	mov	r0, sl
 8005bda:	6921      	ldr	r1, [r4, #16]
 8005bdc:	f7ff febc 	bl	8005958 <_free_r>
 8005be0:	230c      	movs	r3, #12
 8005be2:	f8ca 3000 	str.w	r3, [sl]
 8005be6:	89a3      	ldrh	r3, [r4, #12]
 8005be8:	f04f 30ff 	mov.w	r0, #4294967295
 8005bec:	f043 0340 	orr.w	r3, r3, #64	; 0x40
 8005bf0:	81a3      	strh	r3, [r4, #12]
 8005bf2:	e7e9      	b.n	8005bc8 <__ssputs_r+0x88>

08005bf4 <_svfiprintf_r>:
 8005bf4:	e92d 4ff0 	stmdb	sp!, {r4, r5, r6, r7, r8, r9, sl, fp, lr}
 8005bf8:	4698      	mov	r8, r3
 8005bfa:	898b      	ldrh	r3, [r1, #12]
 8005bfc:	4607      	mov	r7, r0
 8005bfe:	061b      	lsls	r3, r3, #24
 8005c00:	460d      	mov	r5, r1
 8005c02:	4614      	mov	r4, r2
 8005c04:	b09d      	sub	sp, #116	; 0x74
 8005c06:	d50e      	bpl.n	8005c26 <_svfiprintf_r+0x32>
 8005c08:	690b      	ldr	r3, [r1, #16]
 8005c0a:	b963      	cbnz	r3, 8005c26 <_svfiprintf_r+0x32>
 8005c0c:	2140      	movs	r1, #64	; 0x40
 8005c0e:	f7ff ff0b 	bl	8005a28 <_malloc_r>
 8005c12:	6028      	str	r0, [r5, #0]
 8005c14:	6128      	str	r0, [r5, #16]
 8005c16:	b920      	cbnz	r0, 8005c22 <_svfiprintf_r+0x2e>
 8005c18:	230c      	movs	r3, #12
 8005c1a:	603b      	str	r3, [r7, #0]
 8005c1c:	f04f 30ff 	mov.w	r0, #4294967295
 8005c20:	e0d0      	b.n	8005dc4 <_svfiprintf_r+0x1d0>
 8005c22:	2340      	movs	r3, #64	; 0x40
 8005c24:	616b      	str	r3, [r5, #20]
 8005c26:	2300      	movs	r3, #0
 8005c28:	9309      	str	r3, [sp, #36]	; 0x24
 8005c2a:	2320      	movs	r3, #32
 8005c2c:	f88d 3029 	strb.w	r3, [sp, #41]	; 0x29
 8005c30:	2330      	movs	r3, #48	; 0x30
 8005c32:	f04f 0901 	mov.w	r9, #1
 8005c36:	f8cd 800c 	str.w	r8, [sp, #12]
 8005c3a:	f8df 81a0 	ldr.w	r8, [pc, #416]	; 8005ddc <_svfiprintf_r+0x1e8>
 8005c3e:	f88d 302a 	strb.w	r3, [sp, #42]	; 0x2a
 8005c42:	4623      	mov	r3, r4
 8005c44:	469a      	mov	sl, r3
 8005c46:	f813 2b01 	ldrb.w	r2, [r3], #1
 8005c4a:	b10a      	cbz	r2, 8005c50 <_svfiprintf_r+0x5c>
 8005c4c:	2a25      	cmp	r2, #37	; 0x25
 8005c4e:	d1f9      	bne.n	8005c44 <_svfiprintf_r+0x50>
 8005c50:	ebba 0b04 	subs.w	fp, sl, r4
 8005c54:	d00b      	beq.n	8005c6e <_svfiprintf_r+0x7a>
 8005c56:	465b      	mov	r3, fp
 8005c58:	4622      	mov	r2, r4
 8005c5a:	4629      	mov	r1, r5
 8005c5c:	4638      	mov	r0, r7
 8005c5e:	f7ff ff6f 	bl	8005b40 <__ssputs_r>
 8005c62:	3001      	adds	r0, #1
 8005c64:	f000 80a9 	beq.w	8005dba <_svfiprintf_r+0x1c6>
 8005c68:	9a09      	ldr	r2, [sp, #36]	; 0x24
 8005c6a:	445a      	add	r2, fp
 8005c6c:	9209      	str	r2, [sp, #36]	; 0x24
 8005c6e:	f89a 3000 	ldrb.w	r3, [sl]
 8005c72:	2b00      	cmp	r3, #0
 8005c74:	f000 80a1 	beq.w	8005dba <_svfiprintf_r+0x1c6>
 8005c78:	2300      	movs	r3, #0
 8005c7a:	f04f 32ff 	mov.w	r2, #4294967295
 8005c7e:	e9cd 2305 	strd	r2, r3, [sp, #20]
 8005c82:	f10a 0a01 	add.w	sl, sl, #1
 8005c86:	9304      	str	r3, [sp, #16]
 8005c88:	9307      	str	r3, [sp, #28]
 8005c8a:	f88d 3053 	strb.w	r3, [sp, #83]	; 0x53
 8005c8e:	931a      	str	r3, [sp, #104]	; 0x68
 8005c90:	4654      	mov	r4, sl
 8005c92:	2205      	movs	r2, #5
 8005c94:	f814 1b01 	ldrb.w	r1, [r4], #1
 8005c98:	4850      	ldr	r0, [pc, #320]	; (8005ddc <_svfiprintf_r+0x1e8>)
 8005c9a:	f000 fa67 	bl	800616c <memchr>
 8005c9e:	9a04      	ldr	r2, [sp, #16]
 8005ca0:	b9d8      	cbnz	r0, 8005cda <_svfiprintf_r+0xe6>
 8005ca2:	06d0      	lsls	r0, r2, #27
 8005ca4:	bf44      	itt	mi
 8005ca6:	2320      	movmi	r3, #32
 8005ca8:	f88d 3053 	strbmi.w	r3, [sp, #83]	; 0x53
 8005cac:	0711      	lsls	r1, r2, #28
 8005cae:	bf44      	itt	mi
 8005cb0:	232b      	movmi	r3, #43	; 0x2b
 8005cb2:	f88d 3053 	strbmi.w	r3, [sp, #83]	; 0x53
 8005cb6:	f89a 3000 	ldrb.w	r3, [sl]
 8005cba:	2b2a      	cmp	r3, #42	; 0x2a
 8005cbc:	d015      	beq.n	8005cea <_svfiprintf_r+0xf6>
 8005cbe:	4654      	mov	r4, sl
 8005cc0:	2000      	movs	r0, #0
 8005cc2:	f04f 0c0a 	mov.w	ip, #10
 8005cc6:	9a07      	ldr	r2, [sp, #28]
 8005cc8:	4621      	mov	r1, r4
 8005cca:	f811 3b01 	ldrb.w	r3, [r1], #1
 8005cce:	3b30      	subs	r3, #48	; 0x30
 8005cd0:	2b09      	cmp	r3, #9
 8005cd2:	d94d      	bls.n	8005d70 <_svfiprintf_r+0x17c>
 8005cd4:	b1b0      	cbz	r0, 8005d04 <_svfiprintf_r+0x110>
 8005cd6:	9207      	str	r2, [sp, #28]
 8005cd8:	e014      	b.n	8005d04 <_svfiprintf_r+0x110>
 8005cda:	eba0 0308 	sub.w	r3, r0, r8
 8005cde:	fa09 f303 	lsl.w	r3, r9, r3
 8005ce2:	4313      	orrs	r3, r2
 8005ce4:	46a2      	mov	sl, r4
 8005ce6:	9304      	str	r3, [sp, #16]
 8005ce8:	e7d2      	b.n	8005c90 <_svfiprintf_r+0x9c>
 8005cea:	9b03      	ldr	r3, [sp, #12]
 8005cec:	1d19      	adds	r1, r3, #4
 8005cee:	681b      	ldr	r3, [r3, #0]
 8005cf0:	9103      	str	r1, [sp, #12]
 8005cf2:	2b00      	cmp	r3, #0
 8005cf4:	bfbb      	ittet	lt
 8005cf6:	425b      	neglt	r3, r3
 8005cf8:	f042 0202 	orrlt.w	r2, r2, #2
 8005cfc:	9307      	strge	r3, [sp, #28]
 8005cfe:	9307      	strlt	r3, [sp, #28]
 8005d00:	bfb8      	it	lt
 8005d02:	9204      	strlt	r2, [sp, #16]
 8005d04:	7823      	ldrb	r3, [r4, #0]
 8005d06:	2b2e      	cmp	r3, #46	; 0x2e
 8005d08:	d10c      	bne.n	8005d24 <_svfiprintf_r+0x130>
 8005d0a:	7863      	ldrb	r3, [r4, #1]
 8005d0c:	2b2a      	cmp	r3, #42	; 0x2a
 8005d0e:	d134      	bne.n	8005d7a <_svfiprintf_r+0x186>
 8005d10:	9b03      	ldr	r3, [sp, #12]
 8005d12:	3402      	adds	r4, #2
 8005d14:	1d1a      	adds	r2, r3, #4
 8005d16:	681b      	ldr	r3, [r3, #0]
 8005d18:	9203      	str	r2, [sp, #12]
 8005d1a:	2b00      	cmp	r3, #0
 8005d1c:	bfb8      	it	lt
 8005d1e:	f04f 33ff 	movlt.w	r3, #4294967295
 8005d22:	9305      	str	r3, [sp, #20]
 8005d24:	f8df a0b8 	ldr.w	sl, [pc, #184]	; 8005de0 <_svfiprintf_r+0x1ec>
 8005d28:	2203      	movs	r2, #3
 8005d2a:	4650      	mov	r0, sl
 8005d2c:	7821      	ldrb	r1, [r4, #0]
 8005d2e:	f000 fa1d 	bl	800616c <memchr>
 8005d32:	b138      	cbz	r0, 8005d44 <_svfiprintf_r+0x150>
 8005d34:	2240      	movs	r2, #64	; 0x40
 8005d36:	9b04      	ldr	r3, [sp, #16]
 8005d38:	eba0 000a 	sub.w	r0, r0, sl
 8005d3c:	4082      	lsls	r2, r0
 8005d3e:	4313      	orrs	r3, r2
 8005d40:	3401      	adds	r4, #1
 8005d42:	9304      	str	r3, [sp, #16]
 8005d44:	f814 1b01 	ldrb.w	r1, [r4], #1
 8005d48:	2206      	movs	r2, #6
 8005d4a:	4826      	ldr	r0, [pc, #152]	; (8005de4 <_svfiprintf_r+0x1f0>)
 8005d4c:	f88d 1028 	strb.w	r1, [sp, #40]	; 0x28
 8005d50:	f000 fa0c 	bl	800616c <memchr>
 8005d54:	2800      	cmp	r0, #0
 8005d56:	d038      	beq.n	8005dca <_svfiprintf_r+0x1d6>
 8005d58:	4b23      	ldr	r3, [pc, #140]	; (8005de8 <_svfiprintf_r+0x1f4>)
 8005d5a:	bb1b      	cbnz	r3, 8005da4 <_svfiprintf_r+0x1b0>
 8005d5c:	9b03      	ldr	r3, [sp, #12]
 8005d5e:	3307      	adds	r3, #7
 8005d60:	f023 0307 	bic.w	r3, r3, #7
 8005d64:	3308      	adds	r3, #8
 8005d66:	9303      	str	r3, [sp, #12]
 8005d68:	9b09      	ldr	r3, [sp, #36]	; 0x24
 8005d6a:	4433      	add	r3, r6
 8005d6c:	9309      	str	r3, [sp, #36]	; 0x24
 8005d6e:	e768      	b.n	8005c42 <_svfiprintf_r+0x4e>
 8005d70:	460c      	mov	r4, r1
 8005d72:	2001      	movs	r0, #1
 8005d74:	fb0c 3202 	mla	r2, ip, r2, r3
 8005d78:	e7a6      	b.n	8005cc8 <_svfiprintf_r+0xd4>
 8005d7a:	2300      	movs	r3, #0
 8005d7c:	f04f 0c0a 	mov.w	ip, #10
 8005d80:	4619      	mov	r1, r3
 8005d82:	3401      	adds	r4, #1
 8005d84:	9305      	str	r3, [sp, #20]
 8005d86:	4620      	mov	r0, r4
 8005d88:	f810 2b01 	ldrb.w	r2, [r0], #1
 8005d8c:	3a30      	subs	r2, #48	; 0x30
 8005d8e:	2a09      	cmp	r2, #9
 8005d90:	d903      	bls.n	8005d9a <_svfiprintf_r+0x1a6>
 8005d92:	2b00      	cmp	r3, #0
 8005d94:	d0c6      	beq.n	8005d24 <_svfiprintf_r+0x130>
 8005d96:	9105      	str	r1, [sp, #20]
 8005d98:	e7c4      	b.n	8005d24 <_svfiprintf_r+0x130>
 8005d9a:	4604      	mov	r4, r0
 8005d9c:	2301      	movs	r3, #1
 8005d9e:	fb0c 2101 	mla	r1, ip, r1, r2
 8005da2:	e7f0      	b.n	8005d86 <_svfiprintf_r+0x192>
 8005da4:	ab03      	add	r3, sp, #12
 8005da6:	9300      	str	r3, [sp, #0]
 8005da8:	462a      	mov	r2, r5
 8005daa:	4638      	mov	r0, r7
 8005dac:	4b0f      	ldr	r3, [pc, #60]	; (8005dec <_svfiprintf_r+0x1f8>)
 8005dae:	a904      	add	r1, sp, #16
 8005db0:	f3af 8000 	nop.w
 8005db4:	1c42      	adds	r2, r0, #1
 8005db6:	4606      	mov	r6, r0
 8005db8:	d1d6      	bne.n	8005d68 <_svfiprintf_r+0x174>
 8005dba:	89ab      	ldrh	r3, [r5, #12]
 8005dbc:	065b      	lsls	r3, r3, #25
 8005dbe:	f53f af2d 	bmi.w	8005c1c <_svfiprintf_r+0x28>
 8005dc2:	9809      	ldr	r0, [sp, #36]	; 0x24
 8005dc4:	b01d      	add	sp, #116	; 0x74
 8005dc6:	e8bd 8ff0 	ldmia.w	sp!, {r4, r5, r6, r7, r8, r9, sl, fp, pc}
 8005dca:	ab03      	add	r3, sp, #12
 8005dcc:	9300      	str	r3, [sp, #0]
 8005dce:	462a      	mov	r2, r5
 8005dd0:	4638      	mov	r0, r7
 8005dd2:	4b06      	ldr	r3, [pc, #24]	; (8005dec <_svfiprintf_r+0x1f8>)
 8005dd4:	a904      	add	r1, sp, #16
 8005dd6:	f000 f87d 	bl	8005ed4 <_printf_i>
 8005dda:	e7eb      	b.n	8005db4 <_svfiprintf_r+0x1c0>
 8005ddc:	08007a36 	.word	0x08007a36
 8005de0:	08007a3c 	.word	0x08007a3c
 8005de4:	08007a40 	.word	0x08007a40
 8005de8:	00000000 	.word	0x00000000
 8005dec:	08005b41 	.word	0x08005b41

08005df0 <_printf_common>:
 8005df0:	e92d 47f0 	stmdb	sp!, {r4, r5, r6, r7, r8, r9, sl, lr}
 8005df4:	4616      	mov	r6, r2
 8005df6:	4699      	mov	r9, r3
 8005df8:	688a      	ldr	r2, [r1, #8]
 8005dfa:	690b      	ldr	r3, [r1, #16]
 8005dfc:	4607      	mov	r7, r0
 8005dfe:	4293      	cmp	r3, r2
 8005e00:	bfb8      	it	lt
 8005e02:	4613      	movlt	r3, r2
 8005e04:	6033      	str	r3, [r6, #0]
 8005e06:	f891 2043 	ldrb.w	r2, [r1, #67]	; 0x43
 8005e0a:	460c      	mov	r4, r1
 8005e0c:	f8dd 8020 	ldr.w	r8, [sp, #32]
 8005e10:	b10a      	cbz	r2, 8005e16 <_printf_common+0x26>
 8005e12:	3301      	adds	r3, #1
 8005e14:	6033      	str	r3, [r6, #0]
 8005e16:	6823      	ldr	r3, [r4, #0]
 8005e18:	0699      	lsls	r1, r3, #26
 8005e1a:	bf42      	ittt	mi
 8005e1c:	6833      	ldrmi	r3, [r6, #0]
 8005e1e:	3302      	addmi	r3, #2
 8005e20:	6033      	strmi	r3, [r6, #0]
 8005e22:	6825      	ldr	r5, [r4, #0]
 8005e24:	f015 0506 	ands.w	r5, r5, #6
 8005e28:	d106      	bne.n	8005e38 <_printf_common+0x48>
 8005e2a:	f104 0a19 	add.w	sl, r4, #25
 8005e2e:	68e3      	ldr	r3, [r4, #12]
 8005e30:	6832      	ldr	r2, [r6, #0]
 8005e32:	1a9b      	subs	r3, r3, r2
 8005e34:	42ab      	cmp	r3, r5
 8005e36:	dc2b      	bgt.n	8005e90 <_printf_common+0xa0>
 8005e38:	f894 2043 	ldrb.w	r2, [r4, #67]	; 0x43
 8005e3c:	1e13      	subs	r3, r2, #0
 8005e3e:	6822      	ldr	r2, [r4, #0]
 8005e40:	bf18      	it	ne
 8005e42:	2301      	movne	r3, #1
 8005e44:	0692      	lsls	r2, r2, #26
 8005e46:	d430      	bmi.n	8005eaa <_printf_common+0xba>
 8005e48:	4649      	mov	r1, r9
 8005e4a:	4638      	mov	r0, r7
 8005e4c:	f104 0243 	add.w	r2, r4, #67	; 0x43
 8005e50:	47c0      	blx	r8
 8005e52:	3001      	adds	r0, #1
 8005e54:	d023      	beq.n	8005e9e <_printf_common+0xae>
 8005e56:	6823      	ldr	r3, [r4, #0]
 8005e58:	6922      	ldr	r2, [r4, #16]
 8005e5a:	f003 0306 	and.w	r3, r3, #6
 8005e5e:	2b04      	cmp	r3, #4
 8005e60:	bf14      	ite	ne
 8005e62:	2500      	movne	r5, #0
 8005e64:	6833      	ldreq	r3, [r6, #0]
 8005e66:	f04f 0600 	mov.w	r6, #0
 8005e6a:	bf08      	it	eq
 8005e6c:	68e5      	ldreq	r5, [r4, #12]
 8005e6e:	f104 041a 	add.w	r4, r4, #26
 8005e72:	bf08      	it	eq
 8005e74:	1aed      	subeq	r5, r5, r3
 8005e76:	f854 3c12 	ldr.w	r3, [r4, #-18]
 8005e7a:	bf08      	it	eq
 8005e7c:	ea25 75e5 	biceq.w	r5, r5, r5, asr #31
 8005e80:	4293      	cmp	r3, r2
 8005e82:	bfc4      	itt	gt
 8005e84:	1a9b      	subgt	r3, r3, r2
 8005e86:	18ed      	addgt	r5, r5, r3
 8005e88:	42b5      	cmp	r5, r6
 8005e8a:	d11a      	bne.n	8005ec2 <_printf_common+0xd2>
 8005e8c:	2000      	movs	r0, #0
 8005e8e:	e008      	b.n	8005ea2 <_printf_common+0xb2>
 8005e90:	2301      	movs	r3, #1
 8005e92:	4652      	mov	r2, sl
 8005e94:	4649      	mov	r1, r9
 8005e96:	4638      	mov	r0, r7
 8005e98:	47c0      	blx	r8
 8005e9a:	3001      	adds	r0, #1
 8005e9c:	d103      	bne.n	8005ea6 <_printf_common+0xb6>
 8005e9e:	f04f 30ff 	mov.w	r0, #4294967295
 8005ea2:	e8bd 87f0 	ldmia.w	sp!, {r4, r5, r6, r7, r8, r9, sl, pc}
 8005ea6:	3501      	adds	r5, #1
 8005ea8:	e7c1      	b.n	8005e2e <_printf_common+0x3e>
 8005eaa:	2030      	movs	r0, #48	; 0x30
 8005eac:	18e1      	adds	r1, r4, r3
 8005eae:	f881 0043 	strb.w	r0, [r1, #67]	; 0x43
 8005eb2:	1c5a      	adds	r2, r3, #1
 8005eb4:	f894 1045 	ldrb.w	r1, [r4, #69]	; 0x45
 8005eb8:	4422      	add	r2, r4
 8005eba:	3302      	adds	r3, #2
 8005ebc:	f882 1043 	strb.w	r1, [r2, #67]	; 0x43
 8005ec0:	e7c2      	b.n	8005e48 <_printf_common+0x58>
 8005ec2:	2301      	movs	r3, #1
 8005ec4:	4622      	mov	r2, r4
 8005ec6:	4649      	mov	r1, r9
 8005ec8:	4638      	mov	r0, r7
 8005eca:	47c0      	blx	r8
 8005ecc:	3001      	adds	r0, #1
 8005ece:	d0e6      	beq.n	8005e9e <_printf_common+0xae>
 8005ed0:	3601      	adds	r6, #1
 8005ed2:	e7d9      	b.n	8005e88 <_printf_common+0x98>

08005ed4 <_printf_i>:
 8005ed4:	e92d 47ff 	stmdb	sp!, {r0, r1, r2, r3, r4, r5, r6, r7, r8, r9, sl, lr}
 8005ed8:	7e0f      	ldrb	r7, [r1, #24]
 8005eda:	4691      	mov	r9, r2
 8005edc:	2f78      	cmp	r7, #120	; 0x78
 8005ede:	4680      	mov	r8, r0
 8005ee0:	460c      	mov	r4, r1
 8005ee2:	469a      	mov	sl, r3
 8005ee4:	9d0c      	ldr	r5, [sp, #48]	; 0x30
 8005ee6:	f101 0243 	add.w	r2, r1, #67	; 0x43
 8005eea:	d807      	bhi.n	8005efc <_printf_i+0x28>
 8005eec:	2f62      	cmp	r7, #98	; 0x62
 8005eee:	d80a      	bhi.n	8005f06 <_printf_i+0x32>
 8005ef0:	2f00      	cmp	r7, #0
 8005ef2:	f000 80d5 	beq.w	80060a0 <_printf_i+0x1cc>
 8005ef6:	2f58      	cmp	r7, #88	; 0x58
 8005ef8:	f000 80c1 	beq.w	800607e <_printf_i+0x1aa>
 8005efc:	f104 0542 	add.w	r5, r4, #66	; 0x42
 8005f00:	f884 7042 	strb.w	r7, [r4, #66]	; 0x42
 8005f04:	e03a      	b.n	8005f7c <_printf_i+0xa8>
 8005f06:	f1a7 0363 	sub.w	r3, r7, #99	; 0x63
 8005f0a:	2b15      	cmp	r3, #21
 8005f0c:	d8f6      	bhi.n	8005efc <_printf_i+0x28>
 8005f0e:	a101      	add	r1, pc, #4	; (adr r1, 8005f14 <_printf_i+0x40>)
 8005f10:	f851 f023 	ldr.w	pc, [r1, r3, lsl #2]
 8005f14:	08005f6d 	.word	0x08005f6d
 8005f18:	08005f81 	.word	0x08005f81
 8005f1c:	08005efd 	.word	0x08005efd
 8005f20:	08005efd 	.word	0x08005efd
 8005f24:	08005efd 	.word	0x08005efd
 8005f28:	08005efd 	.word	0x08005efd
 8005f2c:	08005f81 	.word	0x08005f81
 8005f30:	08005efd 	.word	0x08005efd
 8005f34:	08005efd 	.word	0x08005efd
 8005f38:	08005efd 	.word	0x08005efd
 8005f3c:	08005efd 	.word	0x08005efd
 8005f40:	08006087 	.word	0x08006087
 8005f44:	08005fad 	.word	0x08005fad
 8005f48:	08006041 	.word	0x08006041
 8005f4c:	08005efd 	.word	0x08005efd
 8005f50:	08005efd 	.word	0x08005efd
 8005f54:	080060a9 	.word	0x080060a9
 8005f58:	08005efd 	.word	0x08005efd
 8005f5c:	08005fad 	.word	0x08005fad
 8005f60:	08005efd 	.word	0x08005efd
 8005f64:	08005efd 	.word	0x08005efd
 8005f68:	08006049 	.word	0x08006049
 8005f6c:	682b      	ldr	r3, [r5, #0]
 8005f6e:	1d1a      	adds	r2, r3, #4
 8005f70:	681b      	ldr	r3, [r3, #0]
 8005f72:	602a      	str	r2, [r5, #0]
 8005f74:	f104 0542 	add.w	r5, r4, #66	; 0x42
 8005f78:	f884 3042 	strb.w	r3, [r4, #66]	; 0x42
 8005f7c:	2301      	movs	r3, #1
 8005f7e:	e0a0      	b.n	80060c2 <_printf_i+0x1ee>
 8005f80:	6820      	ldr	r0, [r4, #0]
 8005f82:	682b      	ldr	r3, [r5, #0]
 8005f84:	0607      	lsls	r7, r0, #24
 8005f86:	f103 0104 	add.w	r1, r3, #4
 8005f8a:	6029      	str	r1, [r5, #0]
 8005f8c:	d501      	bpl.n	8005f92 <_printf_i+0xbe>
 8005f8e:	681e      	ldr	r6, [r3, #0]
 8005f90:	e003      	b.n	8005f9a <_printf_i+0xc6>
 8005f92:	0646      	lsls	r6, r0, #25
 8005f94:	d5fb      	bpl.n	8005f8e <_printf_i+0xba>
 8005f96:	f9b3 6000 	ldrsh.w	r6, [r3]
 8005f9a:	2e00      	cmp	r6, #0
 8005f9c:	da03      	bge.n	8005fa6 <_printf_i+0xd2>
 8005f9e:	232d      	movs	r3, #45	; 0x2d
 8005fa0:	4276      	negs	r6, r6
 8005fa2:	f884 3043 	strb.w	r3, [r4, #67]	; 0x43
 8005fa6:	230a      	movs	r3, #10
 8005fa8:	4859      	ldr	r0, [pc, #356]	; (8006110 <_printf_i+0x23c>)
 8005faa:	e012      	b.n	8005fd2 <_printf_i+0xfe>
 8005fac:	682b      	ldr	r3, [r5, #0]
 8005fae:	6820      	ldr	r0, [r4, #0]
 8005fb0:	1d19      	adds	r1, r3, #4
 8005fb2:	6029      	str	r1, [r5, #0]
 8005fb4:	0605      	lsls	r5, r0, #24
 8005fb6:	d501      	bpl.n	8005fbc <_printf_i+0xe8>
 8005fb8:	681e      	ldr	r6, [r3, #0]
 8005fba:	e002      	b.n	8005fc2 <_printf_i+0xee>
 8005fbc:	0641      	lsls	r1, r0, #25
 8005fbe:	d5fb      	bpl.n	8005fb8 <_printf_i+0xe4>
 8005fc0:	881e      	ldrh	r6, [r3, #0]
 8005fc2:	2f6f      	cmp	r7, #111	; 0x6f
 8005fc4:	bf0c      	ite	eq
 8005fc6:	2308      	moveq	r3, #8
 8005fc8:	230a      	movne	r3, #10
 8005fca:	4851      	ldr	r0, [pc, #324]	; (8006110 <_printf_i+0x23c>)
 8005fcc:	2100      	movs	r1, #0
 8005fce:	f884 1043 	strb.w	r1, [r4, #67]	; 0x43
 8005fd2:	6865      	ldr	r5, [r4, #4]
 8005fd4:	2d00      	cmp	r5, #0
 8005fd6:	bfa8      	it	ge
 8005fd8:	6821      	ldrge	r1, [r4, #0]
 8005fda:	60a5      	str	r5, [r4, #8]
 8005fdc:	bfa4      	itt	ge
 8005fde:	f021 0104 	bicge.w	r1, r1, #4
 8005fe2:	6021      	strge	r1, [r4, #0]
 8005fe4:	b90e      	cbnz	r6, 8005fea <_printf_i+0x116>
 8005fe6:	2d00      	cmp	r5, #0
 8005fe8:	d04b      	beq.n	8006082 <_printf_i+0x1ae>
 8005fea:	4615      	mov	r5, r2
 8005fec:	fbb6 f1f3 	udiv	r1, r6, r3
 8005ff0:	fb03 6711 	mls	r7, r3, r1, r6
 8005ff4:	5dc7      	ldrb	r7, [r0, r7]
 8005ff6:	f805 7d01 	strb.w	r7, [r5, #-1]!
 8005ffa:	4637      	mov	r7, r6
 8005ffc:	42bb      	cmp	r3, r7
 8005ffe:	460e      	mov	r6, r1
 8006000:	d9f4      	bls.n	8005fec <_printf_i+0x118>
 8006002:	2b08      	cmp	r3, #8
 8006004:	d10b      	bne.n	800601e <_printf_i+0x14a>
 8006006:	6823      	ldr	r3, [r4, #0]
 8006008:	07de      	lsls	r6, r3, #31
 800600a:	d508      	bpl.n	800601e <_printf_i+0x14a>
 800600c:	6923      	ldr	r3, [r4, #16]
 800600e:	6861      	ldr	r1, [r4, #4]
 8006010:	4299      	cmp	r1, r3
 8006012:	bfde      	ittt	le
 8006014:	2330      	movle	r3, #48	; 0x30
 8006016:	f805 3c01 	strble.w	r3, [r5, #-1]
 800601a:	f105 35ff 	addle.w	r5, r5, #4294967295
 800601e:	1b52      	subs	r2, r2, r5
 8006020:	6122      	str	r2, [r4, #16]
 8006022:	464b      	mov	r3, r9
 8006024:	4621      	mov	r1, r4
 8006026:	4640      	mov	r0, r8
 8006028:	f8cd a000 	str.w	sl, [sp]
 800602c:	aa03      	add	r2, sp, #12
 800602e:	f7ff fedf 	bl	8005df0 <_printf_common>
 8006032:	3001      	adds	r0, #1
 8006034:	d14a      	bne.n	80060cc <_printf_i+0x1f8>
 8006036:	f04f 30ff 	mov.w	r0, #4294967295
 800603a:	b004      	add	sp, #16
 800603c:	e8bd 87f0 	ldmia.w	sp!, {r4, r5, r6, r7, r8, r9, sl, pc}
 8006040:	6823      	ldr	r3, [r4, #0]
 8006042:	f043 0320 	orr.w	r3, r3, #32
 8006046:	6023      	str	r3, [r4, #0]
 8006048:	2778      	movs	r7, #120	; 0x78
 800604a:	4832      	ldr	r0, [pc, #200]	; (8006114 <_printf_i+0x240>)
 800604c:	f884 7045 	strb.w	r7, [r4, #69]	; 0x45
 8006050:	6823      	ldr	r3, [r4, #0]
 8006052:	6829      	ldr	r1, [r5, #0]
 8006054:	061f      	lsls	r7, r3, #24
 8006056:	f851 6b04 	ldr.w	r6, [r1], #4
 800605a:	d402      	bmi.n	8006062 <_printf_i+0x18e>
 800605c:	065f      	lsls	r7, r3, #25
 800605e:	bf48      	it	mi
 8006060:	b2b6      	uxthmi	r6, r6
 8006062:	07df      	lsls	r7, r3, #31
 8006064:	bf48      	it	mi
 8006066:	f043 0320 	orrmi.w	r3, r3, #32
 800606a:	6029      	str	r1, [r5, #0]
 800606c:	bf48      	it	mi
 800606e:	6023      	strmi	r3, [r4, #0]
 8006070:	b91e      	cbnz	r6, 800607a <_printf_i+0x1a6>
 8006072:	6823      	ldr	r3, [r4, #0]
 8006074:	f023 0320 	bic.w	r3, r3, #32
 8006078:	6023      	str	r3, [r4, #0]
 800607a:	2310      	movs	r3, #16
 800607c:	e7a6      	b.n	8005fcc <_printf_i+0xf8>
 800607e:	4824      	ldr	r0, [pc, #144]	; (8006110 <_printf_i+0x23c>)
 8006080:	e7e4      	b.n	800604c <_printf_i+0x178>
 8006082:	4615      	mov	r5, r2
 8006084:	e7bd      	b.n	8006002 <_printf_i+0x12e>
 8006086:	682b      	ldr	r3, [r5, #0]
 8006088:	6826      	ldr	r6, [r4, #0]
 800608a:	1d18      	adds	r0, r3, #4
 800608c:	6961      	ldr	r1, [r4, #20]
 800608e:	6028      	str	r0, [r5, #0]
 8006090:	0635      	lsls	r5, r6, #24
 8006092:	681b      	ldr	r3, [r3, #0]
 8006094:	d501      	bpl.n	800609a <_printf_i+0x1c6>
 8006096:	6019      	str	r1, [r3, #0]
 8006098:	e002      	b.n	80060a0 <_printf_i+0x1cc>
 800609a:	0670      	lsls	r0, r6, #25
 800609c:	d5fb      	bpl.n	8006096 <_printf_i+0x1c2>
 800609e:	8019      	strh	r1, [r3, #0]
 80060a0:	2300      	movs	r3, #0
 80060a2:	4615      	mov	r5, r2
 80060a4:	6123      	str	r3, [r4, #16]
 80060a6:	e7bc      	b.n	8006022 <_printf_i+0x14e>
 80060a8:	682b      	ldr	r3, [r5, #0]
 80060aa:	2100      	movs	r1, #0
 80060ac:	1d1a      	adds	r2, r3, #4
 80060ae:	602a      	str	r2, [r5, #0]
 80060b0:	681d      	ldr	r5, [r3, #0]
 80060b2:	6862      	ldr	r2, [r4, #4]
 80060b4:	4628      	mov	r0, r5
 80060b6:	f000 f859 	bl	800616c <memchr>
 80060ba:	b108      	cbz	r0, 80060c0 <_printf_i+0x1ec>
 80060bc:	1b40      	subs	r0, r0, r5
 80060be:	6060      	str	r0, [r4, #4]
 80060c0:	6863      	ldr	r3, [r4, #4]
 80060c2:	6123      	str	r3, [r4, #16]
 80060c4:	2300      	movs	r3, #0
 80060c6:	f884 3043 	strb.w	r3, [r4, #67]	; 0x43
 80060ca:	e7aa      	b.n	8006022 <_printf_i+0x14e>
 80060cc:	462a      	mov	r2, r5
 80060ce:	4649      	mov	r1, r9
 80060d0:	4640      	mov	r0, r8
 80060d2:	6923      	ldr	r3, [r4, #16]
 80060d4:	47d0      	blx	sl
 80060d6:	3001      	adds	r0, #1
 80060d8:	d0ad      	beq.n	8006036 <_printf_i+0x162>
 80060da:	6823      	ldr	r3, [r4, #0]
 80060dc:	079b      	lsls	r3, r3, #30
 80060de:	d413      	bmi.n	8006108 <_printf_i+0x234>
 80060e0:	68e0      	ldr	r0, [r4, #12]
 80060e2:	9b03      	ldr	r3, [sp, #12]
 80060e4:	4298      	cmp	r0, r3
 80060e6:	bfb8      	it	lt
 80060e8:	4618      	movlt	r0, r3
 80060ea:	e7a6      	b.n	800603a <_printf_i+0x166>
 80060ec:	2301      	movs	r3, #1
 80060ee:	4632      	mov	r2, r6
 80060f0:	4649      	mov	r1, r9
 80060f2:	4640      	mov	r0, r8
 80060f4:	47d0      	blx	sl
 80060f6:	3001      	adds	r0, #1
 80060f8:	d09d      	beq.n	8006036 <_printf_i+0x162>
 80060fa:	3501      	adds	r5, #1
 80060fc:	68e3      	ldr	r3, [r4, #12]
 80060fe:	9903      	ldr	r1, [sp, #12]
 8006100:	1a5b      	subs	r3, r3, r1
 8006102:	42ab      	cmp	r3, r5
 8006104:	dcf2      	bgt.n	80060ec <_printf_i+0x218>
 8006106:	e7eb      	b.n	80060e0 <_printf_i+0x20c>
 8006108:	2500      	movs	r5, #0
 800610a:	f104 0619 	add.w	r6, r4, #25
 800610e:	e7f5      	b.n	80060fc <_printf_i+0x228>
 8006110:	08007a47 	.word	0x08007a47
 8006114:	08007a58 	.word	0x08007a58

08006118 <memmove>:
 8006118:	4288      	cmp	r0, r1
 800611a:	b510      	push	{r4, lr}
 800611c:	eb01 0402 	add.w	r4, r1, r2
 8006120:	d902      	bls.n	8006128 <memmove+0x10>
 8006122:	4284      	cmp	r4, r0
 8006124:	4623      	mov	r3, r4
 8006126:	d807      	bhi.n	8006138 <memmove+0x20>
 8006128:	1e43      	subs	r3, r0, #1
 800612a:	42a1      	cmp	r1, r4
 800612c:	d008      	beq.n	8006140 <memmove+0x28>
 800612e:	f811 2b01 	ldrb.w	r2, [r1], #1
 8006132:	f803 2f01 	strb.w	r2, [r3, #1]!
 8006136:	e7f8      	b.n	800612a <memmove+0x12>
 8006138:	4601      	mov	r1, r0
 800613a:	4402      	add	r2, r0
 800613c:	428a      	cmp	r2, r1
 800613e:	d100      	bne.n	8006142 <memmove+0x2a>
 8006140:	bd10      	pop	{r4, pc}
 8006142:	f813 4d01 	ldrb.w	r4, [r3, #-1]!
 8006146:	f802 4d01 	strb.w	r4, [r2, #-1]!
 800614a:	e7f7      	b.n	800613c <memmove+0x24>

0800614c <_sbrk_r>:
 800614c:	b538      	push	{r3, r4, r5, lr}
 800614e:	2300      	movs	r3, #0
 8006150:	4d05      	ldr	r5, [pc, #20]	; (8006168 <_sbrk_r+0x1c>)
 8006152:	4604      	mov	r4, r0
 8006154:	4608      	mov	r0, r1
 8006156:	602b      	str	r3, [r5, #0]
 8006158:	f7fe ff58 	bl	800500c <_sbrk>
 800615c:	1c43      	adds	r3, r0, #1
 800615e:	d102      	bne.n	8006166 <_sbrk_r+0x1a>
 8006160:	682b      	ldr	r3, [r5, #0]
 8006162:	b103      	cbz	r3, 8006166 <_sbrk_r+0x1a>
 8006164:	6023      	str	r3, [r4, #0]
 8006166:	bd38      	pop	{r3, r4, r5, pc}
 8006168:	200001cc 	.word	0x200001cc

0800616c <memchr>:
 800616c:	4603      	mov	r3, r0
 800616e:	b510      	push	{r4, lr}
 8006170:	b2c9      	uxtb	r1, r1
 8006172:	4402      	add	r2, r0
 8006174:	4293      	cmp	r3, r2
 8006176:	4618      	mov	r0, r3
 8006178:	d101      	bne.n	800617e <memchr+0x12>
 800617a:	2000      	movs	r0, #0
 800617c:	e003      	b.n	8006186 <memchr+0x1a>
 800617e:	7804      	ldrb	r4, [r0, #0]
 8006180:	3301      	adds	r3, #1
 8006182:	428c      	cmp	r4, r1
 8006184:	d1f6      	bne.n	8006174 <memchr+0x8>
 8006186:	bd10      	pop	{r4, pc}

08006188 <memcpy>:
 8006188:	440a      	add	r2, r1
 800618a:	4291      	cmp	r1, r2
 800618c:	f100 33ff 	add.w	r3, r0, #4294967295
 8006190:	d100      	bne.n	8006194 <memcpy+0xc>
 8006192:	4770      	bx	lr
 8006194:	b510      	push	{r4, lr}
 8006196:	f811 4b01 	ldrb.w	r4, [r1], #1
 800619a:	4291      	cmp	r1, r2
 800619c:	f803 4f01 	strb.w	r4, [r3, #1]!
 80061a0:	d1f9      	bne.n	8006196 <memcpy+0xe>
 80061a2:	bd10      	pop	{r4, pc}

080061a4 <_realloc_r>:
 80061a4:	e92d 41f0 	stmdb	sp!, {r4, r5, r6, r7, r8, lr}
 80061a8:	4680      	mov	r8, r0
 80061aa:	4614      	mov	r4, r2
 80061ac:	460e      	mov	r6, r1
 80061ae:	b921      	cbnz	r1, 80061ba <_realloc_r+0x16>
 80061b0:	4611      	mov	r1, r2
 80061b2:	e8bd 41f0 	ldmia.w	sp!, {r4, r5, r6, r7, r8, lr}
 80061b6:	f7ff bc37 	b.w	8005a28 <_malloc_r>
 80061ba:	b92a      	cbnz	r2, 80061c8 <_realloc_r+0x24>
 80061bc:	f7ff fbcc 	bl	8005958 <_free_r>
 80061c0:	4625      	mov	r5, r4
 80061c2:	4628      	mov	r0, r5
 80061c4:	e8bd 81f0 	ldmia.w	sp!, {r4, r5, r6, r7, r8, pc}
 80061c8:	f000 f81b 	bl	8006202 <_malloc_usable_size_r>
 80061cc:	4284      	cmp	r4, r0
 80061ce:	4607      	mov	r7, r0
 80061d0:	d802      	bhi.n	80061d8 <_realloc_r+0x34>
 80061d2:	ebb4 0f50 	cmp.w	r4, r0, lsr #1
 80061d6:	d812      	bhi.n	80061fe <_realloc_r+0x5a>
 80061d8:	4621      	mov	r1, r4
 80061da:	4640      	mov	r0, r8
 80061dc:	f7ff fc24 	bl	8005a28 <_malloc_r>
 80061e0:	4605      	mov	r5, r0
 80061e2:	2800      	cmp	r0, #0
 80061e4:	d0ed      	beq.n	80061c2 <_realloc_r+0x1e>
 80061e6:	42bc      	cmp	r4, r7
 80061e8:	4622      	mov	r2, r4
 80061ea:	4631      	mov	r1, r6
 80061ec:	bf28      	it	cs
 80061ee:	463a      	movcs	r2, r7
 80061f0:	f7ff ffca 	bl	8006188 <memcpy>
 80061f4:	4631      	mov	r1, r6
 80061f6:	4640      	mov	r0, r8
 80061f8:	f7ff fbae 	bl	8005958 <_free_r>
 80061fc:	e7e1      	b.n	80061c2 <_realloc_r+0x1e>
 80061fe:	4635      	mov	r5, r6
 8006200:	e7df      	b.n	80061c2 <_realloc_r+0x1e>

08006202 <_malloc_usable_size_r>:
 8006202:	f851 3c04 	ldr.w	r3, [r1, #-4]
 8006206:	1f18      	subs	r0, r3, #4
 8006208:	2b00      	cmp	r3, #0
 800620a:	bfbc      	itt	lt
 800620c:	580b      	ldrlt	r3, [r1, r0]
 800620e:	18c0      	addlt	r0, r0, r3
 8006210:	4770      	bx	lr
	...

08006214 <_init>:
 8006214:	b5f8      	push	{r3, r4, r5, r6, r7, lr}
 8006216:	bf00      	nop
 8006218:	bcf8      	pop	{r3, r4, r5, r6, r7}
 800621a:	bc08      	pop	{r3}
 800621c:	469e      	mov	lr, r3
 800621e:	4770      	bx	lr

08006220 <_fini>:
 8006220:	b5f8      	push	{r3, r4, r5, r6, r7, lr}
 8006222:	bf00      	nop
 8006224:	bcf8      	pop	{r3, r4, r5, r6, r7}
 8006226:	bc08      	pop	{r3}
 8006228:	469e      	mov	lr, r3
 800622a:	4770      	bx	lr
